(dp1
S'rating'
p2
(dp3
S'type'
p4
S'integer'
p5
sS'sortable'
p6
I4
sS'sql'
p7
S'INTEGER'
p8
ssS'song'
p9
(dp10
g4
S'reference song'
p11
sg6
I3
sg7
S'INTEGER REFERENCES song(id) ON DELETE CASCADE'
p12
ssS'id'
p13
(dp14
g4
g13
sg6
I1
sg7
S'INTEGER PRIMARY KEY AUTOINCREMENT'
p15
ssS'user'
p16
(dp17
g4
S'reference auth_user'
p18
sg6
I2
sg7
S'INTEGER REFERENCES auth_user(id) ON DELETE CASCADE'
p19
ss.