(dp1
S'output'
p2
S''
sS'layer'
p3
S'/home/vsvah/Desktop/Coursework/Sem3/SSAD/web2py/applications/Music_Repo/controllers/default.py'
p4
sS'code'
p5
S'# -*- coding: utf-8 -*-\n# this file is released under public domain and you can use without limitations\n\n#########################################################################\n## This is a samples controller\n## - index is the default action of any application\n## - user is required for authentication and authorization\n## - download is for downloading files uploaded in the db (does streaming)\n## - call exposes all registered services (none by default)\n#########################################################################\n\ndef index():\n    """\n    example action using the internationalization operator T and flash\n    rendered by views/default/index.html or views/generic.html\n    """\n    return dict(message=T(\'Hello World\'))\n\ndef user():\n    """\n    exposes:\n    http://..../[app]/default/user/login\n    http://..../[app]/default/user/logout\n    http://..../[app]/default/user/register\n    http://..../[app]/default/user/profile\n    http://..../[app]/default/user/retrieve_password\n    http://..../[app]/default/user/change_password\n    use @auth.requires_login()\n        @auth.requires_membership(\'group name\')\n        @auth.requires_permission(\'read\',\'table name\',record_id)\n    to decorate functions that need access control\n    """\n    return dict(form=auth())\n\n\ndef download():\n    """\n    allows downloading of uploaded files\n    http://..../[app]/default/download/[filename]\n    """\n    return response.download(request,db)\n\n\ndef call():\n    """\n    exposes services. for example:\n    http://..../[app]/default/call/jsonrpc\n    decorate with @services.jsonrpc the functions to expose\n    supports xml, json, xmlrpc, jsonrpc, amfrpc, rss, csv\n    """\n    return service()\n\n\n@auth.requires_signature()\ndef data():\n    """\n    http://..../[app]/default/data/tables\n    http://..../[app]/default/data/create/[table]\n    http://..../[app]/default/data/read/[table]/[id]\n    http://..../[app]/default/data/update/[table]/[id]\n    http://..../[app]/default/data/delete/[table]/[id[\n    http://..../[app]/default/data/select/[table]\n    http://..../[app]/default/data/search/[table]\n    but URLs bust be signed, i.e. linked with\n      A(\'table\',_href=URL(\'data/tables\',user_signature=True))\n    or with the signed load operator\n      LOAD(\'default\',\'data.load\',args=\'tables\',ajax=True,user_signature=True)\n    """\n    return dict(form=crud())\n\n\ndef form_for_artist():\n\tform = SQLFORM(db.artist)\n\tif form.accepts(request.vars, session):\n\t      response.flash = \'form accepted\'\n\telif form.errors:\n\t      response.flash = \'form has errors\'\n\telse:\n\t      response.flash = \'please fill out the form\'\n\treturn dict(form=form)\n\t\ndef form_for_movie():\n\tform = SQLFORM(db.movie)\n\tif form.accepts(request.vars, session):\n\t      response.flash = \'form accepted\'\n\telif form.errors:\n\t      response.flash = \'form has errors\'\n\telse:\n\t      response.flash = \'please fill out the form\'\n\treturn dict(form=form)\n\ndef form_for_song():\n\tform = SQLFORM(db.song)\n\tif form.accepts(request.vars, session):\n\t      response.flash = \'form accepted\'\n\telif form.errors:\n\t      response.flash = \'form has errors\'\n\telse:\n\t      response.flash = \'please fill out the form\'\n\treturn dict(form=form)\n@auth.requires_login()\ndef form_for_rating():\n\tform = SQLFORM(db.rating)\n\tif form.accepts(request.vars, session):\n\t      response.flash = \'form accepted\'\n\t      k = request.vars.rating\n\t      n = request.vars.song\n\t      row = db(db.rating.song==n).select()\n\t      s=0\n\t      c=0\n\t      for i in row:\n\t        s=s+i.rating\n\t        c=c+1\n\t        s=s/c\n\t      rows = db(db.song.id==n).select()\n\t      row = rows[0]\n\t      row.update_record(rating = s)\n\n\telif form.errors:\n\t      response.flash = \'form has errors\'\n\telse:\n\t      response.flash = \'please fill out the form\'\n\treturn dict(form=form)\n\ndef form_for_user():\n\tform = SQLFORM(db.auth_user)\n\tif form.accepts(request.vars, session):\n\t      response.flash = \'form accepted\'\n\telif form.errors:\n\t      response.flash = \'form has errors\'\n\telse:\n\t      response.flash = \'please fill out the form\'\n\treturn dict(form=form)\n\ndef query_form():\n\tform = SQLFORM.factory(\n\t\t\tField(\'query_number\',\'integer\',requires = IS_INT_IN_RANGE(1,6))\n\t\t\t)\n\tif form.accepts(request.vars,session):\n\t\tredirect(URL(\'q\'+request.vars.query_number))\n\treturn dict(form=form)\n\ndef movie_artist_query():\n\tform = SQLFORM.factory(\n\t\t\tField(\'movie_name\',\'string\'),\n\t\t\tField(\'artist_name\',\'string\')\n\t\t\t)\n        if form.accepts(request.vars,session):\n\t\t if request.vars.movie_name == \'\' and request.vars.artist_name == \'\' :\n\t\t                 response.flash = \'please enter one field\'\n                 else:\n\t\t\tsession.movie = request.vars.movie_name\n\t        \tsession.artist = request.vars.artist_name\n\t\t        redirect(URL(\'display_link\'))\n        return dict(form=form)\n\ndef display_link():\n       if session.movie!=\'\' and session.artist!=\'\': \n\trows = db( ((db.song.movie == db.movie.id) & (db.movie.name==session.movie))&((db.song.singer == db.artist.id)&(db.artist.name==session.artist)) ).select()\n       elif session.movie!=\'\':\n\t rows =db((db.song.movie==db.movie.id) & (db.movie.name == session.movie) ).select()\n       else:\n\t  rows = db((db.song.singer == db.artist.id) & (db.artist.name == session.artist)).select()\n       return dict(r = rows)\n\t  \ndef display_details():\n\tidno = request.vars.args[0]\n\trows = db(db.song.id == idno).select()\n\treturn dict(r=idno)\n\ndef q1():\n\trow = db((db.song.singer == db.artist.id) & (db.artist.id == 3)).select(db.song.name)\n\treturn dict(r=row)\n\ndef q2():\n\trow = db((db.song.singer==db.artist.id) & (db.artist.name == "Balu")).select(db.song.name)\n\treturn dict(r=row)\n\ndef q3():\n\trow = db(((db.song.singer == db.artist.id) & (db.artist.name == "Balu")) & ((db.song.movie == db.movie.id) & (db.movie.name=="Shankarabharanam"))).select(db.song.name)\n\treturn dict(r=row)\n\ndef q4():\n\trow = db(((db.song.singer == db.artist.id) & (db.artist.name == "Balu")) & ((db.song.movie==db.movie.id) & (db.movie.release_date<datetime.date(2000,1,1)))).select(db.song.name,db.song.actor)\n\treturn dict(r=row)\n\ndef q5():\n\trow=db((db.song.rating>=4) & (db.song.singer==db.artist.id)).select(db.song.name,db.artist.name)\n\treturn dict(r=row)\n\ndef reset_state():\n\tdb.artist.truncate()\n\tdb.song.truncate()\n\tdb.movie.truncate()\n\tdb.rating.truncate()\n        return dict(r="All Tables Successfully Cleared :D")\n\t\n\nresponse._vars=response._caller(display_details)\n'
p6
sS'snapshot'
p7
(dp8
S'exception'
p9
(dp10
S'__hash__'
p11
S"<method-wrapper '__hash__' of exceptions.TypeError object>"
p12
sS'__setattr__'
p13
S"<method-wrapper '__setattr__' of exceptions.TypeError object>"
p14
sS'__reduce_ex__'
p15
S'<built-in method __reduce_ex__ of exceptions.TypeError object>'
p16
sS'__getslice__'
p17
S"<method-wrapper '__getslice__' of exceptions.TypeError object>"
p18
sS'__getitem__'
p19
S"<method-wrapper '__getitem__' of exceptions.TypeError object>"
p20
sS'__setstate__'
p21
S'<built-in method __setstate__ of exceptions.TypeError object>'
p22
sS'__reduce__'
p23
S'<built-in method __reduce__ of exceptions.TypeError object>'
p24
sS'__str__'
p25
S"<method-wrapper '__str__' of exceptions.TypeError object>"
p26
sS'__format__'
p27
S'<built-in method __format__ of exceptions.TypeError object>'
p28
sS'__getattribute__'
p29
S"<method-wrapper '__getattribute__' of exceptions.TypeError object>"
p30
sS'__class__'
p31
S"<type 'exceptions.TypeError'>"
p32
sS'__unicode__'
p33
S'<built-in method __unicode__ of exceptions.TypeError object>'
p34
sS'__delattr__'
p35
S"<method-wrapper '__delattr__' of exceptions.TypeError object>"
p36
sS'__subclasshook__'
p37
S'<built-in method __subclasshook__ of type object>'
p38
sS'__repr__'
p39
S"<method-wrapper '__repr__' of exceptions.TypeError object>"
p40
sS'args'
p41
S'("\'NoneType\' object is unsubscriptable",)'
p42
sS'__dict__'
p43
S'{}'
p44
sS'__sizeof__'
p45
S'<built-in method __sizeof__ of exceptions.TypeError object>'
p46
sS'__doc__'
p47
S"'Inappropriate argument type.'"
p48
sS'__init__'
p49
S"<method-wrapper '__init__' of exceptions.TypeError object>"
p50
sS'__new__'
p51
S'<built-in method __new__ of type object>'
p52
ssS'evalue'
p53
S"'NoneType' object is unsubscriptable"
p54
sS'request'
p55
ccopy_reg
_reconstructor
p56
(cgluon.html
BEAUTIFY
p57
c__builtin__
object
p58
NtRp59
(dp60
S'attributes'
p61
(dp62
sS'components'
p63
(lp64
g56
(cgluon.html
TABLE
p65
g58
NtRp66
(dp67
g61
(dp68
S'level'
p69
I5
ssS'parent'
p70
Nsg63
(lp71
g56
(cgluon.html
TR
p72
g58
NtRp73
(dp74
g61
(dp75
sg70
g66
sg63
(lp76
g56
(cgluon.html
TD
p77
g58
NtRp78
(dp79
g61
(dp80
S'_style'
p81
S'font-weight:bold;'
p82
ssg70
g73
sg63
(lp83
S'ajax'
p84
asbag56
(g77
g58
NtRp85
(dp86
g61
(dp87
S'_valign'
p88
S'top'
p89
ssg70
g73
sg63
(lp90
S':'
asbag56
(g77
g58
NtRp91
(dp92
g61
(dp93
sg70
g73
sg63
(lp94
g56
(g57
g58
NtRp95
(dp96
g61
(dp97
g69
I5
ssg70
g91
sg63
(lp98
S'False'
p99
asbasbasbag56
(g72
g58
NtRp100
(dp101
g61
(dp102
sg70
g66
sg63
(lp103
g56
(g77
g58
NtRp104
(dp105
g61
(dp106
g81
g82
ssg70
g100
sg63
(lp107
S'application'
p108
asbag56
(g77
g58
NtRp109
(dp110
g61
(dp111
g88
g89
ssg70
g100
sg63
(lp112
S':'
asbag56
(g77
g58
NtRp113
(dp114
g61
(dp115
sg70
g100
sg63
(lp116
g56
(g57
g58
NtRp117
(dp118
g61
(dp119
g69
I5
ssg70
g113
sg63
(lp120
S'Music_Repo'
p121
asbasbasbag56
(g72
g58
NtRp122
(dp123
g61
(dp124
sg70
g66
sg63
(lp125
g56
(g77
g58
NtRp126
(dp127
g61
(dp128
g81
g82
ssg70
g122
sg63
(lp129
g41
asbag56
(g77
g58
NtRp130
(dp131
g61
(dp132
g88
g89
ssg70
g122
sg63
(lp133
S':'
asbag56
(g77
g58
NtRp134
(dp135
g61
(dp136
sg70
g122
sg63
(lp137
g56
(g57
g58
NtRp138
(dp139
g61
(dp140
g69
I5
ssg70
g134
sg63
(lp141
g56
(g65
g58
NtRp142
(dp143
g61
(dp144
g69
I4
ssg70
Nsg63
(lp145
sbasbasbasbag56
(g72
g58
NtRp146
(dp147
g61
(dp148
sg70
g66
sg63
(lp149
g56
(g77
g58
NtRp150
(dp151
g61
(dp152
g81
g82
ssg70
g146
sg63
(lp153
S'body'
p154
asbag56
(g77
g58
NtRp155
(dp156
g61
(dp157
g88
g89
ssg70
g146
sg63
(lp158
S':'
asbag56
(g77
g58
NtRp159
(dp160
g61
(dp161
sg70
g146
sg63
(lp162
g56
(g57
g58
NtRp163
(dp164
g61
(dp165
g69
I5
ssg70
g159
sg63
(lp166
S'<cStringIO.StringO object at 0xab339a0>'
p167
asbasbasbag56
(g72
g58
NtRp168
(dp169
g61
(dp170
sg70
g66
sg63
(lp171
g56
(g77
g58
NtRp172
(dp173
g61
(dp174
g81
g82
ssg70
g168
sg63
(lp175
S'client'
p176
asbag56
(g77
g58
NtRp177
(dp178
g61
(dp179
g88
g89
ssg70
g168
sg63
(lp180
S':'
asbag56
(g77
g58
NtRp181
(dp182
g61
(dp183
sg70
g168
sg63
(lp184
g56
(g57
g58
NtRp185
(dp186
g61
(dp187
g69
I5
ssg70
g181
sg63
(lp188
S'127.0.0.1'
p189
asbasbasbag56
(g72
g58
NtRp190
(dp191
g61
(dp192
sg70
g66
sg63
(lp193
g56
(g77
g58
NtRp194
(dp195
g61
(dp196
g81
g82
ssg70
g190
sg63
(lp197
S'controller'
p198
asbag56
(g77
g58
NtRp199
(dp200
g61
(dp201
g88
g89
ssg70
g190
sg63
(lp202
S':'
asbag56
(g77
g58
NtRp203
(dp204
g61
(dp205
sg70
g190
sg63
(lp206
g56
(g57
g58
NtRp207
(dp208
g61
(dp209
g69
I5
ssg70
g203
sg63
(lp210
S'default'
p211
asbasbasbag56
(g72
g58
NtRp212
(dp213
g61
(dp214
sg70
g66
sg63
(lp215
g56
(g77
g58
NtRp216
(dp217
g61
(dp218
g81
g82
ssg70
g212
sg63
(lp219
S'cookies'
p220
asbag56
(g77
g58
NtRp221
(dp222
g61
(dp223
g88
g89
ssg70
g212
sg63
(lp224
S':'
asbag56
(g77
g58
NtRp225
(dp226
g61
(dp227
sg70
g212
sg63
(lp228
g56
(g57
g58
NtRp229
(dp230
g61
(dp231
g69
I5
ssg70
g225
sg63
(lp232
g56
(g65
g58
NtRp233
(dp234
g61
(dp235
g69
I4
ssg70
Nsg63
(lp236
g56
(g72
g58
NtRp237
(dp238
g61
(dp239
sg70
g233
sg63
(lp240
g56
(g77
g58
NtRp241
(dp242
g61
(dp243
g81
g82
ssg70
g237
sg63
(lp244
S'session_id_admin'
p245
asbag56
(g77
g58
NtRp246
(dp247
g61
(dp248
g88
g89
ssg70
g237
sg63
(lp249
S':'
asbag56
(g77
g58
NtRp250
(dp251
g61
(dp252
sg70
g237
sg63
(lp253
g56
(g57
g58
NtRp254
(dp255
g61
(dp256
g69
I4
ssg70
g250
sg63
(lp257
g56
(g65
g58
NtRp258
(dp259
g61
(dp260
g69
I3
ssg70
Nsg63
(lp261
g56
(g72
g58
NtRp262
(dp263
g61
(dp264
sg70
g258
sg63
(lp265
g56
(g77
g58
NtRp266
(dp267
g61
(dp268
g81
g82
ssg70
g262
sg63
(lp269
S'comment'
p270
asbag56
(g77
g58
NtRp271
(dp272
g61
(dp273
g88
g89
ssg70
g262
sg63
(lp274
S':'
asbag56
(g77
g58
NtRp275
(dp276
g61
(dp277
sg70
g262
sg63
(lp278
g56
(g57
g58
NtRp279
(dp280
g61
(dp281
g69
I3
ssg70
g275
sg63
(lp282
S''
asbasbasbag56
(g72
g58
NtRp283
(dp284
g61
(dp285
sg70
g258
sg63
(lp286
g56
(g77
g58
NtRp287
(dp288
g61
(dp289
g81
g82
ssg70
g283
sg63
(lp290
S'domain'
p291
asbag56
(g77
g58
NtRp292
(dp293
g61
(dp294
g88
g89
ssg70
g283
sg63
(lp295
S':'
asbag56
(g77
g58
NtRp296
(dp297
g61
(dp298
sg70
g283
sg63
(lp299
g56
(g57
g58
NtRp300
(dp301
g61
(dp302
g69
I3
ssg70
g296
sg63
(lp303
S''
asbasbasbag56
(g72
g58
NtRp304
(dp305
g61
(dp306
sg70
g258
sg63
(lp307
g56
(g77
g58
NtRp308
(dp309
g61
(dp310
g81
g82
ssg70
g304
sg63
(lp311
S'expires'
p312
asbag56
(g77
g58
NtRp313
(dp314
g61
(dp315
g88
g89
ssg70
g304
sg63
(lp316
S':'
asbag56
(g77
g58
NtRp317
(dp318
g61
(dp319
sg70
g304
sg63
(lp320
g56
(g57
g58
NtRp321
(dp322
g61
(dp323
g69
I3
ssg70
g317
sg63
(lp324
S''
asbasbasbag56
(g72
g58
NtRp325
(dp326
g61
(dp327
sg70
g258
sg63
(lp328
g56
(g77
g58
NtRp329
(dp330
g61
(dp331
g81
g82
ssg70
g325
sg63
(lp332
S'httponly'
p333
asbag56
(g77
g58
NtRp334
(dp335
g61
(dp336
g88
g89
ssg70
g325
sg63
(lp337
S':'
asbag56
(g77
g58
NtRp338
(dp339
g61
(dp340
sg70
g325
sg63
(lp341
g56
(g57
g58
NtRp342
(dp343
g61
(dp344
g69
I3
ssg70
g338
sg63
(lp345
S''
asbasbasbag56
(g72
g58
NtRp346
(dp347
g61
(dp348
sg70
g258
sg63
(lp349
g56
(g77
g58
NtRp350
(dp351
g61
(dp352
g81
g82
ssg70
g346
sg63
(lp353
S'max-age'
p354
asbag56
(g77
g58
NtRp355
(dp356
g61
(dp357
g88
g89
ssg70
g346
sg63
(lp358
S':'
asbag56
(g77
g58
NtRp359
(dp360
g61
(dp361
sg70
g346
sg63
(lp362
g56
(g57
g58
NtRp363
(dp364
g61
(dp365
g69
I3
ssg70
g359
sg63
(lp366
S''
asbasbasbag56
(g72
g58
NtRp367
(dp368
g61
(dp369
sg70
g258
sg63
(lp370
g56
(g77
g58
NtRp371
(dp372
g61
(dp373
g81
g82
ssg70
g367
sg63
(lp374
S'path'
p375
asbag56
(g77
g58
NtRp376
(dp377
g61
(dp378
g88
g89
ssg70
g367
sg63
(lp379
S':'
asbag56
(g77
g58
NtRp380
(dp381
g61
(dp382
sg70
g367
sg63
(lp383
g56
(g57
g58
NtRp384
(dp385
g61
(dp386
g69
I3
ssg70
g380
sg63
(lp387
S''
asbasbasbag56
(g72
g58
NtRp388
(dp389
g61
(dp390
sg70
g258
sg63
(lp391
g56
(g77
g58
NtRp392
(dp393
g61
(dp394
g81
g82
ssg70
g388
sg63
(lp395
S'secure'
p396
asbag56
(g77
g58
NtRp397
(dp398
g61
(dp399
g88
g89
ssg70
g388
sg63
(lp400
S':'
asbag56
(g77
g58
NtRp401
(dp402
g61
(dp403
sg70
g388
sg63
(lp404
g56
(g57
g58
NtRp405
(dp406
g61
(dp407
g69
I3
ssg70
g401
sg63
(lp408
S''
asbasbasbag56
(g72
g58
NtRp409
(dp410
g61
(dp411
sg70
g258
sg63
(lp412
g56
(g77
g58
NtRp413
(dp414
g61
(dp415
g81
g82
ssg70
g409
sg63
(lp416
S'version'
p417
asbag56
(g77
g58
NtRp418
(dp419
g61
(dp420
g88
g89
ssg70
g409
sg63
(lp421
S':'
asbag56
(g77
g58
NtRp422
(dp423
g61
(dp424
sg70
g409
sg63
(lp425
g56
(g57
g58
NtRp426
(dp427
g61
(dp428
g69
I3
ssg70
g422
sg63
(lp429
S''
asbasbasbasbasbasbasbag56
(g72
g58
NtRp430
(dp431
g61
(dp432
sg70
g233
sg63
(lp433
g56
(g77
g58
NtRp434
(dp435
g61
(dp436
g81
g82
ssg70
g430
sg63
(lp437
S'session_id_music_repo'
p438
asbag56
(g77
g58
NtRp439
(dp440
g61
(dp441
g88
g89
ssg70
g430
sg63
(lp442
S':'
asbag56
(g77
g58
NtRp443
(dp444
g61
(dp445
sg70
g430
sg63
(lp446
g56
(g57
g58
NtRp447
(dp448
g61
(dp449
g69
I4
ssg70
g443
sg63
(lp450
g56
(g65
g58
NtRp451
(dp452
g61
(dp453
g69
I3
ssg70
Nsg63
(lp454
g56
(g72
g58
NtRp455
(dp456
g61
(dp457
sg70
g451
sg63
(lp458
g56
(g77
g58
NtRp459
(dp460
g61
(dp461
g81
g82
ssg70
g455
sg63
(lp462
g270
asbag56
(g77
g58
NtRp463
(dp464
g61
(dp465
g88
g89
ssg70
g455
sg63
(lp466
S':'
asbag56
(g77
g58
NtRp467
(dp468
g61
(dp469
sg70
g455
sg63
(lp470
g56
(g57
g58
NtRp471
(dp472
g61
(dp473
g69
I3
ssg70
g467
sg63
(lp474
S''
asbasbasbag56
(g72
g58
NtRp475
(dp476
g61
(dp477
sg70
g451
sg63
(lp478
g56
(g77
g58
NtRp479
(dp480
g61
(dp481
g81
g82
ssg70
g475
sg63
(lp482
g291
asbag56
(g77
g58
NtRp483
(dp484
g61
(dp485
g88
g89
ssg70
g475
sg63
(lp486
S':'
asbag56
(g77
g58
NtRp487
(dp488
g61
(dp489
sg70
g475
sg63
(lp490
g56
(g57
g58
NtRp491
(dp492
g61
(dp493
g69
I3
ssg70
g487
sg63
(lp494
S''
asbasbasbag56
(g72
g58
NtRp495
(dp496
g61
(dp497
sg70
g451
sg63
(lp498
g56
(g77
g58
NtRp499
(dp500
g61
(dp501
g81
g82
ssg70
g495
sg63
(lp502
g312
asbag56
(g77
g58
NtRp503
(dp504
g61
(dp505
g88
g89
ssg70
g495
sg63
(lp506
S':'
asbag56
(g77
g58
NtRp507
(dp508
g61
(dp509
sg70
g495
sg63
(lp510
g56
(g57
g58
NtRp511
(dp512
g61
(dp513
g69
I3
ssg70
g507
sg63
(lp514
S''
asbasbasbag56
(g72
g58
NtRp515
(dp516
g61
(dp517
sg70
g451
sg63
(lp518
g56
(g77
g58
NtRp519
(dp520
g61
(dp521
g81
g82
ssg70
g515
sg63
(lp522
g333
asbag56
(g77
g58
NtRp523
(dp524
g61
(dp525
g88
g89
ssg70
g515
sg63
(lp526
S':'
asbag56
(g77
g58
NtRp527
(dp528
g61
(dp529
sg70
g515
sg63
(lp530
g56
(g57
g58
NtRp531
(dp532
g61
(dp533
g69
I3
ssg70
g527
sg63
(lp534
S''
asbasbasbag56
(g72
g58
NtRp535
(dp536
g61
(dp537
sg70
g451
sg63
(lp538
g56
(g77
g58
NtRp539
(dp540
g61
(dp541
g81
g82
ssg70
g535
sg63
(lp542
g354
asbag56
(g77
g58
NtRp543
(dp544
g61
(dp545
g88
g89
ssg70
g535
sg63
(lp546
S':'
asbag56
(g77
g58
NtRp547
(dp548
g61
(dp549
sg70
g535
sg63
(lp550
g56
(g57
g58
NtRp551
(dp552
g61
(dp553
g69
I3
ssg70
g547
sg63
(lp554
S''
asbasbasbag56
(g72
g58
NtRp555
(dp556
g61
(dp557
sg70
g451
sg63
(lp558
g56
(g77
g58
NtRp559
(dp560
g61
(dp561
g81
g82
ssg70
g555
sg63
(lp562
g375
asbag56
(g77
g58
NtRp563
(dp564
g61
(dp565
g88
g89
ssg70
g555
sg63
(lp566
S':'
asbag56
(g77
g58
NtRp567
(dp568
g61
(dp569
sg70
g555
sg63
(lp570
g56
(g57
g58
NtRp571
(dp572
g61
(dp573
g69
I3
ssg70
g567
sg63
(lp574
S''
asbasbasbag56
(g72
g58
NtRp575
(dp576
g61
(dp577
sg70
g451
sg63
(lp578
g56
(g77
g58
NtRp579
(dp580
g61
(dp581
g81
g82
ssg70
g575
sg63
(lp582
g396
asbag56
(g77
g58
NtRp583
(dp584
g61
(dp585
g88
g89
ssg70
g575
sg63
(lp586
S':'
asbag56
(g77
g58
NtRp587
(dp588
g61
(dp589
sg70
g575
sg63
(lp590
g56
(g57
g58
NtRp591
(dp592
g61
(dp593
g69
I3
ssg70
g587
sg63
(lp594
S''
asbasbasbag56
(g72
g58
NtRp595
(dp596
g61
(dp597
sg70
g451
sg63
(lp598
g56
(g77
g58
NtRp599
(dp600
g61
(dp601
g81
g82
ssg70
g595
sg63
(lp602
g417
asbag56
(g77
g58
NtRp603
(dp604
g61
(dp605
g88
g89
ssg70
g595
sg63
(lp606
S':'
asbag56
(g77
g58
NtRp607
(dp608
g61
(dp609
sg70
g595
sg63
(lp610
g56
(g57
g58
NtRp611
(dp612
g61
(dp613
g69
I3
ssg70
g607
sg63
(lp614
S''
asbasbasbasbasbasbasbag56
(g72
g58
NtRp615
(dp616
g61
(dp617
sg70
g233
sg63
(lp618
g56
(g77
g58
NtRp619
(dp620
g61
(dp621
g81
g82
ssg70
g615
sg63
(lp622
S'session_id_welcome'
p623
asbag56
(g77
g58
NtRp624
(dp625
g61
(dp626
g88
g89
ssg70
g615
sg63
(lp627
S':'
asbag56
(g77
g58
NtRp628
(dp629
g61
(dp630
sg70
g615
sg63
(lp631
g56
(g57
g58
NtRp632
(dp633
g61
(dp634
g69
I4
ssg70
g628
sg63
(lp635
g56
(g65
g58
NtRp636
(dp637
g61
(dp638
g69
I3
ssg70
Nsg63
(lp639
g56
(g72
g58
NtRp640
(dp641
g61
(dp642
sg70
g636
sg63
(lp643
g56
(g77
g58
NtRp644
(dp645
g61
(dp646
g81
g82
ssg70
g640
sg63
(lp647
g270
asbag56
(g77
g58
NtRp648
(dp649
g61
(dp650
g88
g89
ssg70
g640
sg63
(lp651
S':'
asbag56
(g77
g58
NtRp652
(dp653
g61
(dp654
sg70
g640
sg63
(lp655
g56
(g57
g58
NtRp656
(dp657
g61
(dp658
g69
I3
ssg70
g652
sg63
(lp659
S''
asbasbasbag56
(g72
g58
NtRp660
(dp661
g61
(dp662
sg70
g636
sg63
(lp663
g56
(g77
g58
NtRp664
(dp665
g61
(dp666
g81
g82
ssg70
g660
sg63
(lp667
g291
asbag56
(g77
g58
NtRp668
(dp669
g61
(dp670
g88
g89
ssg70
g660
sg63
(lp671
S':'
asbag56
(g77
g58
NtRp672
(dp673
g61
(dp674
sg70
g660
sg63
(lp675
g56
(g57
g58
NtRp676
(dp677
g61
(dp678
g69
I3
ssg70
g672
sg63
(lp679
S''
asbasbasbag56
(g72
g58
NtRp680
(dp681
g61
(dp682
sg70
g636
sg63
(lp683
g56
(g77
g58
NtRp684
(dp685
g61
(dp686
g81
g82
ssg70
g680
sg63
(lp687
g312
asbag56
(g77
g58
NtRp688
(dp689
g61
(dp690
g88
g89
ssg70
g680
sg63
(lp691
S':'
asbag56
(g77
g58
NtRp692
(dp693
g61
(dp694
sg70
g680
sg63
(lp695
g56
(g57
g58
NtRp696
(dp697
g61
(dp698
g69
I3
ssg70
g692
sg63
(lp699
S''
asbasbasbag56
(g72
g58
NtRp700
(dp701
g61
(dp702
sg70
g636
sg63
(lp703
g56
(g77
g58
NtRp704
(dp705
g61
(dp706
g81
g82
ssg70
g700
sg63
(lp707
g333
asbag56
(g77
g58
NtRp708
(dp709
g61
(dp710
g88
g89
ssg70
g700
sg63
(lp711
S':'
asbag56
(g77
g58
NtRp712
(dp713
g61
(dp714
sg70
g700
sg63
(lp715
g56
(g57
g58
NtRp716
(dp717
g61
(dp718
g69
I3
ssg70
g712
sg63
(lp719
S''
asbasbasbag56
(g72
g58
NtRp720
(dp721
g61
(dp722
sg70
g636
sg63
(lp723
g56
(g77
g58
NtRp724
(dp725
g61
(dp726
g81
g82
ssg70
g720
sg63
(lp727
g354
asbag56
(g77
g58
NtRp728
(dp729
g61
(dp730
g88
g89
ssg70
g720
sg63
(lp731
S':'
asbag56
(g77
g58
NtRp732
(dp733
g61
(dp734
sg70
g720
sg63
(lp735
g56
(g57
g58
NtRp736
(dp737
g61
(dp738
g69
I3
ssg70
g732
sg63
(lp739
S''
asbasbasbag56
(g72
g58
NtRp740
(dp741
g61
(dp742
sg70
g636
sg63
(lp743
g56
(g77
g58
NtRp744
(dp745
g61
(dp746
g81
g82
ssg70
g740
sg63
(lp747
g375
asbag56
(g77
g58
NtRp748
(dp749
g61
(dp750
g88
g89
ssg70
g740
sg63
(lp751
S':'
asbag56
(g77
g58
NtRp752
(dp753
g61
(dp754
sg70
g740
sg63
(lp755
g56
(g57
g58
NtRp756
(dp757
g61
(dp758
g69
I3
ssg70
g752
sg63
(lp759
S''
asbasbasbag56
(g72
g58
NtRp760
(dp761
g61
(dp762
sg70
g636
sg63
(lp763
g56
(g77
g58
NtRp764
(dp765
g61
(dp766
g81
g82
ssg70
g760
sg63
(lp767
g396
asbag56
(g77
g58
NtRp768
(dp769
g61
(dp770
g88
g89
ssg70
g760
sg63
(lp771
S':'
asbag56
(g77
g58
NtRp772
(dp773
g61
(dp774
sg70
g760
sg63
(lp775
g56
(g57
g58
NtRp776
(dp777
g61
(dp778
g69
I3
ssg70
g772
sg63
(lp779
S''
asbasbasbag56
(g72
g58
NtRp780
(dp781
g61
(dp782
sg70
g636
sg63
(lp783
g56
(g77
g58
NtRp784
(dp785
g61
(dp786
g81
g82
ssg70
g780
sg63
(lp787
g417
asbag56
(g77
g58
NtRp788
(dp789
g61
(dp790
g88
g89
ssg70
g780
sg63
(lp791
S':'
asbag56
(g77
g58
NtRp792
(dp793
g61
(dp794
sg70
g780
sg63
(lp795
g56
(g57
g58
NtRp796
(dp797
g61
(dp798
g69
I3
ssg70
g792
sg63
(lp799
S''
asbasbasbasbasbasbasbasbasbasbasbag56
(g72
g58
NtRp800
(dp801
g61
(dp802
sg70
g66
sg63
(lp803
g56
(g77
g58
NtRp804
(dp805
g61
(dp806
g81
g82
ssg70
g800
sg63
(lp807
S'env'
p808
asbag56
(g77
g58
NtRp809
(dp810
g61
(dp811
g88
g89
ssg70
g800
sg63
(lp812
S':'
asbag56
(g77
g58
NtRp813
(dp814
g61
(dp815
sg70
g800
sg63
(lp816
g56
(g57
g58
NtRp817
(dp818
g61
(dp819
g69
I5
ssg70
g813
sg63
(lp820
g56
(g65
g58
NtRp821
(dp822
g61
(dp823
g69
I4
ssg70
Nsg63
(lp824
g56
(g72
g58
NtRp825
(dp826
g61
(dp827
sg70
g821
sg63
(lp828
g56
(g77
g58
NtRp829
(dp830
g61
(dp831
g81
g82
ssg70
g825
sg63
(lp832
S'app_folders'
p833
asbag56
(g77
g58
NtRp834
(dp835
g61
(dp836
g88
g89
ssg70
g825
sg63
(lp837
S':'
asbag56
(g77
g58
NtRp838
(dp839
g61
(dp840
sg70
g825
sg63
(lp841
g56
(g57
g58
NtRp842
(dp843
g61
(dp844
g69
I4
ssg70
g838
sg63
(lp845
S"set(['/home/vsvah/Desktop/Coursework/Sem3/SSAD/web2py/applications/Music_Repo/', '/home/vsvah/Desktop/Coursework/Sem3/SSAD/web2py/applications/admin/', '/home/vsvah/Desktop/Coursework/Sem3/SSAD/web2py/applications/welcome/'])"
p846
asbasbasbag56
(g72
g58
NtRp847
(dp848
g61
(dp849
sg70
g821
sg63
(lp850
g56
(g77
g58
NtRp851
(dp852
g61
(dp853
g81
g82
ssg70
g847
sg63
(lp854
S'applications_parent'
p855
asbag56
(g77
g58
NtRp856
(dp857
g61
(dp858
g88
g89
ssg70
g847
sg63
(lp859
S':'
asbag56
(g77
g58
NtRp860
(dp861
g61
(dp862
sg70
g847
sg63
(lp863
g56
(g57
g58
NtRp864
(dp865
g61
(dp866
g69
I4
ssg70
g860
sg63
(lp867
S'/home/vsvah/Desktop/Coursework/Sem3/SSAD/web2py'
p868
asbasbasbag56
(g72
g58
NtRp869
(dp870
g61
(dp871
sg70
g821
sg63
(lp872
g56
(g77
g58
NtRp873
(dp874
g61
(dp875
g81
g82
ssg70
g869
sg63
(lp876
S'cmd_args'
p877
asbag56
(g77
g58
NtRp878
(dp879
g61
(dp880
g88
g89
ssg70
g869
sg63
(lp881
S':'
asbag56
(g77
g58
NtRp882
(dp883
g61
(dp884
sg70
g869
sg63
(lp885
g56
(g57
g58
NtRp886
(dp887
g61
(dp888
g69
I4
ssg70
g882
sg63
(lp889
g56
(g65
g58
NtRp890
(dp891
g61
(dp892
g69
I3
ssg70
Nsg63
(lp893
sbasbasbasbag56
(g72
g58
NtRp894
(dp895
g61
(dp896
sg70
g821
sg63
(lp897
g56
(g77
g58
NtRp898
(dp899
g61
(dp900
g81
g82
ssg70
g894
sg63
(lp901
S'cmd_options'
p902
asbag56
(g77
g58
NtRp903
(dp904
g61
(dp905
g88
g89
ssg70
g894
sg63
(lp906
S':'
asbag56
(g77
g58
NtRp907
(dp908
g61
(dp909
sg70
g894
sg63
(lp910
g56
(g57
g58
NtRp911
(dp912
g61
(dp913
g69
I4
ssg70
g907
sg63
(lp914
S"<Values at 0xa17704c: {'verbose': False, 'ip': '127.0.0.1', 'shutdown_timeout': 5, 'taskbar': False, 'port': 8000, 'maxthreads': None, 'softcron': False, 'server_name': 'vsvah-laptop', 'bpython': False, 'nogui': False, 'nocron': False, 'extcron': False, 'debuglevel': 30, 'test': None, 'folder': '/home/vsvah/Desktop/Coursework/Sem3/SSAD/web2py', 'config': '', 'import_models': False, 'winservice': '', 'shell': None, 'run': '', 'log_filename': 'httpserver.log', 'args': [''], 'profiler_filename': None, 'ssl_private_key': '', 'password': '<ask>', 'request_queue_size': 5, 'ssl_certificate': '', 'cronjob': False, 'plain': False, 'quiet': False, 'interfaces': None, 'minthreads': None, 'timeout': 10, 'numthreads': None, 'nobanner': False, 'pid_filename': 'httpserver.pid'}>"
p915
asbasbasbag56
(g72
g58
NtRp916
(dp917
g61
(dp918
sg70
g821
sg63
(lp919
g56
(g77
g58
NtRp920
(dp921
g61
(dp922
g81
g82
ssg70
g916
sg63
(lp923
S'db_sessions'
p924
asbag56
(g77
g58
NtRp925
(dp926
g61
(dp927
g88
g89
ssg70
g916
sg63
(lp928
S':'
asbag56
(g77
g58
NtRp929
(dp930
g61
(dp931
sg70
g916
sg63
(lp932
g56
(g57
g58
NtRp933
(dp934
g61
(dp935
g69
I4
ssg70
g929
sg63
(lp936
S'set([])'
p937
asbasbasbag56
(g72
g58
NtRp938
(dp939
g61
(dp940
sg70
g821
sg63
(lp941
g56
(g77
g58
NtRp942
(dp943
g61
(dp944
g81
g82
ssg70
g938
sg63
(lp945
S'debugging'
p946
asbag56
(g77
g58
NtRp947
(dp948
g61
(dp949
g88
g89
ssg70
g938
sg63
(lp950
S':'
asbag56
(g77
g58
NtRp951
(dp952
g61
(dp953
sg70
g938
sg63
(lp954
g56
(g57
g58
NtRp955
(dp956
g61
(dp957
g69
I4
ssg70
g951
sg63
(lp958
g99
asbasbasbag56
(g72
g58
NtRp959
(dp960
g61
(dp961
sg70
g821
sg63
(lp962
g56
(g77
g58
NtRp963
(dp964
g61
(dp965
g81
g82
ssg70
g959
sg63
(lp966
S'gluon_parent'
p967
asbag56
(g77
g58
NtRp968
(dp969
g61
(dp970
g88
g89
ssg70
g959
sg63
(lp971
S':'
asbag56
(g77
g58
NtRp972
(dp973
g61
(dp974
sg70
g959
sg63
(lp975
g56
(g57
g58
NtRp976
(dp977
g61
(dp978
g69
I4
ssg70
g972
sg63
(lp979
S'/home/vsvah/Desktop/Coursework/Sem3/SSAD/web2py'
p980
asbasbasbag56
(g72
g58
NtRp981
(dp982
g61
(dp983
sg70
g821
sg63
(lp984
g56
(g77
g58
NtRp985
(dp986
g61
(dp987
g81
g82
ssg70
g981
sg63
(lp988
S'http_accept'
p989
asbag56
(g77
g58
NtRp990
(dp991
g61
(dp992
g88
g89
ssg70
g981
sg63
(lp993
S':'
asbag56
(g77
g58
NtRp994
(dp995
g61
(dp996
sg70
g981
sg63
(lp997
g56
(g57
g58
NtRp998
(dp999
g61
(dp1000
g69
I4
ssg70
g994
sg63
(lp1001
S'text/html,application/xhtml+xml,application/xml;q=0.9,*/*;q=0.8'
p1002
asbasbasbag56
(g72
g58
NtRp1003
(dp1004
g61
(dp1005
sg70
g821
sg63
(lp1006
g56
(g77
g58
NtRp1007
(dp1008
g61
(dp1009
g81
g82
ssg70
g1003
sg63
(lp1010
S'http_accept_charset'
p1011
asbag56
(g77
g58
NtRp1012
(dp1013
g61
(dp1014
g88
g89
ssg70
g1003
sg63
(lp1015
S':'
asbag56
(g77
g58
NtRp1016
(dp1017
g61
(dp1018
sg70
g1003
sg63
(lp1019
g56
(g57
g58
NtRp1020
(dp1021
g61
(dp1022
g69
I4
ssg70
g1016
sg63
(lp1023
S'ISO-8859-1,utf-8;q=0.7,*;q=0.7'
p1024
asbasbasbag56
(g72
g58
NtRp1025
(dp1026
g61
(dp1027
sg70
g821
sg63
(lp1028
g56
(g77
g58
NtRp1029
(dp1030
g61
(dp1031
g81
g82
ssg70
g1025
sg63
(lp1032
S'http_accept_encoding'
p1033
asbag56
(g77
g58
NtRp1034
(dp1035
g61
(dp1036
g88
g89
ssg70
g1025
sg63
(lp1037
S':'
asbag56
(g77
g58
NtRp1038
(dp1039
g61
(dp1040
sg70
g1025
sg63
(lp1041
g56
(g57
g58
NtRp1042
(dp1043
g61
(dp1044
g69
I4
ssg70
g1038
sg63
(lp1045
S'gzip,deflate'
p1046
asbasbasbag56
(g72
g58
NtRp1047
(dp1048
g61
(dp1049
sg70
g821
sg63
(lp1050
g56
(g77
g58
NtRp1051
(dp1052
g61
(dp1053
g81
g82
ssg70
g1047
sg63
(lp1054
S'http_accept_language'
p1055
asbag56
(g77
g58
NtRp1056
(dp1057
g61
(dp1058
g88
g89
ssg70
g1047
sg63
(lp1059
S':'
asbag56
(g77
g58
NtRp1060
(dp1061
g61
(dp1062
sg70
g1047
sg63
(lp1063
g56
(g57
g58
NtRp1064
(dp1065
g61
(dp1066
g69
I4
ssg70
g1060
sg63
(lp1067
S'en-us,en;q=0.5'
p1068
asbasbasbag56
(g72
g58
NtRp1069
(dp1070
g61
(dp1071
sg70
g821
sg63
(lp1072
g56
(g77
g58
NtRp1073
(dp1074
g61
(dp1075
g81
g82
ssg70
g1069
sg63
(lp1076
S'http_connection'
p1077
asbag56
(g77
g58
NtRp1078
(dp1079
g61
(dp1080
g88
g89
ssg70
g1069
sg63
(lp1081
S':'
asbag56
(g77
g58
NtRp1082
(dp1083
g61
(dp1084
sg70
g1069
sg63
(lp1085
g56
(g57
g58
NtRp1086
(dp1087
g61
(dp1088
g69
I4
ssg70
g1082
sg63
(lp1089
S'keep-alive'
p1090
asbasbasbag56
(g72
g58
NtRp1091
(dp1092
g61
(dp1093
sg70
g821
sg63
(lp1094
g56
(g77
g58
NtRp1095
(dp1096
g61
(dp1097
g81
g82
ssg70
g1091
sg63
(lp1098
S'http_cookie'
p1099
asbag56
(g77
g58
NtRp1100
(dp1101
g61
(dp1102
g88
g89
ssg70
g1091
sg63
(lp1103
S':'
asbag56
(g77
g58
NtRp1104
(dp1105
g61
(dp1106
sg70
g1091
sg63
(lp1107
g56
(g57
g58
NtRp1108
(dp1109
g61
(dp1110
g69
I4
ssg70
g1104
sg63
(lp1111
S'session_id_welcome=127.0.0.1-4768e59f-be37-4bf8-bfff-bc793ba4c0eb; session_id_admin=127.0.0.1-e201a2ca-01a5-46de-bfba-f3c3291e2f67; session_id_music_repo=127.0.0.1-0cc5ad7f-61ca-479a-933d-b13352216d24'
p1112
asbasbasbag56
(g72
g58
NtRp1113
(dp1114
g61
(dp1115
sg70
g821
sg63
(lp1116
g56
(g77
g58
NtRp1117
(dp1118
g61
(dp1119
g81
g82
ssg70
g1113
sg63
(lp1120
S'http_host'
p1121
asbag56
(g77
g58
NtRp1122
(dp1123
g61
(dp1124
g88
g89
ssg70
g1113
sg63
(lp1125
S':'
asbag56
(g77
g58
NtRp1126
(dp1127
g61
(dp1128
sg70
g1113
sg63
(lp1129
g56
(g57
g58
NtRp1130
(dp1131
g61
(dp1132
g69
I4
ssg70
g1126
sg63
(lp1133
S'127.0.0.1:8000'
p1134
asbasbasbag56
(g72
g58
NtRp1135
(dp1136
g61
(dp1137
sg70
g821
sg63
(lp1138
g56
(g77
g58
NtRp1139
(dp1140
g61
(dp1141
g81
g82
ssg70
g1135
sg63
(lp1142
S'http_keep_alive'
p1143
asbag56
(g77
g58
NtRp1144
(dp1145
g61
(dp1146
g88
g89
ssg70
g1135
sg63
(lp1147
S':'
asbag56
(g77
g58
NtRp1148
(dp1149
g61
(dp1150
sg70
g1135
sg63
(lp1151
g56
(g57
g58
NtRp1152
(dp1153
g61
(dp1154
g69
I4
ssg70
g1148
sg63
(lp1155
S'115'
p1156
asbasbasbag56
(g72
g58
NtRp1157
(dp1158
g61
(dp1159
sg70
g821
sg63
(lp1160
g56
(g77
g58
NtRp1161
(dp1162
g61
(dp1163
g81
g82
ssg70
g1157
sg63
(lp1164
S'http_referer'
p1165
asbag56
(g77
g58
NtRp1166
(dp1167
g61
(dp1168
g88
g89
ssg70
g1157
sg63
(lp1169
S':'
asbag56
(g77
g58
NtRp1170
(dp1171
g61
(dp1172
sg70
g1157
sg63
(lp1173
g56
(g57
g58
NtRp1174
(dp1175
g61
(dp1176
g69
I4
ssg70
g1170
sg63
(lp1177
S'http://127.0.0.1:8000/Music_Repo/default/display_link'
p1178
asbasbasbag56
(g72
g58
NtRp1179
(dp1180
g61
(dp1181
sg70
g821
sg63
(lp1182
g56
(g77
g58
NtRp1183
(dp1184
g61
(dp1185
g81
g82
ssg70
g1179
sg63
(lp1186
S'http_user_agent'
p1187
asbag56
(g77
g58
NtRp1188
(dp1189
g61
(dp1190
g88
g89
ssg70
g1179
sg63
(lp1191
S':'
asbag56
(g77
g58
NtRp1192
(dp1193
g61
(dp1194
sg70
g1179
sg63
(lp1195
g56
(g57
g58
NtRp1196
(dp1197
g61
(dp1198
g69
I4
ssg70
g1192
sg63
(lp1199
S'Mozilla/5.0 (X11; U; Linux i686; en-US; rv:1.9.2.16) Gecko/20110323 Ubuntu/10.04 (lucid) Firefox/3.6.16'
p1200
asbasbasbag56
(g72
g58
NtRp1201
(dp1202
g61
(dp1203
sg70
g821
sg63
(lp1204
g56
(g77
g58
NtRp1205
(dp1206
g61
(dp1207
g81
g82
ssg70
g1201
sg63
(lp1208
S'is_jython'
p1209
asbag56
(g77
g58
NtRp1210
(dp1211
g61
(dp1212
g88
g89
ssg70
g1201
sg63
(lp1213
S':'
asbag56
(g77
g58
NtRp1214
(dp1215
g61
(dp1216
sg70
g1201
sg63
(lp1217
g56
(g57
g58
NtRp1218
(dp1219
g61
(dp1220
g69
I4
ssg70
g1214
sg63
(lp1221
g99
asbasbasbag56
(g72
g58
NtRp1222
(dp1223
g61
(dp1224
sg70
g821
sg63
(lp1225
g56
(g77
g58
NtRp1226
(dp1227
g61
(dp1228
g81
g82
ssg70
g1222
sg63
(lp1229
S'path_info'
p1230
asbag56
(g77
g58
NtRp1231
(dp1232
g61
(dp1233
g88
g89
ssg70
g1222
sg63
(lp1234
S':'
asbag56
(g77
g58
NtRp1235
(dp1236
g61
(dp1237
sg70
g1222
sg63
(lp1238
g56
(g57
g58
NtRp1239
(dp1240
g61
(dp1241
g69
I4
ssg70
g1235
sg63
(lp1242
S'/Music_Repo/default/display_details'
p1243
asbasbasbag56
(g72
g58
NtRp1244
(dp1245
g61
(dp1246
sg70
g821
sg63
(lp1247
g56
(g77
g58
NtRp1248
(dp1249
g61
(dp1250
g81
g82
ssg70
g1244
sg63
(lp1251
S'query_string'
p1252
asbag56
(g77
g58
NtRp1253
(dp1254
g61
(dp1255
g88
g89
ssg70
g1244
sg63
(lp1256
S':'
asbag56
(g77
g58
NtRp1257
(dp1258
g61
(dp1259
sg70
g1244
sg63
(lp1260
g56
(g57
g58
NtRp1261
(dp1262
g61
(dp1263
g69
I4
ssg70
g1257
sg63
(lp1264
S'id=i.song.idno'
p1265
asbasbasbag56
(g72
g58
NtRp1266
(dp1267
g61
(dp1268
sg70
g821
sg63
(lp1269
g56
(g77
g58
NtRp1270
(dp1271
g61
(dp1272
g81
g82
ssg70
g1266
sg63
(lp1273
S'remote_addr'
p1274
asbag56
(g77
g58
NtRp1275
(dp1276
g61
(dp1277
g88
g89
ssg70
g1266
sg63
(lp1278
S':'
asbag56
(g77
g58
NtRp1279
(dp1280
g61
(dp1281
sg70
g1266
sg63
(lp1282
g56
(g57
g58
NtRp1283
(dp1284
g61
(dp1285
g69
I4
ssg70
g1279
sg63
(lp1286
g189
asbasbasbag56
(g72
g58
NtRp1287
(dp1288
g61
(dp1289
sg70
g821
sg63
(lp1290
g56
(g77
g58
NtRp1291
(dp1292
g61
(dp1293
g81
g82
ssg70
g1287
sg63
(lp1294
S'remote_port'
p1295
asbag56
(g77
g58
NtRp1296
(dp1297
g61
(dp1298
g88
g89
ssg70
g1287
sg63
(lp1299
S':'
asbag56
(g77
g58
NtRp1300
(dp1301
g61
(dp1302
sg70
g1287
sg63
(lp1303
g56
(g57
g58
NtRp1304
(dp1305
g61
(dp1306
g69
I4
ssg70
g1300
sg63
(lp1307
S'55834'
p1308
asbasbasbag56
(g72
g58
NtRp1309
(dp1310
g61
(dp1311
sg70
g821
sg63
(lp1312
g56
(g77
g58
NtRp1313
(dp1314
g61
(dp1315
g81
g82
ssg70
g1309
sg63
(lp1316
S'request_method'
p1317
asbag56
(g77
g58
NtRp1318
(dp1319
g61
(dp1320
g88
g89
ssg70
g1309
sg63
(lp1321
S':'
asbag56
(g77
g58
NtRp1322
(dp1323
g61
(dp1324
sg70
g1309
sg63
(lp1325
g56
(g57
g58
NtRp1326
(dp1327
g61
(dp1328
g69
I4
ssg70
g1322
sg63
(lp1329
S'GET'
p1330
asbasbasbag56
(g72
g58
NtRp1331
(dp1332
g61
(dp1333
sg70
g821
sg63
(lp1334
g56
(g77
g58
NtRp1335
(dp1336
g61
(dp1337
g81
g82
ssg70
g1331
sg63
(lp1338
S'script_name'
p1339
asbag56
(g77
g58
NtRp1340
(dp1341
g61
(dp1342
g88
g89
ssg70
g1331
sg63
(lp1343
S':'
asbag56
(g77
g58
NtRp1344
(dp1345
g61
(dp1346
sg70
g1331
sg63
(lp1347
g56
(g57
g58
NtRp1348
(dp1349
g61
(dp1350
g69
I4
ssg70
g1344
sg63
(lp1351
S''
asbasbasbag56
(g72
g58
NtRp1352
(dp1353
g61
(dp1354
sg70
g821
sg63
(lp1355
g56
(g77
g58
NtRp1356
(dp1357
g61
(dp1358
g81
g82
ssg70
g1352
sg63
(lp1359
S'server_name'
p1360
asbag56
(g77
g58
NtRp1361
(dp1362
g61
(dp1363
g88
g89
ssg70
g1352
sg63
(lp1364
S':'
asbag56
(g77
g58
NtRp1365
(dp1366
g61
(dp1367
sg70
g1352
sg63
(lp1368
g56
(g57
g58
NtRp1369
(dp1370
g61
(dp1371
g69
I4
ssg70
g1365
sg63
(lp1372
S'vsvah-laptop'
p1373
asbasbasbag56
(g72
g58
NtRp1374
(dp1375
g61
(dp1376
sg70
g821
sg63
(lp1377
g56
(g77
g58
NtRp1378
(dp1379
g61
(dp1380
g81
g82
ssg70
g1374
sg63
(lp1381
S'server_port'
p1382
asbag56
(g77
g58
NtRp1383
(dp1384
g61
(dp1385
g88
g89
ssg70
g1374
sg63
(lp1386
S':'
asbag56
(g77
g58
NtRp1387
(dp1388
g61
(dp1389
sg70
g1374
sg63
(lp1390
g56
(g57
g58
NtRp1391
(dp1392
g61
(dp1393
g69
I4
ssg70
g1387
sg63
(lp1394
S'8000'
p1395
asbasbasbag56
(g72
g58
NtRp1396
(dp1397
g61
(dp1398
sg70
g821
sg63
(lp1399
g56
(g77
g58
NtRp1400
(dp1401
g61
(dp1402
g81
g82
ssg70
g1396
sg63
(lp1403
S'server_protocol'
p1404
asbag56
(g77
g58
NtRp1405
(dp1406
g61
(dp1407
g88
g89
ssg70
g1396
sg63
(lp1408
S':'
asbag56
(g77
g58
NtRp1409
(dp1410
g61
(dp1411
sg70
g1396
sg63
(lp1412
g56
(g57
g58
NtRp1413
(dp1414
g61
(dp1415
g69
I4
ssg70
g1409
sg63
(lp1416
S'HTTP/1.1'
p1417
asbasbasbag56
(g72
g58
NtRp1418
(dp1419
g61
(dp1420
sg70
g821
sg63
(lp1421
g56
(g77
g58
NtRp1422
(dp1423
g61
(dp1424
g81
g82
ssg70
g1418
sg63
(lp1425
S'server_software'
p1426
asbag56
(g77
g58
NtRp1427
(dp1428
g61
(dp1429
g88
g89
ssg70
g1418
sg63
(lp1430
S':'
asbag56
(g77
g58
NtRp1431
(dp1432
g61
(dp1433
sg70
g1418
sg63
(lp1434
g56
(g57
g58
NtRp1435
(dp1436
g61
(dp1437
g69
I4
ssg70
g1431
sg63
(lp1438
S'Rocket 1.2.2'
p1439
asbasbasbag56
(g72
g58
NtRp1440
(dp1441
g61
(dp1442
sg70
g821
sg63
(lp1443
g56
(g77
g58
NtRp1444
(dp1445
g61
(dp1446
g81
g82
ssg70
g1440
sg63
(lp1447
S'web2py_crontype'
p1448
asbag56
(g77
g58
NtRp1449
(dp1450
g61
(dp1451
g88
g89
ssg70
g1440
sg63
(lp1452
S':'
asbag56
(g77
g58
NtRp1453
(dp1454
g61
(dp1455
sg70
g1440
sg63
(lp1456
g56
(g57
g58
NtRp1457
(dp1458
g61
(dp1459
g69
I4
ssg70
g1453
sg63
(lp1460
S'hard'
p1461
asbasbasbag56
(g72
g58
NtRp1462
(dp1463
g61
(dp1464
sg70
g821
sg63
(lp1465
g56
(g77
g58
NtRp1466
(dp1467
g61
(dp1468
g81
g82
ssg70
g1462
sg63
(lp1469
S'web2py_path'
p1470
asbag56
(g77
g58
NtRp1471
(dp1472
g61
(dp1473
g88
g89
ssg70
g1462
sg63
(lp1474
S':'
asbag56
(g77
g58
NtRp1475
(dp1476
g61
(dp1477
sg70
g1462
sg63
(lp1478
g56
(g57
g58
NtRp1479
(dp1480
g61
(dp1481
g69
I4
ssg70
g1475
sg63
(lp1482
g868
asbasbasbag56
(g72
g58
NtRp1483
(dp1484
g61
(dp1485
sg70
g821
sg63
(lp1486
g56
(g77
g58
NtRp1487
(dp1488
g61
(dp1489
g81
g82
ssg70
g1483
sg63
(lp1490
S'web2py_version'
p1491
asbag56
(g77
g58
NtRp1492
(dp1493
g61
(dp1494
g88
g89
ssg70
g1483
sg63
(lp1495
S':'
asbag56
(g77
g58
NtRp1496
(dp1497
g61
(dp1498
sg70
g1483
sg63
(lp1499
g56
(g57
g58
NtRp1500
(dp1501
g61
(dp1502
g69
I4
ssg70
g1496
sg63
(lp1503
S'Version 1.98.2 (2011-08-04 00:47:09)\n'
p1504
asbasbasbag56
(g72
g58
NtRp1505
(dp1506
g61
(dp1507
sg70
g821
sg63
(lp1508
g56
(g77
g58
NtRp1509
(dp1510
g61
(dp1511
g81
g82
ssg70
g1505
sg63
(lp1512
S'wsgi_errors'
p1513
asbag56
(g77
g58
NtRp1514
(dp1515
g61
(dp1516
g88
g89
ssg70
g1505
sg63
(lp1517
S':'
asbag56
(g77
g58
NtRp1518
(dp1519
g61
(dp1520
sg70
g1505
sg63
(lp1521
g56
(g57
g58
NtRp1522
(dp1523
g61
(dp1524
g69
I4
ssg70
g1518
sg63
(lp1525
S"<open file '<stderr>', mode 'w' at 0xb78110d0>"
p1526
asbasbasbag56
(g72
g58
NtRp1527
(dp1528
g61
(dp1529
sg70
g821
sg63
(lp1530
g56
(g77
g58
NtRp1531
(dp1532
g61
(dp1533
g81
g82
ssg70
g1527
sg63
(lp1534
S'wsgi_file_wrapper'
p1535
asbag56
(g77
g58
NtRp1536
(dp1537
g61
(dp1538
g88
g89
ssg70
g1527
sg63
(lp1539
S':'
asbag56
(g77
g58
NtRp1540
(dp1541
g61
(dp1542
sg70
g1527
sg63
(lp1543
g56
(g57
g58
NtRp1544
(dp1545
g61
(dp1546
g69
I4
ssg70
g1540
sg63
(lp1547
S'<class gluon.rocket.FileWrapper at 0xa07f08c>'
p1548
asbasbasbag56
(g72
g58
NtRp1549
(dp1550
g61
(dp1551
sg70
g821
sg63
(lp1552
g56
(g77
g58
NtRp1553
(dp1554
g61
(dp1555
g81
g82
ssg70
g1549
sg63
(lp1556
S'wsgi_input'
p1557
asbag56
(g77
g58
NtRp1558
(dp1559
g61
(dp1560
g88
g89
ssg70
g1549
sg63
(lp1561
S':'
asbag56
(g77
g58
NtRp1562
(dp1563
g61
(dp1564
sg70
g1549
sg63
(lp1565
g56
(g57
g58
NtRp1566
(dp1567
g61
(dp1568
g69
I4
ssg70
g1562
sg63
(lp1569
S'<socket._fileobject object at 0xa89666c>'
p1570
asbasbasbag56
(g72
g58
NtRp1571
(dp1572
g61
(dp1573
sg70
g821
sg63
(lp1574
g56
(g77
g58
NtRp1575
(dp1576
g61
(dp1577
g81
g82
ssg70
g1571
sg63
(lp1578
S'wsgi_multiprocess'
p1579
asbag56
(g77
g58
NtRp1580
(dp1581
g61
(dp1582
g88
g89
ssg70
g1571
sg63
(lp1583
S':'
asbag56
(g77
g58
NtRp1584
(dp1585
g61
(dp1586
sg70
g1571
sg63
(lp1587
g56
(g57
g58
NtRp1588
(dp1589
g61
(dp1590
g69
I4
ssg70
g1584
sg63
(lp1591
g99
asbasbasbag56
(g72
g58
NtRp1592
(dp1593
g61
(dp1594
sg70
g821
sg63
(lp1595
g56
(g77
g58
NtRp1596
(dp1597
g61
(dp1598
g81
g82
ssg70
g1592
sg63
(lp1599
S'wsgi_multithread'
p1600
asbag56
(g77
g58
NtRp1601
(dp1602
g61
(dp1603
g88
g89
ssg70
g1592
sg63
(lp1604
S':'
asbag56
(g77
g58
NtRp1605
(dp1606
g61
(dp1607
sg70
g1592
sg63
(lp1608
g56
(g57
g58
NtRp1609
(dp1610
g61
(dp1611
g69
I4
ssg70
g1605
sg63
(lp1612
S'True'
p1613
asbasbasbag56
(g72
g58
NtRp1614
(dp1615
g61
(dp1616
sg70
g821
sg63
(lp1617
g56
(g77
g58
NtRp1618
(dp1619
g61
(dp1620
g81
g82
ssg70
g1614
sg63
(lp1621
S'wsgi_run_once'
p1622
asbag56
(g77
g58
NtRp1623
(dp1624
g61
(dp1625
g88
g89
ssg70
g1614
sg63
(lp1626
S':'
asbag56
(g77
g58
NtRp1627
(dp1628
g61
(dp1629
sg70
g1614
sg63
(lp1630
g56
(g57
g58
NtRp1631
(dp1632
g61
(dp1633
g69
I4
ssg70
g1627
sg63
(lp1634
g99
asbasbasbag56
(g72
g58
NtRp1635
(dp1636
g61
(dp1637
sg70
g821
sg63
(lp1638
g56
(g77
g58
NtRp1639
(dp1640
g61
(dp1641
g81
g82
ssg70
g1635
sg63
(lp1642
S'wsgi_url_scheme'
p1643
asbag56
(g77
g58
NtRp1644
(dp1645
g61
(dp1646
g88
g89
ssg70
g1635
sg63
(lp1647
S':'
asbag56
(g77
g58
NtRp1648
(dp1649
g61
(dp1650
sg70
g1635
sg63
(lp1651
g56
(g57
g58
NtRp1652
(dp1653
g61
(dp1654
g69
I4
ssg70
g1648
sg63
(lp1655
S'http'
p1656
asbasbasbag56
(g72
g58
NtRp1657
(dp1658
g61
(dp1659
sg70
g821
sg63
(lp1660
g56
(g77
g58
NtRp1661
(dp1662
g61
(dp1663
g81
g82
ssg70
g1657
sg63
(lp1664
S'wsgi_version'
p1665
asbag56
(g77
g58
NtRp1666
(dp1667
g61
(dp1668
g88
g89
ssg70
g1657
sg63
(lp1669
S':'
asbag56
(g77
g58
NtRp1670
(dp1671
g61
(dp1672
sg70
g1657
sg63
(lp1673
g56
(g57
g58
NtRp1674
(dp1675
g61
(dp1676
g69
I4
ssg70
g1670
sg63
(lp1677
g56
(g65
g58
NtRp1678
(dp1679
g61
(dp1680
g69
I3
ssg70
Nsg63
(lp1681
g56
(g72
g58
NtRp1682
(dp1683
g61
(dp1684
sg70
g1678
sg63
(lp1685
g56
(g77
g58
NtRp1686
(dp1687
g61
(dp1688
sg70
g1682
sg63
(lp1689
g56
(g57
g58
NtRp1690
(dp1691
g61
(dp1692
g69
I3
ssg70
g1686
sg63
(lp1693
S'1'
asbasbasbag56
(g72
g58
NtRp1694
(dp1695
g61
(dp1696
sg70
g1678
sg63
(lp1697
g56
(g77
g58
NtRp1698
(dp1699
g61
(dp1700
sg70
g1694
sg63
(lp1701
g56
(g57
g58
NtRp1702
(dp1703
g61
(dp1704
g69
I3
ssg70
g1698
sg63
(lp1705
S'0'
asbasbasbasbasbasbasbasbasbasbasbag56
(g72
g58
NtRp1706
(dp1707
g61
(dp1708
sg70
g66
sg63
(lp1709
g56
(g77
g58
NtRp1710
(dp1711
g61
(dp1712
g81
g82
ssg70
g1706
sg63
(lp1713
S'extension'
p1714
asbag56
(g77
g58
NtRp1715
(dp1716
g61
(dp1717
g88
g89
ssg70
g1706
sg63
(lp1718
S':'
asbag56
(g77
g58
NtRp1719
(dp1720
g61
(dp1721
sg70
g1706
sg63
(lp1722
g56
(g57
g58
NtRp1723
(dp1724
g61
(dp1725
g69
I5
ssg70
g1719
sg63
(lp1726
S'html'
p1727
asbasbasbag56
(g72
g58
NtRp1728
(dp1729
g61
(dp1730
sg70
g66
sg63
(lp1731
g56
(g77
g58
NtRp1732
(dp1733
g61
(dp1734
g81
g82
ssg70
g1728
sg63
(lp1735
S'folder'
p1736
asbag56
(g77
g58
NtRp1737
(dp1738
g61
(dp1739
g88
g89
ssg70
g1728
sg63
(lp1740
S':'
asbag56
(g77
g58
NtRp1741
(dp1742
g61
(dp1743
sg70
g1728
sg63
(lp1744
g56
(g57
g58
NtRp1745
(dp1746
g61
(dp1747
g69
I5
ssg70
g1741
sg63
(lp1748
S'/home/vsvah/Desktop/Coursework/Sem3/SSAD/web2py/applications/Music_Repo/'
p1749
asbasbasbag56
(g72
g58
NtRp1750
(dp1751
g61
(dp1752
sg70
g66
sg63
(lp1753
g56
(g77
g58
NtRp1754
(dp1755
g61
(dp1756
g81
g82
ssg70
g1750
sg63
(lp1757
S'function'
p1758
asbag56
(g77
g58
NtRp1759
(dp1760
g61
(dp1761
g88
g89
ssg70
g1750
sg63
(lp1762
S':'
asbag56
(g77
g58
NtRp1763
(dp1764
g61
(dp1765
sg70
g1750
sg63
(lp1766
g56
(g57
g58
NtRp1767
(dp1768
g61
(dp1769
g69
I5
ssg70
g1763
sg63
(lp1770
S'display_details'
p1771
asbasbasbag56
(g72
g58
NtRp1772
(dp1773
g61
(dp1774
sg70
g66
sg63
(lp1775
g56
(g77
g58
NtRp1776
(dp1777
g61
(dp1778
g81
g82
ssg70
g1772
sg63
(lp1779
S'get_vars'
p1780
asbag56
(g77
g58
NtRp1781
(dp1782
g61
(dp1783
g88
g89
ssg70
g1772
sg63
(lp1784
S':'
asbag56
(g77
g58
NtRp1785
(dp1786
g61
(dp1787
sg70
g1772
sg63
(lp1788
g56
(g57
g58
NtRp1789
(dp1790
g61
(dp1791
g69
I5
ssg70
g1785
sg63
(lp1792
g56
(g65
g58
NtRp1793
(dp1794
g61
(dp1795
g69
I4
ssg70
Nsg63
(lp1796
g56
(g72
g58
NtRp1797
(dp1798
g61
(dp1799
sg70
g1793
sg63
(lp1800
g56
(g77
g58
NtRp1801
(dp1802
g61
(dp1803
g81
g82
ssg70
g1797
sg63
(lp1804
S'id'
p1805
asbag56
(g77
g58
NtRp1806
(dp1807
g61
(dp1808
g88
g89
ssg70
g1797
sg63
(lp1809
S':'
asbag56
(g77
g58
NtRp1810
(dp1811
g61
(dp1812
sg70
g1797
sg63
(lp1813
g56
(g57
g58
NtRp1814
(dp1815
g61
(dp1816
g69
I4
ssg70
g1810
sg63
(lp1817
S'i.song.idno'
p1818
asbasbasbasbasbasbasbag56
(g72
g58
NtRp1819
(dp1820
g61
(dp1821
sg70
g66
sg63
(lp1822
g56
(g77
g58
NtRp1823
(dp1824
g61
(dp1825
g81
g82
ssg70
g1819
sg63
(lp1826
S'is_https'
p1827
asbag56
(g77
g58
NtRp1828
(dp1829
g61
(dp1830
g88
g89
ssg70
g1819
sg63
(lp1831
S':'
asbag56
(g77
g58
NtRp1832
(dp1833
g61
(dp1834
sg70
g1819
sg63
(lp1835
g56
(g57
g58
NtRp1836
(dp1837
g61
(dp1838
g69
I5
ssg70
g1832
sg63
(lp1839
g99
asbasbasbag56
(g72
g58
NtRp1840
(dp1841
g61
(dp1842
sg70
g66
sg63
(lp1843
g56
(g77
g58
NtRp1844
(dp1845
g61
(dp1846
g81
g82
ssg70
g1840
sg63
(lp1847
S'is_local'
p1848
asbag56
(g77
g58
NtRp1849
(dp1850
g61
(dp1851
g88
g89
ssg70
g1840
sg63
(lp1852
S':'
asbag56
(g77
g58
NtRp1853
(dp1854
g61
(dp1855
sg70
g1840
sg63
(lp1856
g56
(g57
g58
NtRp1857
(dp1858
g61
(dp1859
g69
I5
ssg70
g1853
sg63
(lp1860
g1613
asbasbasbag56
(g72
g58
NtRp1861
(dp1862
g61
(dp1863
sg70
g66
sg63
(lp1864
g56
(g77
g58
NtRp1865
(dp1866
g61
(dp1867
g81
g82
ssg70
g1861
sg63
(lp1868
S'is_restful'
p1869
asbag56
(g77
g58
NtRp1870
(dp1871
g61
(dp1872
g88
g89
ssg70
g1861
sg63
(lp1873
S':'
asbag56
(g77
g58
NtRp1874
(dp1875
g61
(dp1876
sg70
g1861
sg63
(lp1877
g56
(g57
g58
NtRp1878
(dp1879
g61
(dp1880
g69
I5
ssg70
g1874
sg63
(lp1881
g99
asbasbasbag56
(g72
g58
NtRp1882
(dp1883
g61
(dp1884
sg70
g66
sg63
(lp1885
g56
(g77
g58
NtRp1886
(dp1887
g61
(dp1888
g81
g82
ssg70
g1882
sg63
(lp1889
S'now'
p1890
asbag56
(g77
g58
NtRp1891
(dp1892
g61
(dp1893
g88
g89
ssg70
g1882
sg63
(lp1894
S':'
asbag56
(g77
g58
NtRp1895
(dp1896
g61
(dp1897
sg70
g1882
sg63
(lp1898
g56
(g57
g58
NtRp1899
(dp1900
g61
(dp1901
g69
I5
ssg70
g1895
sg63
(lp1902
S'datetime.datetime(2011, 9, 7, 16, 2, 9, 678562)'
p1903
asbasbasbag56
(g72
g58
NtRp1904
(dp1905
g61
(dp1906
sg70
g66
sg63
(lp1907
g56
(g77
g58
NtRp1908
(dp1909
g61
(dp1910
g81
g82
ssg70
g1904
sg63
(lp1911
S'post_vars'
p1912
asbag56
(g77
g58
NtRp1913
(dp1914
g61
(dp1915
g88
g89
ssg70
g1904
sg63
(lp1916
S':'
asbag56
(g77
g58
NtRp1917
(dp1918
g61
(dp1919
sg70
g1904
sg63
(lp1920
g56
(g57
g58
NtRp1921
(dp1922
g61
(dp1923
g69
I5
ssg70
g1917
sg63
(lp1924
g56
(g65
g58
NtRp1925
(dp1926
g61
(dp1927
g69
I4
ssg70
Nsg63
(lp1928
sbasbasbasbag56
(g72
g58
NtRp1929
(dp1930
g61
(dp1931
sg70
g66
sg63
(lp1932
g56
(g77
g58
NtRp1933
(dp1934
g61
(dp1935
g81
g82
ssg70
g1929
sg63
(lp1936
S'url'
p1937
asbag56
(g77
g58
NtRp1938
(dp1939
g61
(dp1940
g88
g89
ssg70
g1929
sg63
(lp1941
S':'
asbag56
(g77
g58
NtRp1942
(dp1943
g61
(dp1944
sg70
g1929
sg63
(lp1945
g56
(g57
g58
NtRp1946
(dp1947
g61
(dp1948
g69
I5
ssg70
g1942
sg63
(lp1949
S'/Music_Repo/default/display_details'
p1950
asbasbasbag56
(g72
g58
NtRp1951
(dp1952
g61
(dp1953
sg70
g66
sg63
(lp1954
g56
(g77
g58
NtRp1955
(dp1956
g61
(dp1957
g81
g82
ssg70
g1951
sg63
(lp1958
S'uuid'
p1959
asbag56
(g77
g58
NtRp1960
(dp1961
g61
(dp1962
g88
g89
ssg70
g1951
sg63
(lp1963
S':'
asbag56
(g77
g58
NtRp1964
(dp1965
g61
(dp1966
sg70
g1951
sg63
(lp1967
g56
(g57
g58
NtRp1968
(dp1969
g61
(dp1970
g69
I5
ssg70
g1964
sg63
(lp1971
S'Music_Repo/127.0.0.1.2011-09-07.16-02-09.38fb2390-69ee-473d-99b2-0d6e9a88be3e'
p1972
asbasbasbag56
(g72
g58
NtRp1973
(dp1974
g61
(dp1975
sg70
g66
sg63
(lp1976
g56
(g77
g58
NtRp1977
(dp1978
g61
(dp1979
g81
g82
ssg70
g1973
sg63
(lp1980
S'vars'
p1981
asbag56
(g77
g58
NtRp1982
(dp1983
g61
(dp1984
g88
g89
ssg70
g1973
sg63
(lp1985
S':'
asbag56
(g77
g58
NtRp1986
(dp1987
g61
(dp1988
sg70
g1973
sg63
(lp1989
g56
(g57
g58
NtRp1990
(dp1991
g61
(dp1992
g69
I5
ssg70
g1986
sg63
(lp1993
g56
(g65
g58
NtRp1994
(dp1995
g61
(dp1996
g69
I4
ssg70
Nsg63
(lp1997
g56
(g72
g58
NtRp1998
(dp1999
g61
(dp2000
sg70
g1994
sg63
(lp2001
g56
(g77
g58
NtRp2002
(dp2003
g61
(dp2004
g81
g82
ssg70
g1998
sg63
(lp2005
g1805
asbag56
(g77
g58
NtRp2006
(dp2007
g61
(dp2008
g88
g89
ssg70
g1998
sg63
(lp2009
S':'
asbag56
(g77
g58
NtRp2010
(dp2011
g61
(dp2012
sg70
g1998
sg63
(lp2013
g56
(g57
g58
NtRp2014
(dp2015
g61
(dp2016
g69
I4
ssg70
g2010
sg63
(lp2017
g1818
asbasbasbasbasbasbasbag56
(g72
g58
NtRp2018
(dp2019
g61
(dp2020
sg70
g66
sg63
(lp2021
g56
(g77
g58
NtRp2022
(dp2023
g61
(dp2024
g81
g82
ssg70
g2018
sg63
(lp2025
S'wsgi'
p2026
asbag56
(g77
g58
NtRp2027
(dp2028
g61
(dp2029
g88
g89
ssg70
g2018
sg63
(lp2030
S':'
asbag56
(g77
g58
NtRp2031
(dp2032
g61
(dp2033
sg70
g2018
sg63
(lp2034
g56
(g57
g58
NtRp2035
(dp2036
g61
(dp2037
g69
I5
ssg70
g2031
sg63
(lp2038
g56
(g65
g58
NtRp2039
(dp2040
g61
(dp2041
g69
I4
ssg70
Nsg63
(lp2042
g56
(g72
g58
NtRp2043
(dp2044
g61
(dp2045
sg70
g2039
sg63
(lp2046
g56
(g77
g58
NtRp2047
(dp2048
g61
(dp2049
g81
g82
ssg70
g2043
sg63
(lp2050
S'environ'
p2051
asbag56
(g77
g58
NtRp2052
(dp2053
g61
(dp2054
g88
g89
ssg70
g2043
sg63
(lp2055
S':'
asbag56
(g77
g58
NtRp2056
(dp2057
g61
(dp2058
sg70
g2043
sg63
(lp2059
g56
(g57
g58
NtRp2060
(dp2061
g61
(dp2062
g69
I4
ssg70
g2056
sg63
(lp2063
g56
(g65
g58
NtRp2064
(dp2065
g61
(dp2066
g69
I3
ssg70
Nsg63
(lp2067
g56
(g72
g58
NtRp2068
(dp2069
g61
(dp2070
sg70
g2064
sg63
(lp2071
g56
(g77
g58
NtRp2072
(dp2073
g61
(dp2074
g81
g82
ssg70
g2068
sg63
(lp2075
S'HTTP_ACCEPT'
p2076
asbag56
(g77
g58
NtRp2077
(dp2078
g61
(dp2079
g88
g89
ssg70
g2068
sg63
(lp2080
S':'
asbag56
(g77
g58
NtRp2081
(dp2082
g61
(dp2083
sg70
g2068
sg63
(lp2084
g56
(g57
g58
NtRp2085
(dp2086
g61
(dp2087
g69
I3
ssg70
g2081
sg63
(lp2088
g1002
asbasbasbag56
(g72
g58
NtRp2089
(dp2090
g61
(dp2091
sg70
g2064
sg63
(lp2092
g56
(g77
g58
NtRp2093
(dp2094
g61
(dp2095
g81
g82
ssg70
g2089
sg63
(lp2096
S'HTTP_ACCEPT_CHARSET'
p2097
asbag56
(g77
g58
NtRp2098
(dp2099
g61
(dp2100
g88
g89
ssg70
g2089
sg63
(lp2101
S':'
asbag56
(g77
g58
NtRp2102
(dp2103
g61
(dp2104
sg70
g2089
sg63
(lp2105
g56
(g57
g58
NtRp2106
(dp2107
g61
(dp2108
g69
I3
ssg70
g2102
sg63
(lp2109
g1024
asbasbasbag56
(g72
g58
NtRp2110
(dp2111
g61
(dp2112
sg70
g2064
sg63
(lp2113
g56
(g77
g58
NtRp2114
(dp2115
g61
(dp2116
g81
g82
ssg70
g2110
sg63
(lp2117
S'HTTP_ACCEPT_ENCODING'
p2118
asbag56
(g77
g58
NtRp2119
(dp2120
g61
(dp2121
g88
g89
ssg70
g2110
sg63
(lp2122
S':'
asbag56
(g77
g58
NtRp2123
(dp2124
g61
(dp2125
sg70
g2110
sg63
(lp2126
g56
(g57
g58
NtRp2127
(dp2128
g61
(dp2129
g69
I3
ssg70
g2123
sg63
(lp2130
g1046
asbasbasbag56
(g72
g58
NtRp2131
(dp2132
g61
(dp2133
sg70
g2064
sg63
(lp2134
g56
(g77
g58
NtRp2135
(dp2136
g61
(dp2137
g81
g82
ssg70
g2131
sg63
(lp2138
S'HTTP_ACCEPT_LANGUAGE'
p2139
asbag56
(g77
g58
NtRp2140
(dp2141
g61
(dp2142
g88
g89
ssg70
g2131
sg63
(lp2143
S':'
asbag56
(g77
g58
NtRp2144
(dp2145
g61
(dp2146
sg70
g2131
sg63
(lp2147
g56
(g57
g58
NtRp2148
(dp2149
g61
(dp2150
g69
I3
ssg70
g2144
sg63
(lp2151
g1068
asbasbasbag56
(g72
g58
NtRp2152
(dp2153
g61
(dp2154
sg70
g2064
sg63
(lp2155
g56
(g77
g58
NtRp2156
(dp2157
g61
(dp2158
g81
g82
ssg70
g2152
sg63
(lp2159
S'HTTP_CONNECTION'
p2160
asbag56
(g77
g58
NtRp2161
(dp2162
g61
(dp2163
g88
g89
ssg70
g2152
sg63
(lp2164
S':'
asbag56
(g77
g58
NtRp2165
(dp2166
g61
(dp2167
sg70
g2152
sg63
(lp2168
g56
(g57
g58
NtRp2169
(dp2170
g61
(dp2171
g69
I3
ssg70
g2165
sg63
(lp2172
g1090
asbasbasbag56
(g72
g58
NtRp2173
(dp2174
g61
(dp2175
sg70
g2064
sg63
(lp2176
g56
(g77
g58
NtRp2177
(dp2178
g61
(dp2179
g81
g82
ssg70
g2173
sg63
(lp2180
S'HTTP_COOKIE'
p2181
asbag56
(g77
g58
NtRp2182
(dp2183
g61
(dp2184
g88
g89
ssg70
g2173
sg63
(lp2185
S':'
asbag56
(g77
g58
NtRp2186
(dp2187
g61
(dp2188
sg70
g2173
sg63
(lp2189
g56
(g57
g58
NtRp2190
(dp2191
g61
(dp2192
g69
I3
ssg70
g2186
sg63
(lp2193
g1112
asbasbasbag56
(g72
g58
NtRp2194
(dp2195
g61
(dp2196
sg70
g2064
sg63
(lp2197
g56
(g77
g58
NtRp2198
(dp2199
g61
(dp2200
g81
g82
ssg70
g2194
sg63
(lp2201
S'HTTP_HOST'
p2202
asbag56
(g77
g58
NtRp2203
(dp2204
g61
(dp2205
g88
g89
ssg70
g2194
sg63
(lp2206
S':'
asbag56
(g77
g58
NtRp2207
(dp2208
g61
(dp2209
sg70
g2194
sg63
(lp2210
g56
(g57
g58
NtRp2211
(dp2212
g61
(dp2213
g69
I3
ssg70
g2207
sg63
(lp2214
g1134
asbasbasbag56
(g72
g58
NtRp2215
(dp2216
g61
(dp2217
sg70
g2064
sg63
(lp2218
g56
(g77
g58
NtRp2219
(dp2220
g61
(dp2221
g81
g82
ssg70
g2215
sg63
(lp2222
S'HTTP_KEEP_ALIVE'
p2223
asbag56
(g77
g58
NtRp2224
(dp2225
g61
(dp2226
g88
g89
ssg70
g2215
sg63
(lp2227
S':'
asbag56
(g77
g58
NtRp2228
(dp2229
g61
(dp2230
sg70
g2215
sg63
(lp2231
g56
(g57
g58
NtRp2232
(dp2233
g61
(dp2234
g69
I3
ssg70
g2228
sg63
(lp2235
g1156
asbasbasbag56
(g72
g58
NtRp2236
(dp2237
g61
(dp2238
sg70
g2064
sg63
(lp2239
g56
(g77
g58
NtRp2240
(dp2241
g61
(dp2242
g81
g82
ssg70
g2236
sg63
(lp2243
S'HTTP_REFERER'
p2244
asbag56
(g77
g58
NtRp2245
(dp2246
g61
(dp2247
g88
g89
ssg70
g2236
sg63
(lp2248
S':'
asbag56
(g77
g58
NtRp2249
(dp2250
g61
(dp2251
sg70
g2236
sg63
(lp2252
g56
(g57
g58
NtRp2253
(dp2254
g61
(dp2255
g69
I3
ssg70
g2249
sg63
(lp2256
g1178
asbasbasbag56
(g72
g58
NtRp2257
(dp2258
g61
(dp2259
sg70
g2064
sg63
(lp2260
g56
(g77
g58
NtRp2261
(dp2262
g61
(dp2263
g81
g82
ssg70
g2257
sg63
(lp2264
S'HTTP_USER_AGENT'
p2265
asbag56
(g77
g58
NtRp2266
(dp2267
g61
(dp2268
g88
g89
ssg70
g2257
sg63
(lp2269
S':'
asbag56
(g77
g58
NtRp2270
(dp2271
g61
(dp2272
sg70
g2257
sg63
(lp2273
g56
(g57
g58
NtRp2274
(dp2275
g61
(dp2276
g69
I3
ssg70
g2270
sg63
(lp2277
g1200
asbasbasbag56
(g72
g58
NtRp2278
(dp2279
g61
(dp2280
sg70
g2064
sg63
(lp2281
g56
(g77
g58
NtRp2282
(dp2283
g61
(dp2284
g81
g82
ssg70
g2278
sg63
(lp2285
S'PATH_INFO'
p2286
asbag56
(g77
g58
NtRp2287
(dp2288
g61
(dp2289
g88
g89
ssg70
g2278
sg63
(lp2290
S':'
asbag56
(g77
g58
NtRp2291
(dp2292
g61
(dp2293
sg70
g2278
sg63
(lp2294
g56
(g57
g58
NtRp2295
(dp2296
g61
(dp2297
g69
I3
ssg70
g2291
sg63
(lp2298
g1243
asbasbasbag56
(g72
g58
NtRp2299
(dp2300
g61
(dp2301
sg70
g2064
sg63
(lp2302
g56
(g77
g58
NtRp2303
(dp2304
g61
(dp2305
g81
g82
ssg70
g2299
sg63
(lp2306
S'QUERY_STRING'
p2307
asbag56
(g77
g58
NtRp2308
(dp2309
g61
(dp2310
g88
g89
ssg70
g2299
sg63
(lp2311
S':'
asbag56
(g77
g58
NtRp2312
(dp2313
g61
(dp2314
sg70
g2299
sg63
(lp2315
g56
(g57
g58
NtRp2316
(dp2317
g61
(dp2318
g69
I3
ssg70
g2312
sg63
(lp2319
g1265
asbasbasbag56
(g72
g58
NtRp2320
(dp2321
g61
(dp2322
sg70
g2064
sg63
(lp2323
g56
(g77
g58
NtRp2324
(dp2325
g61
(dp2326
g81
g82
ssg70
g2320
sg63
(lp2327
S'REMOTE_ADDR'
p2328
asbag56
(g77
g58
NtRp2329
(dp2330
g61
(dp2331
g88
g89
ssg70
g2320
sg63
(lp2332
S':'
asbag56
(g77
g58
NtRp2333
(dp2334
g61
(dp2335
sg70
g2320
sg63
(lp2336
g56
(g57
g58
NtRp2337
(dp2338
g61
(dp2339
g69
I3
ssg70
g2333
sg63
(lp2340
g189
asbasbasbag56
(g72
g58
NtRp2341
(dp2342
g61
(dp2343
sg70
g2064
sg63
(lp2344
g56
(g77
g58
NtRp2345
(dp2346
g61
(dp2347
g81
g82
ssg70
g2341
sg63
(lp2348
S'REMOTE_PORT'
p2349
asbag56
(g77
g58
NtRp2350
(dp2351
g61
(dp2352
g88
g89
ssg70
g2341
sg63
(lp2353
S':'
asbag56
(g77
g58
NtRp2354
(dp2355
g61
(dp2356
sg70
g2341
sg63
(lp2357
g56
(g57
g58
NtRp2358
(dp2359
g61
(dp2360
g69
I3
ssg70
g2354
sg63
(lp2361
g1308
asbasbasbag56
(g72
g58
NtRp2362
(dp2363
g61
(dp2364
sg70
g2064
sg63
(lp2365
g56
(g77
g58
NtRp2366
(dp2367
g61
(dp2368
g81
g82
ssg70
g2362
sg63
(lp2369
S'REQUEST_METHOD'
p2370
asbag56
(g77
g58
NtRp2371
(dp2372
g61
(dp2373
g88
g89
ssg70
g2362
sg63
(lp2374
S':'
asbag56
(g77
g58
NtRp2375
(dp2376
g61
(dp2377
sg70
g2362
sg63
(lp2378
g56
(g57
g58
NtRp2379
(dp2380
g61
(dp2381
g69
I3
ssg70
g2375
sg63
(lp2382
g1330
asbasbasbag56
(g72
g58
NtRp2383
(dp2384
g61
(dp2385
sg70
g2064
sg63
(lp2386
g56
(g77
g58
NtRp2387
(dp2388
g61
(dp2389
g81
g82
ssg70
g2383
sg63
(lp2390
S'SCRIPT_NAME'
p2391
asbag56
(g77
g58
NtRp2392
(dp2393
g61
(dp2394
g88
g89
ssg70
g2383
sg63
(lp2395
S':'
asbag56
(g77
g58
NtRp2396
(dp2397
g61
(dp2398
sg70
g2383
sg63
(lp2399
g56
(g57
g58
NtRp2400
(dp2401
g61
(dp2402
g69
I3
ssg70
g2396
sg63
(lp2403
S''
asbasbasbag56
(g72
g58
NtRp2404
(dp2405
g61
(dp2406
sg70
g2064
sg63
(lp2407
g56
(g77
g58
NtRp2408
(dp2409
g61
(dp2410
g81
g82
ssg70
g2404
sg63
(lp2411
S'SERVER_NAME'
p2412
asbag56
(g77
g58
NtRp2413
(dp2414
g61
(dp2415
g88
g89
ssg70
g2404
sg63
(lp2416
S':'
asbag56
(g77
g58
NtRp2417
(dp2418
g61
(dp2419
sg70
g2404
sg63
(lp2420
g56
(g57
g58
NtRp2421
(dp2422
g61
(dp2423
g69
I3
ssg70
g2417
sg63
(lp2424
g1373
asbasbasbag56
(g72
g58
NtRp2425
(dp2426
g61
(dp2427
sg70
g2064
sg63
(lp2428
g56
(g77
g58
NtRp2429
(dp2430
g61
(dp2431
g81
g82
ssg70
g2425
sg63
(lp2432
S'SERVER_PORT'
p2433
asbag56
(g77
g58
NtRp2434
(dp2435
g61
(dp2436
g88
g89
ssg70
g2425
sg63
(lp2437
S':'
asbag56
(g77
g58
NtRp2438
(dp2439
g61
(dp2440
sg70
g2425
sg63
(lp2441
g56
(g57
g58
NtRp2442
(dp2443
g61
(dp2444
g69
I3
ssg70
g2438
sg63
(lp2445
g1395
asbasbasbag56
(g72
g58
NtRp2446
(dp2447
g61
(dp2448
sg70
g2064
sg63
(lp2449
g56
(g77
g58
NtRp2450
(dp2451
g61
(dp2452
g81
g82
ssg70
g2446
sg63
(lp2453
S'SERVER_PROTOCOL'
p2454
asbag56
(g77
g58
NtRp2455
(dp2456
g61
(dp2457
g88
g89
ssg70
g2446
sg63
(lp2458
S':'
asbag56
(g77
g58
NtRp2459
(dp2460
g61
(dp2461
sg70
g2446
sg63
(lp2462
g56
(g57
g58
NtRp2463
(dp2464
g61
(dp2465
g69
I3
ssg70
g2459
sg63
(lp2466
g1417
asbasbasbag56
(g72
g58
NtRp2467
(dp2468
g61
(dp2469
sg70
g2064
sg63
(lp2470
g56
(g77
g58
NtRp2471
(dp2472
g61
(dp2473
g81
g82
ssg70
g2467
sg63
(lp2474
S'SERVER_SOFTWARE'
p2475
asbag56
(g77
g58
NtRp2476
(dp2477
g61
(dp2478
g88
g89
ssg70
g2467
sg63
(lp2479
S':'
asbag56
(g77
g58
NtRp2480
(dp2481
g61
(dp2482
sg70
g2467
sg63
(lp2483
g56
(g57
g58
NtRp2484
(dp2485
g61
(dp2486
g69
I3
ssg70
g2480
sg63
(lp2487
g1439
asbasbasbag56
(g72
g58
NtRp2488
(dp2489
g61
(dp2490
sg70
g2064
sg63
(lp2491
g56
(g77
g58
NtRp2492
(dp2493
g61
(dp2494
g81
g82
ssg70
g2488
sg63
(lp2495
S'wsgi.errors'
p2496
asbag56
(g77
g58
NtRp2497
(dp2498
g61
(dp2499
g88
g89
ssg70
g2488
sg63
(lp2500
S':'
asbag56
(g77
g58
NtRp2501
(dp2502
g61
(dp2503
sg70
g2488
sg63
(lp2504
g56
(g57
g58
NtRp2505
(dp2506
g61
(dp2507
g69
I3
ssg70
g2501
sg63
(lp2508
S"<open file '<stderr>', mode 'w' at 0xb78110d0>"
p2509
asbasbasbag56
(g72
g58
NtRp2510
(dp2511
g61
(dp2512
sg70
g2064
sg63
(lp2513
g56
(g77
g58
NtRp2514
(dp2515
g61
(dp2516
g81
g82
ssg70
g2510
sg63
(lp2517
S'wsgi.file_wrapper'
p2518
asbag56
(g77
g58
NtRp2519
(dp2520
g61
(dp2521
g88
g89
ssg70
g2510
sg63
(lp2522
S':'
asbag56
(g77
g58
NtRp2523
(dp2524
g61
(dp2525
sg70
g2510
sg63
(lp2526
g56
(g57
g58
NtRp2527
(dp2528
g61
(dp2529
g69
I3
ssg70
g2523
sg63
(lp2530
S'<class gluon.rocket.FileWrapper at 0xa07f08c>'
p2531
asbasbasbag56
(g72
g58
NtRp2532
(dp2533
g61
(dp2534
sg70
g2064
sg63
(lp2535
g56
(g77
g58
NtRp2536
(dp2537
g61
(dp2538
g81
g82
ssg70
g2532
sg63
(lp2539
S'wsgi.input'
p2540
asbag56
(g77
g58
NtRp2541
(dp2542
g61
(dp2543
g88
g89
ssg70
g2532
sg63
(lp2544
S':'
asbag56
(g77
g58
NtRp2545
(dp2546
g61
(dp2547
sg70
g2532
sg63
(lp2548
g56
(g57
g58
NtRp2549
(dp2550
g61
(dp2551
g69
I3
ssg70
g2545
sg63
(lp2552
S'<cStringIO.StringO object at 0xab339a0>'
p2553
asbasbasbag56
(g72
g58
NtRp2554
(dp2555
g61
(dp2556
sg70
g2064
sg63
(lp2557
g56
(g77
g58
NtRp2558
(dp2559
g61
(dp2560
g81
g82
ssg70
g2554
sg63
(lp2561
S'wsgi.multiprocess'
p2562
asbag56
(g77
g58
NtRp2563
(dp2564
g61
(dp2565
g88
g89
ssg70
g2554
sg63
(lp2566
S':'
asbag56
(g77
g58
NtRp2567
(dp2568
g61
(dp2569
sg70
g2554
sg63
(lp2570
g56
(g57
g58
NtRp2571
(dp2572
g61
(dp2573
g69
I3
ssg70
g2567
sg63
(lp2574
g99
asbasbasbag56
(g72
g58
NtRp2575
(dp2576
g61
(dp2577
sg70
g2064
sg63
(lp2578
g56
(g77
g58
NtRp2579
(dp2580
g61
(dp2581
g81
g82
ssg70
g2575
sg63
(lp2582
S'wsgi.multithread'
p2583
asbag56
(g77
g58
NtRp2584
(dp2585
g61
(dp2586
g88
g89
ssg70
g2575
sg63
(lp2587
S':'
asbag56
(g77
g58
NtRp2588
(dp2589
g61
(dp2590
sg70
g2575
sg63
(lp2591
g56
(g57
g58
NtRp2592
(dp2593
g61
(dp2594
g69
I3
ssg70
g2588
sg63
(lp2595
g1613
asbasbasbag56
(g72
g58
NtRp2596
(dp2597
g61
(dp2598
sg70
g2064
sg63
(lp2599
g56
(g77
g58
NtRp2600
(dp2601
g61
(dp2602
g81
g82
ssg70
g2596
sg63
(lp2603
S'wsgi.run_once'
p2604
asbag56
(g77
g58
NtRp2605
(dp2606
g61
(dp2607
g88
g89
ssg70
g2596
sg63
(lp2608
S':'
asbag56
(g77
g58
NtRp2609
(dp2610
g61
(dp2611
sg70
g2596
sg63
(lp2612
g56
(g57
g58
NtRp2613
(dp2614
g61
(dp2615
g69
I3
ssg70
g2609
sg63
(lp2616
g99
asbasbasbag56
(g72
g58
NtRp2617
(dp2618
g61
(dp2619
sg70
g2064
sg63
(lp2620
g56
(g77
g58
NtRp2621
(dp2622
g61
(dp2623
g81
g82
ssg70
g2617
sg63
(lp2624
S'wsgi.url_scheme'
p2625
asbag56
(g77
g58
NtRp2626
(dp2627
g61
(dp2628
g88
g89
ssg70
g2617
sg63
(lp2629
S':'
asbag56
(g77
g58
NtRp2630
(dp2631
g61
(dp2632
sg70
g2617
sg63
(lp2633
g56
(g57
g58
NtRp2634
(dp2635
g61
(dp2636
g69
I3
ssg70
g2630
sg63
(lp2637
g1656
asbasbasbag56
(g72
g58
NtRp2638
(dp2639
g61
(dp2640
sg70
g2064
sg63
(lp2641
g56
(g77
g58
NtRp2642
(dp2643
g61
(dp2644
g81
g82
ssg70
g2638
sg63
(lp2645
S'wsgi.version'
p2646
asbag56
(g77
g58
NtRp2647
(dp2648
g61
(dp2649
g88
g89
ssg70
g2638
sg63
(lp2650
S':'
asbag56
(g77
g58
NtRp2651
(dp2652
g61
(dp2653
sg70
g2638
sg63
(lp2654
g56
(g57
g58
NtRp2655
(dp2656
g61
(dp2657
g69
I3
ssg70
g2651
sg63
(lp2658
S'1'
asbasbasbasbasbasbasbasbasbasbasbasbasbsS'frames'
p2659
(lp2660
(dp2661
S'file'
p2662
S'/home/vsvah/Desktop/Coursework/Sem3/SSAD/web2py/gluon/restricted.py'
p2663
sS'dump'
p2664
(dp2665
S'environment'
p2666
S"{'A': <class 'gluon.html.A'>, 'Auth': <class 'gluon.tools.Auth'>, 'B': <class 'gluon.html.B'>, 'BEAUTIFY': <class 'gluon.html.BEAUTIFY'>, 'BODY': <class 'gluon.html.BODY'>, 'BR': <class 'gluon.html.BR'>, 'BUTTON': <class 'gluon.html.BUTTON'>, 'CAT': <class 'gluon.html.CAT'>, 'CENTER': <class 'gluon.html.CENTER'>, 'CLEANUP': <class 'gluon.validators.CLEANUP'>, ...}"
p2667
sS'ccode'
p2668
S'<code object <module> at 0xab37da0, file "/home/...ions/Music_Repo/controllers/default.py", line 12>'
p2669
ssS'lnum'
p2670
I192
sS'lines'
p2671
(dp2672
I192
S'        exec ccode in environment'
p2673
sI193
S'    except HTTP:'
p2674
sI194
S'        raise'
p2675
sI195
S'    except Exception, error:'
p2676
sI196
S'        # XXX Show exception in Wing IDE if running in debugger'
p2677
sI187
S'    try:'
p2678
sI188
S'        if type(code) == types.CodeType:'
p2679
sI189
S'            ccode = code'
p2680
sI190
S'        else:'
p2681
sI191
S'            ccode = compile2(code,layer)'
p2682
ssS'call'
p2683
S"(code='# -*- coding: utf-8 -*-\\n# this file is released ...response._vars=response._caller(display_details)\\n', environment={'A': <class 'gluon.html.A'>, 'Auth': <class 'gluon.tools.Auth'>, 'B': <class 'gluon.html.B'>, 'BEAUTIFY': <class 'gluon.html.BEAUTIFY'>, 'BODY': <class 'gluon.html.BODY'>, 'BR': <class 'gluon.html.BR'>, 'BUTTON': <class 'gluon.html.BUTTON'>, 'CAT': <class 'gluon.html.CAT'>, 'CENTER': <class 'gluon.html.CENTER'>, 'CLEANUP': <class 'gluon.validators.CLEANUP'>, ...}, layer='/home/vsvah/Desktop/Coursework/Sem3/SSAD/web2py/applications/Music_Repo/controllers/default.py')"
p2684
sS'func'
p2685
S'restricted'
p2686
sa(dp2687
g2662
S'/home/vsvah/Desktop/Coursework/Sem3/SSAD/web2py/applications/Music_Repo/controllers/default.py'
p2688
sg2664
(dp2689
sg2670
I199
sg2671
(dp2690
I192
S'\tdb.artist.truncate()'
p2691
sI193
S'\tdb.song.truncate()'
p2692
sI194
S'\tdb.movie.truncate()'
p2693
sI195
S'\tdb.rating.truncate()'
p2694
sI196
S'        return dict(r="All Tables Successfully Cleared :D")'
p2695
sI197
S''
sI188
S'\trow=db((db.song.rating>=4) & (db.song.singer==db.artist.id)).select(db.song.name,db.artist.name)'
p2696
sI189
S'\treturn dict(r=row)'
p2697
sI190
S''
sI191
S'def reset_state():'
p2698
ssg2683
S'()'
p2699
sg2685
S'<module>'
p2700
sa(dp2701
g2662
S'/home/vsvah/Desktop/Coursework/Sem3/SSAD/web2py/gluon/globals.py'
p2702
sg2664
(dp2703
S'self'
p2704
S'undefined'
p2705
sS'f'
S'<function display_details>'
p2706
ssg2670
I145
sg2671
(dp2707
I140
S'        self.meta = Storage()      # used by web2py_ajax.html'
p2708
sI141
S'        self.menu = []             # used by the default view layout'
p2709
sI142
S'        self.files = []            # used by web2py_ajax.html'
p2710
sI143
S'        self.generic_patterns = [] # patterns to allow generic views'
p2711
sI144
S'        self._vars = None'
p2712
sI145
S'        self._caller = lambda f: f()'
p2713
sI146
S'        self._view_environment = None'
p2714
sI147
S'        self._custom_commit = None'
p2715
sI148
S'        self._custom_rollback = None'
p2716
sI149
S''
ssg2683
S'(f=<function display_details>)'
p2717
sg2685
S'<lambda>'
p2718
sa(dp2719
g2662
S'/home/vsvah/Desktop/Coursework/Sem3/SSAD/web2py/applications/Music_Repo/controllers/default.py'
p2720
sg2664
(dp2721
S'global request'
p2722
S"<Storage {'is_local': True, 'function': 'display....16-02-09.38fb2390-69ee-473d-99b2-0d6e9a88be3e'}>"
p2723
sS'request.vars'
p2724
S"<Storage {'id': 'i.song.idno'}>"
p2725
sS'idno'
p2726
g2705
sS'request.vars.args'
p2727
S'None'
p2728
ssg2670
I167
sg2671
(dp2729
I162
S'       else:'
p2730
sI163
S'\t  rows = db((db.song.singer == db.artist.id) & (db.artist.name == session.artist)).select()'
p2731
sI164
S'       return dict(r = rows)'
p2732
sI165
S''
sI166
S'def display_details():'
p2733
sI167
S'\tidno = request.vars.args[0]'
p2734
sI168
S'\trows = db(db.song.id == idno).select()'
p2735
sI169
S'\treturn dict(r=idno)'
p2736
sI170
S''
sI171
S'def q1():'
p2737
ssg2683
S'()'
p2738
sg2685
S'display_details'
p2739
sasS'pyver'
p2740
S'Python 2.6.5: /usr/bin/python'
p2741
sS'session'
p2742
g56
(g57
g58
NtRp2743
(dp2744
g61
(dp2745
sg63
(lp2746
g56
(g65
g58
NtRp2747
(dp2748
g61
(dp2749
g69
I5
ssg70
Nsg63
(lp2750
g56
(g72
g58
NtRp2751
(dp2752
g61
(dp2753
sg70
g2747
sg63
(lp2754
g56
(g77
g58
NtRp2755
(dp2756
g61
(dp2757
g81
g82
ssg70
g2751
sg63
(lp2758
S'artist'
p2759
asbag56
(g77
g58
NtRp2760
(dp2761
g61
(dp2762
g88
g89
ssg70
g2751
sg63
(lp2763
S':'
asbag56
(g77
g58
NtRp2764
(dp2765
g61
(dp2766
sg70
g2751
sg63
(lp2767
g56
(g57
g58
NtRp2768
(dp2769
g61
(dp2770
g69
I5
ssg70
g2764
sg63
(lp2771
S''
asbasbasbag56
(g72
g58
NtRp2772
(dp2773
g61
(dp2774
sg70
g2747
sg63
(lp2775
g56
(g77
g58
NtRp2776
(dp2777
g61
(dp2778
g81
g82
ssg70
g2772
sg63
(lp2779
S'last_query'
p2780
asbag56
(g77
g58
NtRp2781
(dp2782
g61
(dp2783
g88
g89
ssg70
g2772
sg63
(lp2784
S':'
asbag56
(g77
g58
NtRp2785
(dp2786
g61
(dp2787
sg70
g2772
sg63
(lp2788
g56
(g57
g58
NtRp2789
(dp2790
g61
(dp2791
g69
I5
ssg70
g2785
sg63
(lp2792
S'db.movie.id>0'
p2793
asbasbasbag56
(g72
g58
NtRp2794
(dp2795
g61
(dp2796
sg70
g2747
sg63
(lp2797
g56
(g77
g58
NtRp2798
(dp2799
g61
(dp2800
g81
g82
ssg70
g2794
sg63
(lp2801
S'movie'
p2802
asbag56
(g77
g58
NtRp2803
(dp2804
g61
(dp2805
g88
g89
ssg70
g2794
sg63
(lp2806
S':'
asbag56
(g77
g58
NtRp2807
(dp2808
g61
(dp2809
sg70
g2794
sg63
(lp2810
g56
(g57
g58
NtRp2811
(dp2812
g61
(dp2813
g69
I5
ssg70
g2807
sg63
(lp2814
S'MOVIE'
p2815
asbasbasbasbasbsS'etype'
p2816
S"<type 'exceptions.TypeError'>"
p2817
sS'date'
p2818
S'Wed Sep  7 16:02:09 2011'
p2819
sS'response'
p2820
g56
(g57
g58
NtRp2821
(dp2822
g61
(dp2823
sg63
(lp2824
g56
(g65
g58
NtRp2825
(dp2826
g61
(dp2827
g69
I5
ssg70
Nsg63
(lp2828
g56
(g72
g58
NtRp2829
(dp2830
g61
(dp2831
sg70
g2825
sg63
(lp2832
g56
(g77
g58
NtRp2833
(dp2834
g61
(dp2835
g81
g82
ssg70
g2829
sg63
(lp2836
g154
asbag56
(g77
g58
NtRp2837
(dp2838
g61
(dp2839
g88
g89
ssg70
g2829
sg63
(lp2840
S':'
asbag56
(g77
g58
NtRp2841
(dp2842
g61
(dp2843
sg70
g2829
sg63
(lp2844
g56
(g57
g58
NtRp2845
(dp2846
g61
(dp2847
g69
I5
ssg70
g2841
sg63
(lp2848
S'<cStringIO.StringO object at 0xab33320>'
p2849
asbasbasbag56
(g72
g58
NtRp2850
(dp2851
g61
(dp2852
sg70
g2825
sg63
(lp2853
g56
(g77
g58
NtRp2854
(dp2855
g61
(dp2856
g81
g82
ssg70
g2850
sg63
(lp2857
g220
asbag56
(g77
g58
NtRp2858
(dp2859
g61
(dp2860
g88
g89
ssg70
g2850
sg63
(lp2861
S':'
asbag56
(g77
g58
NtRp2862
(dp2863
g61
(dp2864
sg70
g2850
sg63
(lp2865
g56
(g57
g58
NtRp2866
(dp2867
g61
(dp2868
g69
I5
ssg70
g2862
sg63
(lp2869
g56
(g65
g58
NtRp2870
(dp2871
g61
(dp2872
g69
I4
ssg70
Nsg63
(lp2873
g56
(g72
g58
NtRp2874
(dp2875
g61
(dp2876
sg70
g2870
sg63
(lp2877
g56
(g77
g58
NtRp2878
(dp2879
g61
(dp2880
g81
g82
ssg70
g2874
sg63
(lp2881
S'session_id_music_repo'
p2882
asbag56
(g77
g58
NtRp2883
(dp2884
g61
(dp2885
g88
g89
ssg70
g2874
sg63
(lp2886
S':'
asbag56
(g77
g58
NtRp2887
(dp2888
g61
(dp2889
sg70
g2874
sg63
(lp2890
g56
(g57
g58
NtRp2891
(dp2892
g61
(dp2893
g69
I4
ssg70
g2887
sg63
(lp2894
g56
(g65
g58
NtRp2895
(dp2896
g61
(dp2897
g69
I3
ssg70
Nsg63
(lp2898
g56
(g72
g58
NtRp2899
(dp2900
g61
(dp2901
sg70
g2895
sg63
(lp2902
g56
(g77
g58
NtRp2903
(dp2904
g61
(dp2905
g81
g82
ssg70
g2899
sg63
(lp2906
g270
asbag56
(g77
g58
NtRp2907
(dp2908
g61
(dp2909
g88
g89
ssg70
g2899
sg63
(lp2910
S':'
asbag56
(g77
g58
NtRp2911
(dp2912
g61
(dp2913
sg70
g2899
sg63
(lp2914
g56
(g57
g58
NtRp2915
(dp2916
g61
(dp2917
g69
I3
ssg70
g2911
sg63
(lp2918
S''
asbasbasbag56
(g72
g58
NtRp2919
(dp2920
g61
(dp2921
sg70
g2895
sg63
(lp2922
g56
(g77
g58
NtRp2923
(dp2924
g61
(dp2925
g81
g82
ssg70
g2919
sg63
(lp2926
g291
asbag56
(g77
g58
NtRp2927
(dp2928
g61
(dp2929
g88
g89
ssg70
g2919
sg63
(lp2930
S':'
asbag56
(g77
g58
NtRp2931
(dp2932
g61
(dp2933
sg70
g2919
sg63
(lp2934
g56
(g57
g58
NtRp2935
(dp2936
g61
(dp2937
g69
I3
ssg70
g2931
sg63
(lp2938
S''
asbasbasbag56
(g72
g58
NtRp2939
(dp2940
g61
(dp2941
sg70
g2895
sg63
(lp2942
g56
(g77
g58
NtRp2943
(dp2944
g61
(dp2945
g81
g82
ssg70
g2939
sg63
(lp2946
g312
asbag56
(g77
g58
NtRp2947
(dp2948
g61
(dp2949
g88
g89
ssg70
g2939
sg63
(lp2950
S':'
asbag56
(g77
g58
NtRp2951
(dp2952
g61
(dp2953
sg70
g2939
sg63
(lp2954
g56
(g57
g58
NtRp2955
(dp2956
g61
(dp2957
g69
I3
ssg70
g2951
sg63
(lp2958
S''
asbasbasbag56
(g72
g58
NtRp2959
(dp2960
g61
(dp2961
sg70
g2895
sg63
(lp2962
g56
(g77
g58
NtRp2963
(dp2964
g61
(dp2965
g81
g82
ssg70
g2959
sg63
(lp2966
g333
asbag56
(g77
g58
NtRp2967
(dp2968
g61
(dp2969
g88
g89
ssg70
g2959
sg63
(lp2970
S':'
asbag56
(g77
g58
NtRp2971
(dp2972
g61
(dp2973
sg70
g2959
sg63
(lp2974
g56
(g57
g58
NtRp2975
(dp2976
g61
(dp2977
g69
I3
ssg70
g2971
sg63
(lp2978
S''
asbasbasbag56
(g72
g58
NtRp2979
(dp2980
g61
(dp2981
sg70
g2895
sg63
(lp2982
g56
(g77
g58
NtRp2983
(dp2984
g61
(dp2985
g81
g82
ssg70
g2979
sg63
(lp2986
g354
asbag56
(g77
g58
NtRp2987
(dp2988
g61
(dp2989
g88
g89
ssg70
g2979
sg63
(lp2990
S':'
asbag56
(g77
g58
NtRp2991
(dp2992
g61
(dp2993
sg70
g2979
sg63
(lp2994
g56
(g57
g58
NtRp2995
(dp2996
g61
(dp2997
g69
I3
ssg70
g2991
sg63
(lp2998
S''
asbasbasbag56
(g72
g58
NtRp2999
(dp3000
g61
(dp3001
sg70
g2895
sg63
(lp3002
g56
(g77
g58
NtRp3003
(dp3004
g61
(dp3005
g81
g82
ssg70
g2999
sg63
(lp3006
g375
asbag56
(g77
g58
NtRp3007
(dp3008
g61
(dp3009
g88
g89
ssg70
g2999
sg63
(lp3010
S':'
asbag56
(g77
g58
NtRp3011
(dp3012
g61
(dp3013
sg70
g2999
sg63
(lp3014
g56
(g57
g58
NtRp3015
(dp3016
g61
(dp3017
g69
I3
ssg70
g3011
sg63
(lp3018
S'/'
asbasbasbag56
(g72
g58
NtRp3019
(dp3020
g61
(dp3021
sg70
g2895
sg63
(lp3022
g56
(g77
g58
NtRp3023
(dp3024
g61
(dp3025
g81
g82
ssg70
g3019
sg63
(lp3026
g396
asbag56
(g77
g58
NtRp3027
(dp3028
g61
(dp3029
g88
g89
ssg70
g3019
sg63
(lp3030
S':'
asbag56
(g77
g58
NtRp3031
(dp3032
g61
(dp3033
sg70
g3019
sg63
(lp3034
g56
(g57
g58
NtRp3035
(dp3036
g61
(dp3037
g69
I3
ssg70
g3031
sg63
(lp3038
S''
asbasbasbag56
(g72
g58
NtRp3039
(dp3040
g61
(dp3041
sg70
g2895
sg63
(lp3042
g56
(g77
g58
NtRp3043
(dp3044
g61
(dp3045
g81
g82
ssg70
g3039
sg63
(lp3046
g417
asbag56
(g77
g58
NtRp3047
(dp3048
g61
(dp3049
g88
g89
ssg70
g3039
sg63
(lp3050
S':'
asbag56
(g77
g58
NtRp3051
(dp3052
g61
(dp3053
sg70
g3039
sg63
(lp3054
g56
(g57
g58
NtRp3055
(dp3056
g61
(dp3057
g69
I3
ssg70
g3051
sg63
(lp3058
S''
asbasbasbasbasbasbasbasbasbasbasbag56
(g72
g58
NtRp3059
(dp3060
g61
(dp3061
sg70
g2825
sg63
(lp3062
g56
(g77
g58
NtRp3063
(dp3064
g61
(dp3065
g81
g82
ssg70
g3059
sg63
(lp3066
S'files'
p3067
asbag56
(g77
g58
NtRp3068
(dp3069
g61
(dp3070
g88
g89
ssg70
g3059
sg63
(lp3071
S':'
asbag56
(g77
g58
NtRp3072
(dp3073
g61
(dp3074
sg70
g3059
sg63
(lp3075
g56
(g57
g58
NtRp3076
(dp3077
g61
(dp3078
g69
I5
ssg70
g3072
sg63
(lp3079
g56
(g65
g58
NtRp3080
(dp3081
g61
(dp3082
g69
I4
ssg70
Nsg63
(lp3083
sbasbasbasbag56
(g72
g58
NtRp3084
(dp3085
g61
(dp3086
sg70
g2825
sg63
(lp3087
g56
(g77
g58
NtRp3088
(dp3089
g61
(dp3090
g81
g82
ssg70
g3084
sg63
(lp3091
S'flash'
p3092
asbag56
(g77
g58
NtRp3093
(dp3094
g61
(dp3095
g88
g89
ssg70
g3084
sg63
(lp3096
S':'
asbag56
(g77
g58
NtRp3097
(dp3098
g61
(dp3099
sg70
g3084
sg63
(lp3100
g56
(g57
g58
NtRp3101
(dp3102
g61
(dp3103
g69
I5
ssg70
g3097
sg63
(lp3104
S''
asbasbasbag56
(g72
g58
NtRp3105
(dp3106
g61
(dp3107
sg70
g2825
sg63
(lp3108
g56
(g77
g58
NtRp3109
(dp3110
g61
(dp3111
g81
g82
ssg70
g3105
sg63
(lp3112
S'generic_patterns'
p3113
asbag56
(g77
g58
NtRp3114
(dp3115
g61
(dp3116
g88
g89
ssg70
g3105
sg63
(lp3117
S':'
asbag56
(g77
g58
NtRp3118
(dp3119
g61
(dp3120
sg70
g3105
sg63
(lp3121
g56
(g57
g58
NtRp3122
(dp3123
g61
(dp3124
g69
I5
ssg70
g3118
sg63
(lp3125
g56
(g65
g58
NtRp3126
(dp3127
g61
(dp3128
g69
I4
ssg70
Nsg63
(lp3129
g56
(g72
g58
NtRp3130
(dp3131
g61
(dp3132
sg70
g3126
sg63
(lp3133
g56
(g77
g58
NtRp3134
(dp3135
g61
(dp3136
sg70
g3130
sg63
(lp3137
g56
(g57
g58
NtRp3138
(dp3139
g61
(dp3140
g69
I4
ssg70
g3134
sg63
(lp3141
S'*'
asbasbasbasbasbasbasbag56
(g72
g58
NtRp3142
(dp3143
g61
(dp3144
sg70
g2825
sg63
(lp3145
g56
(g77
g58
NtRp3146
(dp3147
g61
(dp3148
g81
g82
ssg70
g3142
sg63
(lp3149
S'headers'
p3150
asbag56
(g77
g58
NtRp3151
(dp3152
g61
(dp3153
g88
g89
ssg70
g3142
sg63
(lp3154
S':'
asbag56
(g77
g58
NtRp3155
(dp3156
g61
(dp3157
sg70
g3142
sg63
(lp3158
g56
(g57
g58
NtRp3159
(dp3160
g61
(dp3161
g69
I5
ssg70
g3155
sg63
(lp3162
g56
(g65
g58
NtRp3163
(dp3164
g61
(dp3165
g69
I4
ssg70
Nsg63
(lp3166
g56
(g72
g58
NtRp3167
(dp3168
g61
(dp3169
sg70
g3163
sg63
(lp3170
g56
(g77
g58
NtRp3171
(dp3172
g61
(dp3173
g81
g82
ssg70
g3167
sg63
(lp3174
S'Cache-Control'
p3175
asbag56
(g77
g58
NtRp3176
(dp3177
g61
(dp3178
g88
g89
ssg70
g3167
sg63
(lp3179
S':'
asbag56
(g77
g58
NtRp3180
(dp3181
g61
(dp3182
sg70
g3167
sg63
(lp3183
g56
(g57
g58
NtRp3184
(dp3185
g61
(dp3186
g69
I4
ssg70
g3180
sg63
(lp3187
S'no-store, no-cache, must-revalidate, post-check=0, pre-check=0'
p3188
asbasbasbag56
(g72
g58
NtRp3189
(dp3190
g61
(dp3191
sg70
g3163
sg63
(lp3192
g56
(g77
g58
NtRp3193
(dp3194
g61
(dp3195
g81
g82
ssg70
g3189
sg63
(lp3196
S'Content-Type'
p3197
asbag56
(g77
g58
NtRp3198
(dp3199
g61
(dp3200
g88
g89
ssg70
g3189
sg63
(lp3201
S':'
asbag56
(g77
g58
NtRp3202
(dp3203
g61
(dp3204
sg70
g3189
sg63
(lp3205
g56
(g57
g58
NtRp3206
(dp3207
g61
(dp3208
g69
I4
ssg70
g3202
sg63
(lp3209
S'text/html; charset=utf-8'
p3210
asbasbasbag56
(g72
g58
NtRp3211
(dp3212
g61
(dp3213
sg70
g3163
sg63
(lp3214
g56
(g77
g58
NtRp3215
(dp3216
g61
(dp3217
g81
g82
ssg70
g3211
sg63
(lp3218
S'Expires'
p3219
asbag56
(g77
g58
NtRp3220
(dp3221
g61
(dp3222
g88
g89
ssg70
g3211
sg63
(lp3223
S':'
asbag56
(g77
g58
NtRp3224
(dp3225
g61
(dp3226
sg70
g3211
sg63
(lp3227
g56
(g57
g58
NtRp3228
(dp3229
g61
(dp3230
g69
I4
ssg70
g3224
sg63
(lp3231
S'Wed, 07 Sep 2011 10:32:09 GMT'
p3232
asbasbasbag56
(g72
g58
NtRp3233
(dp3234
g61
(dp3235
sg70
g3163
sg63
(lp3236
g56
(g77
g58
NtRp3237
(dp3238
g61
(dp3239
g81
g82
ssg70
g3233
sg63
(lp3240
S'Pragma'
p3241
asbag56
(g77
g58
NtRp3242
(dp3243
g61
(dp3244
g88
g89
ssg70
g3233
sg63
(lp3245
S':'
asbag56
(g77
g58
NtRp3246
(dp3247
g61
(dp3248
sg70
g3233
sg63
(lp3249
g56
(g57
g58
NtRp3250
(dp3251
g61
(dp3252
g69
I4
ssg70
g3246
sg63
(lp3253
S'no-cache'
p3254
asbasbasbag56
(g72
g58
NtRp3255
(dp3256
g61
(dp3257
sg70
g3163
sg63
(lp3258
g56
(g77
g58
NtRp3259
(dp3260
g61
(dp3261
g81
g82
ssg70
g3255
sg63
(lp3262
S'X-Powered-By'
p3263
asbag56
(g77
g58
NtRp3264
(dp3265
g61
(dp3266
g88
g89
ssg70
g3255
sg63
(lp3267
S':'
asbag56
(g77
g58
NtRp3268
(dp3269
g61
(dp3270
sg70
g3255
sg63
(lp3271
g56
(g57
g58
NtRp3272
(dp3273
g61
(dp3274
g69
I4
ssg70
g3268
sg63
(lp3275
S'web2py'
p3276
asbasbasbasbasbasbasbag56
(g72
g58
NtRp3277
(dp3278
g61
(dp3279
sg70
g2825
sg63
(lp3280
g56
(g77
g58
NtRp3281
(dp3282
g61
(dp3283
g81
g82
ssg70
g3277
sg63
(lp3284
S'menu'
p3285
asbag56
(g77
g58
NtRp3286
(dp3287
g61
(dp3288
g88
g89
ssg70
g3277
sg63
(lp3289
S':'
asbag56
(g77
g58
NtRp3290
(dp3291
g61
(dp3292
sg70
g3277
sg63
(lp3293
g56
(g57
g58
NtRp3294
(dp3295
g61
(dp3296
g69
I5
ssg70
g3290
sg63
(lp3297
g56
(g65
g58
NtRp3298
(dp3299
g61
(dp3300
g69
I4
ssg70
Nsg63
(lp3301
g56
(g72
g58
NtRp3302
(dp3303
g61
(dp3304
sg70
g3298
sg63
(lp3305
g56
(g77
g58
NtRp3306
(dp3307
g61
(dp3308
sg70
g3302
sg63
(lp3309
g56
(g57
g58
NtRp3310
(dp3311
g61
(dp3312
g69
I4
ssg70
g3306
sg63
(lp3313
g56
(g65
g58
NtRp3314
(dp3315
g61
(dp3316
g69
I3
ssg70
Nsg63
(lp3317
g56
(g72
g58
NtRp3318
(dp3319
g61
(dp3320
sg70
g3314
sg63
(lp3321
g56
(g77
g58
NtRp3322
(dp3323
g61
(dp3324
sg70
g3318
sg63
(lp3325
g56
(g57
g58
NtRp3326
(dp3327
g61
(dp3328
g69
I3
ssg70
g3322
sg63
(lp3329
cgluon.languages
lazyT_unpickle
p3330
(S's\x04\x00\x00\x00Home'
tRp3331
asbasbasbag56
(g72
g58
NtRp3332
(dp3333
g61
(dp3334
sg70
g3314
sg63
(lp3335
g56
(g77
g58
NtRp3336
(dp3337
g61
(dp3338
sg70
g3332
sg63
(lp3339
g56
(g57
g58
NtRp3340
(dp3341
g61
(dp3342
g69
I3
ssg70
g3336
sg63
(lp3343
g99
asbasbasbag56
(g72
g58
NtRp3344
(dp3345
g61
(dp3346
sg70
g3314
sg63
(lp3347
g56
(g77
g58
NtRp3348
(dp3349
g61
(dp3350
sg70
g3344
sg63
(lp3351
g56
(g57
g58
NtRp3352
(dp3353
g61
(dp3354
g69
I3
ssg70
g3348
sg63
(lp3355
S'/Music_Repo/default/index'
p3356
asbasbasbag56
(g72
g58
NtRp3357
(dp3358
g61
(dp3359
sg70
g3314
sg63
(lp3360
g56
(g77
g58
NtRp3361
(dp3362
g61
(dp3363
sg70
g3357
sg63
(lp3364
g56
(g57
g58
NtRp3365
(dp3366
g61
(dp3367
g69
I3
ssg70
g3361
sg63
(lp3368
g56
(g65
g58
NtRp3369
(dp3370
g61
(dp3371
g69
I2
ssg70
Nsg63
(lp3372
sbasbasbasbasbasbasbasbag56
(g72
g58
NtRp3373
(dp3374
g61
(dp3375
sg70
g3298
sg63
(lp3376
g56
(g77
g58
NtRp3377
(dp3378
g61
(dp3379
sg70
g3373
sg63
(lp3380
g56
(g57
g58
NtRp3381
(dp3382
g61
(dp3383
g69
I4
ssg70
g3377
sg63
(lp3384
g56
(g65
g58
NtRp3385
(dp3386
g61
(dp3387
g69
I3
ssg70
Nsg63
(lp3388
g56
(g72
g58
NtRp3389
(dp3390
g61
(dp3391
sg70
g3385
sg63
(lp3392
g56
(g77
g58
NtRp3393
(dp3394
g61
(dp3395
sg70
g3389
sg63
(lp3396
g56
(g57
g58
NtRp3397
(dp3398
g61
(dp3399
g69
I3
ssg70
g3393
sg63
(lp3400
g3330
(S's\x08\x00\x00\x00This App'
tRp3401
asbasbasbag56
(g72
g58
NtRp3402
(dp3403
g61
(dp3404
sg70
g3385
sg63
(lp3405
g56
(g77
g58
NtRp3406
(dp3407
g61
(dp3408
sg70
g3402
sg63
(lp3409
g56
(g57
g58
NtRp3410
(dp3411
g61
(dp3412
g69
I3
ssg70
g3406
sg63
(lp3413
g99
asbasbasbag56
(g72
g58
NtRp3414
(dp3415
g61
(dp3416
sg70
g3385
sg63
(lp3417
g56
(g77
g58
NtRp3418
(dp3419
g61
(dp3420
sg70
g3414
sg63
(lp3421
g56
(g57
g58
NtRp3422
(dp3423
g61
(dp3424
g69
I3
ssg70
g3418
sg63
(lp3425
S'/admin/default/design/Music_Repo'
p3426
asbasbasbag56
(g72
g58
NtRp3427
(dp3428
g61
(dp3429
sg70
g3385
sg63
(lp3430
g56
(g77
g58
NtRp3431
(dp3432
g61
(dp3433
sg70
g3427
sg63
(lp3434
g56
(g57
g58
NtRp3435
(dp3436
g61
(dp3437
g69
I3
ssg70
g3431
sg63
(lp3438
g56
(g65
g58
NtRp3439
(dp3440
g61
(dp3441
g69
I2
ssg70
Nsg63
(lp3442
g56
(g72
g58
NtRp3443
(dp3444
g61
(dp3445
sg70
g3439
sg63
(lp3446
g56
(g77
g58
NtRp3447
(dp3448
g61
(dp3449
sg70
g3443
sg63
(lp3450
g56
(g57
g58
NtRp3451
(dp3452
g61
(dp3453
g69
I2
ssg70
g3447
sg63
(lp3454
g56
(g65
g58
NtRp3455
(dp3456
g61
(dp3457
g69
I1
ssg70
Nsg63
(lp3458
g56
(g72
g58
NtRp3459
(dp3460
g61
(dp3461
sg70
g3455
sg63
(lp3462
g56
(g77
g58
NtRp3463
(dp3464
g61
(dp3465
sg70
g3459
sg63
(lp3466
g56
(g57
g58
NtRp3467
(dp3468
g61
(dp3469
g69
I1
ssg70
g3463
sg63
(lp3470
g3330
(S's\n\x00\x00\x00Controller'
tRp3471
asbasbasbag56
(g72
g58
NtRp3472
(dp3473
g61
(dp3474
sg70
g3455
sg63
(lp3475
g56
(g77
g58
NtRp3476
(dp3477
g61
(dp3478
sg70
g3472
sg63
(lp3479
g56
(g57
g58
NtRp3480
(dp3481
g61
(dp3482
g69
I1
ssg70
g3476
sg63
(lp3483
I00
asbasbasbag56
(g72
g58
NtRp3484
(dp3485
g61
(dp3486
sg70
g3455
sg63
(lp3487
g56
(g77
g58
NtRp3488
(dp3489
g61
(dp3490
sg70
g3484
sg63
(lp3491
g56
(g57
g58
NtRp3492
(dp3493
g61
(dp3494
g69
I1
ssg70
g3488
sg63
(lp3495
S'/admin/default/edit/Music_Repo/controllers/default.py'
p3496
asbasbasbasbasbasbasbag56
(g72
g58
NtRp3497
(dp3498
g61
(dp3499
sg70
g3439
sg63
(lp3500
g56
(g77
g58
NtRp3501
(dp3502
g61
(dp3503
sg70
g3497
sg63
(lp3504
g56
(g57
g58
NtRp3505
(dp3506
g61
(dp3507
g69
I2
ssg70
g3501
sg63
(lp3508
g56
(g65
g58
NtRp3509
(dp3510
g61
(dp3511
g69
I1
ssg70
Nsg63
(lp3512
g56
(g72
g58
NtRp3513
(dp3514
g61
(dp3515
sg70
g3509
sg63
(lp3516
g56
(g77
g58
NtRp3517
(dp3518
g61
(dp3519
sg70
g3513
sg63
(lp3520
g56
(g57
g58
NtRp3521
(dp3522
g61
(dp3523
g69
I1
ssg70
g3517
sg63
(lp3524
g3330
(S's\x04\x00\x00\x00View'
tRp3525
asbasbasbag56
(g72
g58
NtRp3526
(dp3527
g61
(dp3528
sg70
g3509
sg63
(lp3529
g56
(g77
g58
NtRp3530
(dp3531
g61
(dp3532
sg70
g3526
sg63
(lp3533
g56
(g57
g58
NtRp3534
(dp3535
g61
(dp3536
g69
I1
ssg70
g3530
sg63
(lp3537
I00
asbasbasbag56
(g72
g58
NtRp3538
(dp3539
g61
(dp3540
sg70
g3509
sg63
(lp3541
g56
(g77
g58
NtRp3542
(dp3543
g61
(dp3544
sg70
g3538
sg63
(lp3545
g56
(g57
g58
NtRp3546
(dp3547
g61
(dp3548
g69
I1
ssg70
g3542
sg63
(lp3549
S'/admin/default/edit/Music_Repo/views/default/display_details.html'
p3550
asbasbasbasbasbasbasbag56
(g72
g58
NtRp3551
(dp3552
g61
(dp3553
sg70
g3439
sg63
(lp3554
g56
(g77
g58
NtRp3555
(dp3556
g61
(dp3557
sg70
g3551
sg63
(lp3558
g56
(g57
g58
NtRp3559
(dp3560
g61
(dp3561
g69
I2
ssg70
g3555
sg63
(lp3562
g56
(g65
g58
NtRp3563
(dp3564
g61
(dp3565
g69
I1
ssg70
Nsg63
(lp3566
g56
(g72
g58
NtRp3567
(dp3568
g61
(dp3569
sg70
g3563
sg63
(lp3570
g56
(g77
g58
NtRp3571
(dp3572
g61
(dp3573
sg70
g3567
sg63
(lp3574
g56
(g57
g58
NtRp3575
(dp3576
g61
(dp3577
g69
I1
ssg70
g3571
sg63
(lp3578
g3330
(S's\x06\x00\x00\x00Layout'
tRp3579
asbasbasbag56
(g72
g58
NtRp3580
(dp3581
g61
(dp3582
sg70
g3563
sg63
(lp3583
g56
(g77
g58
NtRp3584
(dp3585
g61
(dp3586
sg70
g3580
sg63
(lp3587
g56
(g57
g58
NtRp3588
(dp3589
g61
(dp3590
g69
I1
ssg70
g3584
sg63
(lp3591
I00
asbasbasbag56
(g72
g58
NtRp3592
(dp3593
g61
(dp3594
sg70
g3563
sg63
(lp3595
g56
(g77
g58
NtRp3596
(dp3597
g61
(dp3598
sg70
g3592
sg63
(lp3599
g56
(g57
g58
NtRp3600
(dp3601
g61
(dp3602
g69
I1
ssg70
g3596
sg63
(lp3603
S'/admin/default/edit/Music_Repo/views/layout.html'
p3604
asbasbasbasbasbasbasbag56
(g72
g58
NtRp3605
(dp3606
g61
(dp3607
sg70
g3439
sg63
(lp3608
g56
(g77
g58
NtRp3609
(dp3610
g61
(dp3611
sg70
g3605
sg63
(lp3612
g56
(g57
g58
NtRp3613
(dp3614
g61
(dp3615
g69
I2
ssg70
g3609
sg63
(lp3616
g56
(g65
g58
NtRp3617
(dp3618
g61
(dp3619
g69
I1
ssg70
Nsg63
(lp3620
g56
(g72
g58
NtRp3621
(dp3622
g61
(dp3623
sg70
g3617
sg63
(lp3624
g56
(g77
g58
NtRp3625
(dp3626
g61
(dp3627
sg70
g3621
sg63
(lp3628
g56
(g57
g58
NtRp3629
(dp3630
g61
(dp3631
g69
I1
ssg70
g3625
sg63
(lp3632
g3330
(S's\n\x00\x00\x00Stylesheet'
tRp3633
asbasbasbag56
(g72
g58
NtRp3634
(dp3635
g61
(dp3636
sg70
g3617
sg63
(lp3637
g56
(g77
g58
NtRp3638
(dp3639
g61
(dp3640
sg70
g3634
sg63
(lp3641
g56
(g57
g58
NtRp3642
(dp3643
g61
(dp3644
g69
I1
ssg70
g3638
sg63
(lp3645
I00
asbasbasbag56
(g72
g58
NtRp3646
(dp3647
g61
(dp3648
sg70
g3617
sg63
(lp3649
g56
(g77
g58
NtRp3650
(dp3651
g61
(dp3652
sg70
g3646
sg63
(lp3653
g56
(g57
g58
NtRp3654
(dp3655
g61
(dp3656
g69
I1
ssg70
g3650
sg63
(lp3657
S'/admin/default/edit/Music_Repo/static/base.css'
p3658
asbasbasbasbasbasbasbag56
(g72
g58
NtRp3659
(dp3660
g61
(dp3661
sg70
g3439
sg63
(lp3662
g56
(g77
g58
NtRp3663
(dp3664
g61
(dp3665
sg70
g3659
sg63
(lp3666
g56
(g57
g58
NtRp3667
(dp3668
g61
(dp3669
g69
I2
ssg70
g3663
sg63
(lp3670
g56
(g65
g58
NtRp3671
(dp3672
g61
(dp3673
g69
I1
ssg70
Nsg63
(lp3674
g56
(g72
g58
NtRp3675
(dp3676
g61
(dp3677
sg70
g3671
sg63
(lp3678
g56
(g77
g58
NtRp3679
(dp3680
g61
(dp3681
sg70
g3675
sg63
(lp3682
g56
(g57
g58
NtRp3683
(dp3684
g61
(dp3685
g69
I1
ssg70
g3679
sg63
(lp3686
g3330
(S's\x08\x00\x00\x00DB Model'
tRp3687
asbasbasbag56
(g72
g58
NtRp3688
(dp3689
g61
(dp3690
sg70
g3671
sg63
(lp3691
g56
(g77
g58
NtRp3692
(dp3693
g61
(dp3694
sg70
g3688
sg63
(lp3695
g56
(g57
g58
NtRp3696
(dp3697
g61
(dp3698
g69
I1
ssg70
g3692
sg63
(lp3699
I00
asbasbasbag56
(g72
g58
NtRp3700
(dp3701
g61
(dp3702
sg70
g3671
sg63
(lp3703
g56
(g77
g58
NtRp3704
(dp3705
g61
(dp3706
sg70
g3700
sg63
(lp3707
g56
(g57
g58
NtRp3708
(dp3709
g61
(dp3710
g69
I1
ssg70
g3704
sg63
(lp3711
S'/admin/default/edit/Music_Repo/models/db.py'
p3712
asbasbasbasbasbasbasbag56
(g72
g58
NtRp3713
(dp3714
g61
(dp3715
sg70
g3439
sg63
(lp3716
g56
(g77
g58
NtRp3717
(dp3718
g61
(dp3719
sg70
g3713
sg63
(lp3720
g56
(g57
g58
NtRp3721
(dp3722
g61
(dp3723
g69
I2
ssg70
g3717
sg63
(lp3724
g56
(g65
g58
NtRp3725
(dp3726
g61
(dp3727
g69
I1
ssg70
Nsg63
(lp3728
g56
(g72
g58
NtRp3729
(dp3730
g61
(dp3731
sg70
g3725
sg63
(lp3732
g56
(g77
g58
NtRp3733
(dp3734
g61
(dp3735
sg70
g3729
sg63
(lp3736
g56
(g57
g58
NtRp3737
(dp3738
g61
(dp3739
g69
I1
ssg70
g3733
sg63
(lp3740
g3330
(S's\n\x00\x00\x00Menu Model'
tRp3741
asbasbasbag56
(g72
g58
NtRp3742
(dp3743
g61
(dp3744
sg70
g3725
sg63
(lp3745
g56
(g77
g58
NtRp3746
(dp3747
g61
(dp3748
sg70
g3742
sg63
(lp3749
g56
(g57
g58
NtRp3750
(dp3751
g61
(dp3752
g69
I1
ssg70
g3746
sg63
(lp3753
I00
asbasbasbag56
(g72
g58
NtRp3754
(dp3755
g61
(dp3756
sg70
g3725
sg63
(lp3757
g56
(g77
g58
NtRp3758
(dp3759
g61
(dp3760
sg70
g3754
sg63
(lp3761
g56
(g57
g58
NtRp3762
(dp3763
g61
(dp3764
g69
I1
ssg70
g3758
sg63
(lp3765
S'/admin/default/edit/Music_Repo/models/menu.py'
p3766
asbasbasbasbasbasbasbag56
(g72
g58
NtRp3767
(dp3768
g61
(dp3769
sg70
g3439
sg63
(lp3770
g56
(g77
g58
NtRp3771
(dp3772
g61
(dp3773
sg70
g3767
sg63
(lp3774
g56
(g57
g58
NtRp3775
(dp3776
g61
(dp3777
g69
I2
ssg70
g3771
sg63
(lp3778
g56
(g65
g58
NtRp3779
(dp3780
g61
(dp3781
g69
I1
ssg70
Nsg63
(lp3782
g56
(g72
g58
NtRp3783
(dp3784
g61
(dp3785
sg70
g3779
sg63
(lp3786
g56
(g77
g58
NtRp3787
(dp3788
g61
(dp3789
sg70
g3783
sg63
(lp3790
g56
(g57
g58
NtRp3791
(dp3792
g61
(dp3793
g69
I1
ssg70
g3787
sg63
(lp3794
g3330
(S's\x08\x00\x00\x00Database'
tRp3795
asbasbasbag56
(g72
g58
NtRp3796
(dp3797
g61
(dp3798
sg70
g3779
sg63
(lp3799
g56
(g77
g58
NtRp3800
(dp3801
g61
(dp3802
sg70
g3796
sg63
(lp3803
g56
(g57
g58
NtRp3804
(dp3805
g61
(dp3806
g69
I1
ssg70
g3800
sg63
(lp3807
I00
asbasbasbag56
(g72
g58
NtRp3808
(dp3809
g61
(dp3810
sg70
g3779
sg63
(lp3811
g56
(g77
g58
NtRp3812
(dp3813
g61
(dp3814
sg70
g3808
sg63
(lp3815
g56
(g57
g58
NtRp3816
(dp3817
g61
(dp3818
g69
I1
ssg70
g3812
sg63
(lp3819
S'/Music_Repo/appadmin/index'
p3820
asbasbasbasbasbasbasbag56
(g72
g58
NtRp3821
(dp3822
g61
(dp3823
sg70
g3439
sg63
(lp3824
g56
(g77
g58
NtRp3825
(dp3826
g61
(dp3827
sg70
g3821
sg63
(lp3828
g56
(g57
g58
NtRp3829
(dp3830
g61
(dp3831
g69
I2
ssg70
g3825
sg63
(lp3832
g56
(g65
g58
NtRp3833
(dp3834
g61
(dp3835
g69
I1
ssg70
Nsg63
(lp3836
g56
(g72
g58
NtRp3837
(dp3838
g61
(dp3839
sg70
g3833
sg63
(lp3840
g56
(g77
g58
NtRp3841
(dp3842
g61
(dp3843
sg70
g3837
sg63
(lp3844
g56
(g57
g58
NtRp3845
(dp3846
g61
(dp3847
g69
I1
ssg70
g3841
sg63
(lp3848
g3330
(S's\x06\x00\x00\x00Errors'
tRp3849
asbasbasbag56
(g72
g58
NtRp3850
(dp3851
g61
(dp3852
sg70
g3833
sg63
(lp3853
g56
(g77
g58
NtRp3854
(dp3855
g61
(dp3856
sg70
g3850
sg63
(lp3857
g56
(g57
g58
NtRp3858
(dp3859
g61
(dp3860
g69
I1
ssg70
g3854
sg63
(lp3861
I00
asbasbasbag56
(g72
g58
NtRp3862
(dp3863
g61
(dp3864
sg70
g3833
sg63
(lp3865
g56
(g77
g58
NtRp3866
(dp3867
g61
(dp3868
sg70
g3862
sg63
(lp3869
g56
(g57
g58
NtRp3870
(dp3871
g61
(dp3872
g69
I1
ssg70
g3866
sg63
(lp3873
S'/admin/default/errors/Music_Repo'
p3874
asbasbasbasbasbasbasbag56
(g72
g58
NtRp3875
(dp3876
g61
(dp3877
sg70
g3439
sg63
(lp3878
g56
(g77
g58
NtRp3879
(dp3880
g61
(dp3881
sg70
g3875
sg63
(lp3882
g56
(g57
g58
NtRp3883
(dp3884
g61
(dp3885
g69
I2
ssg70
g3879
sg63
(lp3886
g56
(g65
g58
NtRp3887
(dp3888
g61
(dp3889
g69
I1
ssg70
Nsg63
(lp3890
g56
(g72
g58
NtRp3891
(dp3892
g61
(dp3893
sg70
g3887
sg63
(lp3894
g56
(g77
g58
NtRp3895
(dp3896
g61
(dp3897
sg70
g3891
sg63
(lp3898
g56
(g57
g58
NtRp3899
(dp3900
g61
(dp3901
g69
I1
ssg70
g3895
sg63
(lp3902
g3330
(S's\x05\x00\x00\x00About'
tRp3903
asbasbasbag56
(g72
g58
NtRp3904
(dp3905
g61
(dp3906
sg70
g3887
sg63
(lp3907
g56
(g77
g58
NtRp3908
(dp3909
g61
(dp3910
sg70
g3904
sg63
(lp3911
g56
(g57
g58
NtRp3912
(dp3913
g61
(dp3914
g69
I1
ssg70
g3908
sg63
(lp3915
I00
asbasbasbag56
(g72
g58
NtRp3916
(dp3917
g61
(dp3918
sg70
g3887
sg63
(lp3919
g56
(g77
g58
NtRp3920
(dp3921
g61
(dp3922
sg70
g3916
sg63
(lp3923
g56
(g57
g58
NtRp3924
(dp3925
g61
(dp3926
g69
I1
ssg70
g3920
sg63
(lp3927
S'/admin/default/about/Music_Repo'
p3928
asbasbasbasbasbasbasbasbasbasbasbasbasbasbasbag56
(g72
g58
NtRp3929
(dp3930
g61
(dp3931
sg70
g3298
sg63
(lp3932
g56
(g77
g58
NtRp3933
(dp3934
g61
(dp3935
sg70
g3929
sg63
(lp3936
g56
(g57
g58
NtRp3937
(dp3938
g61
(dp3939
g69
I4
ssg70
g3933
sg63
(lp3940
g56
(g65
g58
NtRp3941
(dp3942
g61
(dp3943
g69
I3
ssg70
Nsg63
(lp3944
g56
(g72
g58
NtRp3945
(dp3946
g61
(dp3947
sg70
g3941
sg63
(lp3948
g56
(g77
g58
NtRp3949
(dp3950
g61
(dp3951
sg70
g3945
sg63
(lp3952
g56
(g57
g58
NtRp3953
(dp3954
g61
(dp3955
g69
I3
ssg70
g3949
sg63
(lp3956
g3330
(S's\t\x00\x00\x00Resources'
tRp3957
asbasbasbag56
(g72
g58
NtRp3958
(dp3959
g61
(dp3960
sg70
g3941
sg63
(lp3961
g56
(g77
g58
NtRp3962
(dp3963
g61
(dp3964
sg70
g3958
sg63
(lp3965
g56
(g57
g58
NtRp3966
(dp3967
g61
(dp3968
g69
I3
ssg70
g3962
sg63
(lp3969
g99
asbasbasbag56
(g72
g58
NtRp3970
(dp3971
g61
(dp3972
sg70
g3941
sg63
(lp3973
g56
(g77
g58
NtRp3974
(dp3975
g61
(dp3976
sg70
g3970
sg63
(lp3977
g56
(g57
g58
NtRp3978
(dp3979
g61
(dp3980
g69
I3
ssg70
g3974
sg63
(lp3981
S'None'
p3982
asbasbasbag56
(g72
g58
NtRp3983
(dp3984
g61
(dp3985
sg70
g3941
sg63
(lp3986
g56
(g77
g58
NtRp3987
(dp3988
g61
(dp3989
sg70
g3983
sg63
(lp3990
g56
(g57
g58
NtRp3991
(dp3992
g61
(dp3993
g69
I3
ssg70
g3987
sg63
(lp3994
g56
(g65
g58
NtRp3995
(dp3996
g61
(dp3997
g69
I2
ssg70
Nsg63
(lp3998
g56
(g72
g58
NtRp3999
(dp4000
g61
(dp4001
sg70
g3995
sg63
(lp4002
g56
(g77
g58
NtRp4003
(dp4004
g61
(dp4005
sg70
g3999
sg63
(lp4006
g56
(g57
g58
NtRp4007
(dp4008
g61
(dp4009
g69
I2
ssg70
g4003
sg63
(lp4010
g56
(g65
g58
NtRp4011
(dp4012
g61
(dp4013
g69
I1
ssg70
Nsg63
(lp4014
g56
(g72
g58
NtRp4015
(dp4016
g61
(dp4017
sg70
g4011
sg63
(lp4018
g56
(g77
g58
NtRp4019
(dp4020
g61
(dp4021
sg70
g4015
sg63
(lp4022
g56
(g57
g58
NtRp4023
(dp4024
g61
(dp4025
g69
I1
ssg70
g4019
sg63
(lp4026
g3330
(S's\r\x00\x00\x00Documentation'
tRp4027
asbasbasbag56
(g72
g58
NtRp4028
(dp4029
g61
(dp4030
sg70
g4011
sg63
(lp4031
g56
(g77
g58
NtRp4032
(dp4033
g61
(dp4034
sg70
g4028
sg63
(lp4035
g56
(g57
g58
NtRp4036
(dp4037
g61
(dp4038
g69
I1
ssg70
g4032
sg63
(lp4039
I00
asbasbasbag56
(g72
g58
NtRp4040
(dp4041
g61
(dp4042
sg70
g4011
sg63
(lp4043
g56
(g77
g58
NtRp4044
(dp4045
g61
(dp4046
sg70
g4040
sg63
(lp4047
g56
(g57
g58
NtRp4048
(dp4049
g61
(dp4050
g69
I1
ssg70
g4044
sg63
(lp4051
S'http://www.web2py.com/book'
p4052
asbasbasbag56
(g72
g58
NtRp4053
(dp4054
g61
(dp4055
sg70
g4011
sg63
(lp4056
g56
(g77
g58
NtRp4057
(dp4058
g61
(dp4059
sg70
g4053
sg63
(lp4060
g56
(g57
g58
NtRp4061
(dp4062
g61
(dp4063
g69
I1
ssg70
g4057
sg63
(lp4064
(lp4065
(g3330
(S's\x07\x00\x00\x00Preface'
tRp4066
I00
S'http://www.web2py.com/book/default/chapter/00'
tp4067
a(g3330
(S's\x0c\x00\x00\x00Introduction'
tRp4068
I00
S'http://www.web2py.com/book/default/chapter/01'
tp4069
a(g3330
(S's\x06\x00\x00\x00Python'
tRp4070
I00
S'http://www.web2py.com/book/default/chapter/02'
tp4071
a(g3330
(S's\x08\x00\x00\x00Overview'
tRp4072
I00
S'http://www.web2py.com/book/default/chapter/03'
tp4073
a(g3330
(S's\x08\x00\x00\x00The Core'
tRp4074
I00
S'http://www.web2py.com/book/default/chapter/04'
tp4075
a(g3330
(S's\t\x00\x00\x00The Views'
tRp4076
I00
S'http://www.web2py.com/book/default/chapter/05'
tp4077
a(g3330
(S's\x08\x00\x00\x00Database'
tRp4078
I00
S'http://www.web2py.com/book/default/chapter/06'
tp4079
a(g3330
(S's\x14\x00\x00\x00Forms and Validators'
tRp4080
I00
S'http://www.web2py.com/book/default/chapter/07'
tp4081
a(g3330
(S's\x0e\x00\x00\x00Access Control'
tRp4082
I00
S'http://www.web2py.com/book/default/chapter/08'
tp4083
a(g3330
(S's\x08\x00\x00\x00Services'
tRp4084
I00
S'http://www.web2py.com/book/default/chapter/09'
tp4085
a(g3330
(S's\x0c\x00\x00\x00Ajax Recipes'
tRp4086
I00
S'http://www.web2py.com/book/default/chapter/10'
tp4087
a(g3330
(S's\x12\x00\x00\x00Deployment Recipes'
tRp4088
I00
S'http://www.web2py.com/book/default/chapter/11'
tp4089
a(g3330
(S's\r\x00\x00\x00Other Recipes'
tRp4090
I00
S'http://www.web2py.com/book/default/chapter/12'
tp4091
a(g3330
(S's\r\x00\x00\x00Buy this book'
tRp4092
I00
S'http://stores.lulu.com/web2py'
tp4093
aasbasbasbasbasbasbasbag56
(g72
g58
NtRp4094
(dp4095
g61
(dp4096
sg70
g3995
sg63
(lp4097
g56
(g77
g58
NtRp4098
(dp4099
g61
(dp4100
sg70
g4094
sg63
(lp4101
g56
(g57
g58
NtRp4102
(dp4103
g61
(dp4104
g69
I2
ssg70
g4098
sg63
(lp4105
g56
(g65
g58
NtRp4106
(dp4107
g61
(dp4108
g69
I1
ssg70
Nsg63
(lp4109
g56
(g72
g58
NtRp4110
(dp4111
g61
(dp4112
sg70
g4106
sg63
(lp4113
g56
(g77
g58
NtRp4114
(dp4115
g61
(dp4116
sg70
g4110
sg63
(lp4117
g56
(g57
g58
NtRp4118
(dp4119
g61
(dp4120
g69
I1
ssg70
g4114
sg63
(lp4121
g3330
(S's\t\x00\x00\x00Community'
tRp4122
asbasbasbag56
(g72
g58
NtRp4123
(dp4124
g61
(dp4125
sg70
g4106
sg63
(lp4126
g56
(g77
g58
NtRp4127
(dp4128
g61
(dp4129
sg70
g4123
sg63
(lp4130
g56
(g57
g58
NtRp4131
(dp4132
g61
(dp4133
g69
I1
ssg70
g4127
sg63
(lp4134
I00
asbasbasbag56
(g72
g58
NtRp4135
(dp4136
g61
(dp4137
sg70
g4106
sg63
(lp4138
g56
(g77
g58
NtRp4139
(dp4140
g61
(dp4141
sg70
g4135
sg63
(lp4142
g56
(g57
g58
NtRp4143
(dp4144
g61
(dp4145
g69
I1
ssg70
g4139
sg63
(lp4146
Nasbasbasbag56
(g72
g58
NtRp4147
(dp4148
g61
(dp4149
sg70
g4106
sg63
(lp4150
g56
(g77
g58
NtRp4151
(dp4152
g61
(dp4153
sg70
g4147
sg63
(lp4154
g56
(g57
g58
NtRp4155
(dp4156
g61
(dp4157
g69
I1
ssg70
g4151
sg63
(lp4158
(lp4159
(g3330
(S's\x06\x00\x00\x00Groups'
tRp4160
I00
S'http://www.web2py.com/examples/default/usergroups'
tp4161
a(g3330
(S's\x07\x00\x00\x00Twitter'
tRp4162
I00
S'http://twitter.com/web2py'
tp4163
a(g3330
(S's\t\x00\x00\x00Live chat'
tRp4164
I00
S'http://mibbit.com/?channel=%23web2py&server=irc.mibbit.net'
tp4165
a(g3330
(S's\n\x00\x00\x00User Voice'
tRp4166
I00
S'http://web2py.uservoice.com/'
tp4167
aasbasbasbasbasbasbasbag56
(g72
g58
NtRp4168
(dp4169
g61
(dp4170
sg70
g3995
sg63
(lp4171
g56
(g77
g58
NtRp4172
(dp4173
g61
(dp4174
sg70
g4168
sg63
(lp4175
g56
(g57
g58
NtRp4176
(dp4177
g61
(dp4178
g69
I2
ssg70
g4172
sg63
(lp4179
g56
(g65
g58
NtRp4180
(dp4181
g61
(dp4182
g69
I1
ssg70
Nsg63
(lp4183
g56
(g72
g58
NtRp4184
(dp4185
g61
(dp4186
sg70
g4180
sg63
(lp4187
g56
(g77
g58
NtRp4188
(dp4189
g61
(dp4190
sg70
g4184
sg63
(lp4191
g56
(g57
g58
NtRp4192
(dp4193
g61
(dp4194
g69
I1
ssg70
g4188
sg63
(lp4195
g3330
(S's\x06\x00\x00\x00Web2py'
tRp4196
asbasbasbag56
(g72
g58
NtRp4197
(dp4198
g61
(dp4199
sg70
g4180
sg63
(lp4200
g56
(g77
g58
NtRp4201
(dp4202
g61
(dp4203
sg70
g4197
sg63
(lp4204
g56
(g57
g58
NtRp4205
(dp4206
g61
(dp4207
g69
I1
ssg70
g4201
sg63
(lp4208
I00
asbasbasbag56
(g72
g58
NtRp4209
(dp4210
g61
(dp4211
sg70
g4180
sg63
(lp4212
g56
(g77
g58
NtRp4213
(dp4214
g61
(dp4215
sg70
g4209
sg63
(lp4216
g56
(g57
g58
NtRp4217
(dp4218
g61
(dp4219
g69
I1
ssg70
g4213
sg63
(lp4220
S'http://www.web2py.com'
p4221
asbasbasbag56
(g72
g58
NtRp4222
(dp4223
g61
(dp4224
sg70
g4180
sg63
(lp4225
g56
(g77
g58
NtRp4226
(dp4227
g61
(dp4228
sg70
g4222
sg63
(lp4229
g56
(g57
g58
NtRp4230
(dp4231
g61
(dp4232
g69
I1
ssg70
g4226
sg63
(lp4233
(lp4234
(g3330
(S's\x08\x00\x00\x00Download'
tRp4235
I00
S'http://www.web2py.com/examples/default/download'
tp4236
a(g3330
(S's\x07\x00\x00\x00Support'
tRp4237
I00
S'http://www.web2py.com/examples/default/support'
tp4238
a(g3330
(S's\x0e\x00\x00\x00Quick Examples'
tRp4239
I00
S'http://web2py.com/examples/default/examples'
tp4240
a(g3330
(S's\x03\x00\x00\x00FAQ'
tRp4241
I00
S'http://web2py.com/AlterEgo'
tp4242
a(g3330
(S's\x11\x00\x00\x00Free Applications'
tRp4243
I00
S'http://web2py.com/appliances'
tp4244
a(g3330
(S's\x07\x00\x00\x00Plugins'
tRp4245
I00
S'http://web2py.com/plugins'
tp4246
a(g3330
(S's\x07\x00\x00\x00Recipes'
tRp4247
I00
S'http://web2pyslices.com/'
tp4248
a(g3330
(S's\x04\x00\x00\x00Demo'
tRp4249
I00
S'http://web2py.com/demo_admin'
tp4250
a(g3330
(S's\x08\x00\x00\x00Semantic'
tRp4251
I00
S'http://web2py.com/semantic'
tp4252
a(g3330
(S's\x07\x00\x00\x00Layouts'
tRp4253
I00
S'http://web2py.com/layouts'
tp4254
a(g3330
(S's\x06\x00\x00\x00Videos'
tRp4255
I00
S'http://www.web2py.com/examples/default/videos/'
tp4256
aasbasbasbasbasbasbasbasbasbasbasbasbasbasbasbasbasbasbasbag56
(g72
g58
NtRp4257
(dp4258
g61
(dp4259
sg70
g2825
sg63
(lp4260
g56
(g77
g58
NtRp4261
(dp4262
g61
(dp4263
g81
g82
ssg70
g4257
sg63
(lp4264
S'meta'
p4265
asbag56
(g77
g58
NtRp4266
(dp4267
g61
(dp4268
g88
g89
ssg70
g4257
sg63
(lp4269
S':'
asbag56
(g77
g58
NtRp4270
(dp4271
g61
(dp4272
sg70
g4257
sg63
(lp4273
g56
(g57
g58
NtRp4274
(dp4275
g61
(dp4276
g69
I5
ssg70
g4270
sg63
(lp4277
g56
(g65
g58
NtRp4278
(dp4279
g61
(dp4280
g69
I4
ssg70
Nsg63
(lp4281
g56
(g72
g58
NtRp4282
(dp4283
g61
(dp4284
sg70
g4278
sg63
(lp4285
g56
(g77
g58
NtRp4286
(dp4287
g61
(dp4288
g81
g82
ssg70
g4282
sg63
(lp4289
S'author'
p4290
asbag56
(g77
g58
NtRp4291
(dp4292
g61
(dp4293
g88
g89
ssg70
g4282
sg63
(lp4294
S':'
asbag56
(g77
g58
NtRp4295
(dp4296
g61
(dp4297
sg70
g4282
sg63
(lp4298
g56
(g57
g58
NtRp4299
(dp4300
g61
(dp4301
g69
I4
ssg70
g4295
sg63
(lp4302
S'you'
p4303
asbasbasbag56
(g72
g58
NtRp4304
(dp4305
g61
(dp4306
sg70
g4278
sg63
(lp4307
g56
(g77
g58
NtRp4308
(dp4309
g61
(dp4310
g81
g82
ssg70
g4304
sg63
(lp4311
S'copyright'
p4312
asbag56
(g77
g58
NtRp4313
(dp4314
g61
(dp4315
g88
g89
ssg70
g4304
sg63
(lp4316
S':'
asbag56
(g77
g58
NtRp4317
(dp4318
g61
(dp4319
sg70
g4304
sg63
(lp4320
g56
(g57
g58
NtRp4321
(dp4322
g61
(dp4323
g69
I4
ssg70
g4317
sg63
(lp4324
S'Copyright 2007-2010'
p4325
asbasbasbag56
(g72
g58
NtRp4326
(dp4327
g61
(dp4328
sg70
g4278
sg63
(lp4329
g56
(g77
g58
NtRp4330
(dp4331
g61
(dp4332
g81
g82
ssg70
g4326
sg63
(lp4333
S'description'
p4334
asbag56
(g77
g58
NtRp4335
(dp4336
g61
(dp4337
g88
g89
ssg70
g4326
sg63
(lp4338
S':'
asbag56
(g77
g58
NtRp4339
(dp4340
g61
(dp4341
sg70
g4326
sg63
(lp4342
g56
(g57
g58
NtRp4343
(dp4344
g61
(dp4345
g69
I4
ssg70
g4339
sg63
(lp4346
S'Free and open source full-stack enterprise framework for agile development of fast, scalable, secure and portable database-driven web-based applications. Written and programmable in Python'
p4347
asbasbasbag56
(g72
g58
NtRp4348
(dp4349
g61
(dp4350
sg70
g4278
sg63
(lp4351
g56
(g77
g58
NtRp4352
(dp4353
g61
(dp4354
g81
g82
ssg70
g4348
sg63
(lp4355
S'generator'
p4356
asbag56
(g77
g58
NtRp4357
(dp4358
g61
(dp4359
g88
g89
ssg70
g4348
sg63
(lp4360
S':'
asbag56
(g77
g58
NtRp4361
(dp4362
g61
(dp4363
sg70
g4348
sg63
(lp4364
g56
(g57
g58
NtRp4365
(dp4366
g61
(dp4367
g69
I4
ssg70
g4361
sg63
(lp4368
S'Web2py Enterprise Framework'
p4369
asbasbasbag56
(g72
g58
NtRp4370
(dp4371
g61
(dp4372
sg70
g4278
sg63
(lp4373
g56
(g77
g58
NtRp4374
(dp4375
g61
(dp4376
g81
g82
ssg70
g4370
sg63
(lp4377
S'keywords'
p4378
asbag56
(g77
g58
NtRp4379
(dp4380
g61
(dp4381
g88
g89
ssg70
g4370
sg63
(lp4382
S':'
asbag56
(g77
g58
NtRp4383
(dp4384
g61
(dp4385
sg70
g4370
sg63
(lp4386
g56
(g57
g58
NtRp4387
(dp4388
g61
(dp4389
g69
I4
ssg70
g4383
sg63
(lp4390
S'web2py, python, framework'
p4391
asbasbasbasbasbasbasbag56
(g72
g58
NtRp4392
(dp4393
g61
(dp4394
sg70
g2825
sg63
(lp4395
g56
(g77
g58
NtRp4396
(dp4397
g61
(dp4398
g81
g82
ssg70
g4392
sg63
(lp4399
S'postprocessing'
p4400
asbag56
(g77
g58
NtRp4401
(dp4402
g61
(dp4403
g88
g89
ssg70
g4392
sg63
(lp4404
S':'
asbag56
(g77
g58
NtRp4405
(dp4406
g61
(dp4407
sg70
g4392
sg63
(lp4408
g56
(g57
g58
NtRp4409
(dp4410
g61
(dp4411
g69
I5
ssg70
g4405
sg63
(lp4412
g56
(g65
g58
NtRp4413
(dp4414
g61
(dp4415
g69
I4
ssg70
Nsg63
(lp4416
sbasbasbasbag56
(g72
g58
NtRp4417
(dp4418
g61
(dp4419
sg70
g2825
sg63
(lp4420
g56
(g77
g58
NtRp4421
(dp4422
g61
(dp4423
g81
g82
ssg70
g4417
sg63
(lp4424
S'session_file'
p4425
asbag56
(g77
g58
NtRp4426
(dp4427
g61
(dp4428
g88
g89
ssg70
g4417
sg63
(lp4429
S':'
asbag56
(g77
g58
NtRp4430
(dp4431
g61
(dp4432
sg70
g4417
sg63
(lp4433
g56
(g57
g58
NtRp4434
(dp4435
g61
(dp4436
g69
I5
ssg70
g4430
sg63
(lp4437
S"<open file '/home/vsvah/Desktop/Coursework/Sem3/SSAD/web2py/applications/Music_Repo/sessions/127.0.0.1-0cc5ad7f-61ca-479a-933d-b13352216d24', mode 'rb+' at 0xa6463e8>"
p4438
asbasbasbag56
(g72
g58
NtRp4439
(dp4440
g61
(dp4441
sg70
g2825
sg63
(lp4442
g56
(g77
g58
NtRp4443
(dp4444
g61
(dp4445
g81
g82
ssg70
g4439
sg63
(lp4446
S'session_filename'
p4447
asbag56
(g77
g58
NtRp4448
(dp4449
g61
(dp4450
g88
g89
ssg70
g4439
sg63
(lp4451
S':'
asbag56
(g77
g58
NtRp4452
(dp4453
g61
(dp4454
sg70
g4439
sg63
(lp4455
g56
(g57
g58
NtRp4456
(dp4457
g61
(dp4458
g69
I5
ssg70
g4452
sg63
(lp4459
S'/home/vsvah/Desktop/Coursework/Sem3/SSAD/web2py/applications/Music_Repo/sessions/127.0.0.1-0cc5ad7f-61ca-479a-933d-b13352216d24'
p4460
asbasbasbag56
(g72
g58
NtRp4461
(dp4462
g61
(dp4463
sg70
g2825
sg63
(lp4464
g56
(g77
g58
NtRp4465
(dp4466
g61
(dp4467
g81
g82
ssg70
g4461
sg63
(lp4468
S'session_id'
p4469
asbag56
(g77
g58
NtRp4470
(dp4471
g61
(dp4472
g88
g89
ssg70
g4461
sg63
(lp4473
S':'
asbag56
(g77
g58
NtRp4474
(dp4475
g61
(dp4476
sg70
g4461
sg63
(lp4477
g56
(g57
g58
NtRp4478
(dp4479
g61
(dp4480
g69
I5
ssg70
g4474
sg63
(lp4481
S'127.0.0.1-0cc5ad7f-61ca-479a-933d-b13352216d24'
p4482
asbasbasbag56
(g72
g58
NtRp4483
(dp4484
g61
(dp4485
sg70
g2825
sg63
(lp4486
g56
(g77
g58
NtRp4487
(dp4488
g61
(dp4489
g81
g82
ssg70
g4483
sg63
(lp4490
S'session_id_name'
p4491
asbag56
(g77
g58
NtRp4492
(dp4493
g61
(dp4494
g88
g89
ssg70
g4483
sg63
(lp4495
S':'
asbag56
(g77
g58
NtRp4496
(dp4497
g61
(dp4498
sg70
g4483
sg63
(lp4499
g56
(g57
g58
NtRp4500
(dp4501
g61
(dp4502
g69
I5
ssg70
g4496
sg63
(lp4503
g2882
asbasbasbag56
(g72
g58
NtRp4504
(dp4505
g61
(dp4506
sg70
g2825
sg63
(lp4507
g56
(g77
g58
NtRp4508
(dp4509
g61
(dp4510
g81
g82
ssg70
g4504
sg63
(lp4511
S'session_locked'
p4512
asbag56
(g77
g58
NtRp4513
(dp4514
g61
(dp4515
g88
g89
ssg70
g4504
sg63
(lp4516
S':'
asbag56
(g77
g58
NtRp4517
(dp4518
g61
(dp4519
sg70
g4504
sg63
(lp4520
g56
(g57
g58
NtRp4521
(dp4522
g61
(dp4523
g69
I5
ssg70
g4517
sg63
(lp4524
g1613
asbasbasbag56
(g72
g58
NtRp4525
(dp4526
g61
(dp4527
sg70
g2825
sg63
(lp4528
g56
(g77
g58
NtRp4529
(dp4530
g61
(dp4531
g81
g82
ssg70
g4525
sg63
(lp4532
S'session_new'
p4533
asbag56
(g77
g58
NtRp4534
(dp4535
g61
(dp4536
g88
g89
ssg70
g4525
sg63
(lp4537
S':'
asbag56
(g77
g58
NtRp4538
(dp4539
g61
(dp4540
sg70
g4525
sg63
(lp4541
g56
(g57
g58
NtRp4542
(dp4543
g61
(dp4544
g69
I5
ssg70
g4538
sg63
(lp4545
g99
asbasbasbag56
(g72
g58
NtRp4546
(dp4547
g61
(dp4548
sg70
g2825
sg63
(lp4549
g56
(g77
g58
NtRp4550
(dp4551
g61
(dp4552
g81
g82
ssg70
g4546
sg63
(lp4553
S'status'
p4554
asbag56
(g77
g58
NtRp4555
(dp4556
g61
(dp4557
g88
g89
ssg70
g4546
sg63
(lp4558
S':'
asbag56
(g77
g58
NtRp4559
(dp4560
g61
(dp4561
sg70
g4546
sg63
(lp4562
g56
(g57
g58
NtRp4563
(dp4564
g61
(dp4565
g69
I5
ssg70
g4559
sg63
(lp4566
S'200'
p4567
asbasbasbag56
(g72
g58
NtRp4568
(dp4569
g61
(dp4570
sg70
g2825
sg63
(lp4571
g56
(g77
g58
NtRp4572
(dp4573
g61
(dp4574
g81
g82
ssg70
g4568
sg63
(lp4575
S'subtitle'
p4576
asbag56
(g77
g58
NtRp4577
(dp4578
g61
(dp4579
g88
g89
ssg70
g4568
sg63
(lp4580
S':'
asbag56
(g77
g58
NtRp4581
(dp4582
g61
(dp4583
sg70
g4568
sg63
(lp4584
g56
(g57
g58
NtRp4585
(dp4586
g61
(dp4587
g69
I5
ssg70
g4581
sg63
(lp4588
g3330
(S's\r\x00\x00\x00customize me!'
tRp4589
asbasbasbag56
(g72
g58
NtRp4590
(dp4591
g61
(dp4592
sg70
g2825
sg63
(lp4593
g56
(g77
g58
NtRp4594
(dp4595
g61
(dp4596
g81
g82
ssg70
g4590
sg63
(lp4597
S'title'
p4598
asbag56
(g77
g58
NtRp4599
(dp4600
g61
(dp4601
g88
g89
ssg70
g4590
sg63
(lp4602
S':'
asbag56
(g77
g58
NtRp4603
(dp4604
g61
(dp4605
sg70
g4590
sg63
(lp4606
g56
(g57
g58
NtRp4607
(dp4608
g61
(dp4609
g69
I5
ssg70
g4603
sg63
(lp4610
g121
asbasbasbag56
(g72
g58
NtRp4611
(dp4612
g61
(dp4613
sg70
g2825
sg63
(lp4614
g56
(g77
g58
NtRp4615
(dp4616
g61
(dp4617
g81
g82
ssg70
g4611
sg63
(lp4618
g1959
asbag56
(g77
g58
NtRp4619
(dp4620
g61
(dp4621
g88
g89
ssg70
g4611
sg63
(lp4622
S':'
asbag56
(g77
g58
NtRp4623
(dp4624
g61
(dp4625
sg70
g4611
sg63
(lp4626
g56
(g57
g58
NtRp4627
(dp4628
g61
(dp4629
g69
I5
ssg70
g4623
sg63
(lp4630
g1972
asbasbasbag56
(g72
g58
NtRp4631
(dp4632
g61
(dp4633
sg70
g2825
sg63
(lp4634
g56
(g77
g58
NtRp4635
(dp4636
g61
(dp4637
g81
g82
ssg70
g4631
sg63
(lp4638
S'view'
p4639
asbag56
(g77
g58
NtRp4640
(dp4641
g61
(dp4642
g88
g89
ssg70
g4631
sg63
(lp4643
S':'
asbag56
(g77
g58
NtRp4644
(dp4645
g61
(dp4646
sg70
g4631
sg63
(lp4647
g56
(g57
g58
NtRp4648
(dp4649
g61
(dp4650
g69
I5
ssg70
g4644
sg63
(lp4651
S'default/display_details.html'
p4652
asbasbasbasbasbsS'locals'
p4653
(dp4654
ssS'traceback'
p4655
S'Traceback (most recent call last):\n  File "/home/vsvah/Desktop/Coursework/Sem3/SSAD/web2py/gluon/restricted.py", line 192, in restricted\n    exec ccode in environment\n  File "/home/vsvah/Desktop/Coursework/Sem3/SSAD/web2py/applications/Music_Repo/controllers/default.py", line 199, in <module>\n  File "/home/vsvah/Desktop/Coursework/Sem3/SSAD/web2py/gluon/globals.py", line 145, in <lambda>\n    self._caller = lambda f: f()\n  File "/home/vsvah/Desktop/Coursework/Sem3/SSAD/web2py/applications/Music_Repo/controllers/default.py", line 167, in display_details\n    idno = request.vars.args[0]\nTypeError: \'NoneType\' object is unsubscriptable\n'
p4656
s.