(dp1
S'output'
p2
S''
sS'layer'
p3
S'/home/vsvah/Desktop/Coursework/Sem3/SSAD/web2py/applications/Music_Repo/controllers/default.py'
p4
sS'code'
p5
S'# -*- coding: utf-8 -*-\n# this file is released under public domain and you can use without limitations\n\n#########################################################################\n## This is a samples controller\n## - index is the default action of any application\n## - user is required for authentication and authorization\n## - download is for downloading files uploaded in the db (does streaming)\n## - call exposes all registered services (none by default)\n#########################################################################\n\ndef index():\n    """\n    example action using the internationalization operator T and flash\n    rendered by views/default/index.html or views/generic.html\n    """\n    return dict(message=T(\'Hello World\'))\n\ndef user():\n    """\n    exposes:\n    http://..../[app]/default/user/login\n    http://..../[app]/default/user/logout\n    http://..../[app]/default/user/register\n    http://..../[app]/default/user/profile\n    http://..../[app]/default/user/retrieve_password\n    http://..../[app]/default/user/change_password\n    use @auth.requires_login()\n        @auth.requires_membership(\'group name\')\n        @auth.requires_permission(\'read\',\'table name\',record_id)\n    to decorate functions that need access control\n    """\n    return dict(form=auth())\n\n\ndef download():\n    """\n    allows downloading of uploaded files\n    http://..../[app]/default/download/[filename]\n    """\n    return response.download(request,db)\n\n\ndef call():\n    """\n    exposes services. for example:\n    http://..../[app]/default/call/jsonrpc\n    decorate with @services.jsonrpc the functions to expose\n    supports xml, json, xmlrpc, jsonrpc, amfrpc, rss, csv\n    """\n    return service()\n\n\n@auth.requires_signature()\ndef data():\n    """\n    http://..../[app]/default/data/tables\n    http://..../[app]/default/data/create/[table]\n    http://..../[app]/default/data/read/[table]/[id]\n    http://..../[app]/default/data/update/[table]/[id]\n    http://..../[app]/default/data/delete/[table]/[id[\n    http://..../[app]/default/data/select/[table]\n    http://..../[app]/default/data/search/[table]\n    but URLs bust be signed, i.e. linked with\n      A(\'table\',_href=URL(\'data/tables\',user_signature=True))\n    or with the signed load operator\n      LOAD(\'default\',\'data.load\',args=\'tables\',ajax=True,user_signature=True)\n    """\n    return dict(form=crud())\n\n\ndef form_for_artist():\n\tform = SQLFORM(db.artist)\n\tif form.accepts(request.vars, session):\n\t      response.flash = \'form accepted\'\n\telif form.errors:\n\t      response.flash = \'form has errors\'\n\telse:\n\t      response.flash = \'please fill out the form\'\n\treturn dict(form=form)\n\t\ndef form_for_movie():\n\tform = SQLFORM(db.movie)\n\tif form.accepts(request.vars, session):\n\t      response.flash = \'form accepted\'\n\telif form.errors:\n\t      response.flash = \'form has errors\'\n\telse:\n\t      response.flash = \'please fill out the form\'\n\treturn dict(form=form)\n\ndef form_for_song():\n\tform = SQLFORM(db.song)\n\tif form.accepts(request.vars, session):\n\t      response.flash = \'form accepted\'\n\telif form.errors:\n\t      response.flash = \'form has errors\'\n\telse:\n\t      response.flash = \'please fill out the form\'\n\treturn dict(form=form)\n@auth.requires_login()\ndef form_for_rating():\n\tform = SQLFORM(db.rating)\n\tif form.accepts(request.vars, session):\n\t      response.flash = \'form accepted\'\n\t      k = request.vars.rating\n\t      n = request.vars.song\n\t      row = db(db.rating.song==n).select()\n\t      s=0\n\t      c=0\n\t      for i in row:\n\t        s=s+i.rating\n\t        c=c+1\n\t        s=s/c\n\t      rows = db(db.song.id==n).select()\n\t      row = rows[0]\n\t      row.update_record(rating = s)\n\n\telif form.errors:\n\t      response.flash = \'form has errors\'\n\telse:\n\t      response.flash = \'please fill out the form\'\n\treturn dict(form=form)\n\ndef form_for_user():\n\tform = SQLFORM(db.auth_user)\n\tif form.accepts(request.vars, session):\n\t      response.flash = \'form accepted\'\n\telif form.errors:\n\t      response.flash = \'form has errors\'\n\telse:\n\t      response.flash = \'please fill out the form\'\n\treturn dict(form=form)\n\ndef query_form():\n\tform = SQLFORM.factory(\n\t\t\tField(\'query_number\',\'integer\',requires = IS_INT_IN_RANGE(1,6))\n\t\t\t)\n\tif form.accepts(request.vars,session):\n\t\tredirect(URL(\'q\'+request.vars.query_number))\n\treturn dict(form=form)\n\ndef movie_artist_query():\n\tform = SQLFORM.factory(\n\t\t\tField(\'movie_name\',\'string\'),\n\t\t\tField(\'artist_name\',\'string\')\n\t\t\t)\n        if form.accepts(request.vars,session):\n\t\t if request.vars.movie_name == \'\' and request.vars.artist_name == \'\' :\n\t\t                 response.flash = \'please enter one field\'\n                 else:\n\t\t\tsession.movie = request.vars.movie_name\n\t        \tsession.artist = request.vars.artist_name\n\t\t        redirect(URL(\'display_link\'))\n        return dict(form=form)\n\ndef display_link():\n       if session.movie!=\'\' and session.artist!=\'\': \n\trows = db( ((db.song.movie == db.movie.id) & (db.movie.name==session.movie))&((db.song.singer == db.artist.id)&(db.artist.name==session.artist)) ).select()\n       elif session.movie!=\'\':\n\t rows =db(db.song.movie==db.movie.id & db.movie.name == session.movie ).select()\n       else:\n\t  rows = db(db.song.singer == db.artist.id & db.artist.name == session.artist).select()\n       return dict(r = rows)\n\t   \n\ndef q1():\n\trow = db((db.song.singer == db.artist.id) & (db.artist.id == 3)).select(db.song.name)\n\treturn dict(r=row)\n\ndef q2():\n\trow = db((db.song.singer==db.artist.id) & (db.artist.name == "Balu")).select(db.song.name)\n\treturn dict(r=row)\n\ndef q3():\n\trow = db(((db.song.singer == db.artist.id) & (db.artist.name == "Balu")) & ((db.song.movie == db.movie.id) & (db.movie.name=="Shankarabharanam"))).select(db.song.name)\n\treturn dict(r=row)\n\ndef q4():\n\trow = db(((db.song.singer == db.artist.id) & (db.artist.name == "Balu")) & ((db.song.movie==db.movie.id) & (db.movie.release_date<datetime.date(2000,1,1)))).select(db.song.name,db.song.actor)\n\treturn dict(r=row)\n\ndef q5():\n\trow=db((db.song.rating>=4) & (db.song.singer==db.artist.id)).select(db.song.name,db.artist.name)\n\treturn dict(r=row)\n\ndef reset_state():\n\tdb.artist.truncate()\n\tdb.song.truncate()\n\tdb.movie.truncate()\n\tdb.rating.truncate()\n        return dict(r="All Tables Successfully Cleared :D")\n\t\n\nresponse._vars=response._caller(display_link)\n'
p6
sS'snapshot'
p7
(dp8
S'exception'
p9
(dp10
S'__hash__'
p11
S"<method-wrapper '__hash__' of exceptions.TypeError object>"
p12
sS'__setattr__'
p13
S"<method-wrapper '__setattr__' of exceptions.TypeError object>"
p14
sS'__reduce_ex__'
p15
S'<built-in method __reduce_ex__ of exceptions.TypeError object>'
p16
sS'__getslice__'
p17
S"<method-wrapper '__getslice__' of exceptions.TypeError object>"
p18
sS'__getitem__'
p19
S"<method-wrapper '__getitem__' of exceptions.TypeError object>"
p20
sS'__setstate__'
p21
S'<built-in method __setstate__ of exceptions.TypeError object>'
p22
sS'__reduce__'
p23
S'<built-in method __reduce__ of exceptions.TypeError object>'
p24
sS'__str__'
p25
S"<method-wrapper '__str__' of exceptions.TypeError object>"
p26
sS'__format__'
p27
S'<built-in method __format__ of exceptions.TypeError object>'
p28
sS'__getattribute__'
p29
S"<method-wrapper '__getattribute__' of exceptions.TypeError object>"
p30
sS'__class__'
p31
S"<type 'exceptions.TypeError'>"
p32
sS'__unicode__'
p33
S'<built-in method __unicode__ of exceptions.TypeError object>'
p34
sS'__delattr__'
p35
S"<method-wrapper '__delattr__' of exceptions.TypeError object>"
p36
sS'__subclasshook__'
p37
S'<built-in method __subclasshook__ of type object>'
p38
sS'__repr__'
p39
S"<method-wrapper '__repr__' of exceptions.TypeError object>"
p40
sS'args'
p41
S'("unsupported operand type(s) for &: \'Field\' and \'Field\'",)'
p42
sS'__dict__'
p43
S'{}'
p44
sS'__sizeof__'
p45
S'<built-in method __sizeof__ of exceptions.TypeError object>'
p46
sS'__doc__'
p47
S"'Inappropriate argument type.'"
p48
sS'__init__'
p49
S"<method-wrapper '__init__' of exceptions.TypeError object>"
p50
sS'__new__'
p51
S'<built-in method __new__ of type object>'
p52
ssS'evalue'
p53
S"unsupported operand type(s) for &: 'Field' and 'Field'"
p54
sS'request'
p55
ccopy_reg
_reconstructor
p56
(cgluon.html
BEAUTIFY
p57
c__builtin__
object
p58
NtRp59
(dp60
S'attributes'
p61
(dp62
sS'components'
p63
(lp64
g56
(cgluon.html
TABLE
p65
g58
NtRp66
(dp67
g61
(dp68
S'level'
p69
I5
ssS'parent'
p70
Nsg63
(lp71
g56
(cgluon.html
TR
p72
g58
NtRp73
(dp74
g61
(dp75
sg70
g66
sg63
(lp76
g56
(cgluon.html
TD
p77
g58
NtRp78
(dp79
g61
(dp80
S'_style'
p81
S'font-weight:bold;'
p82
ssg70
g73
sg63
(lp83
S'ajax'
p84
asbag56
(g77
g58
NtRp85
(dp86
g61
(dp87
S'_valign'
p88
S'top'
p89
ssg70
g73
sg63
(lp90
S':'
asbag56
(g77
g58
NtRp91
(dp92
g61
(dp93
sg70
g73
sg63
(lp94
g56
(g57
g58
NtRp95
(dp96
g61
(dp97
g69
I5
ssg70
g91
sg63
(lp98
S'False'
p99
asbasbasbag56
(g72
g58
NtRp100
(dp101
g61
(dp102
sg70
g66
sg63
(lp103
g56
(g77
g58
NtRp104
(dp105
g61
(dp106
g81
g82
ssg70
g100
sg63
(lp107
S'application'
p108
asbag56
(g77
g58
NtRp109
(dp110
g61
(dp111
g88
g89
ssg70
g100
sg63
(lp112
S':'
asbag56
(g77
g58
NtRp113
(dp114
g61
(dp115
sg70
g100
sg63
(lp116
g56
(g57
g58
NtRp117
(dp118
g61
(dp119
g69
I5
ssg70
g113
sg63
(lp120
S'Music_Repo'
p121
asbasbasbag56
(g72
g58
NtRp122
(dp123
g61
(dp124
sg70
g66
sg63
(lp125
g56
(g77
g58
NtRp126
(dp127
g61
(dp128
g81
g82
ssg70
g122
sg63
(lp129
g41
asbag56
(g77
g58
NtRp130
(dp131
g61
(dp132
g88
g89
ssg70
g122
sg63
(lp133
S':'
asbag56
(g77
g58
NtRp134
(dp135
g61
(dp136
sg70
g122
sg63
(lp137
g56
(g57
g58
NtRp138
(dp139
g61
(dp140
g69
I5
ssg70
g134
sg63
(lp141
g56
(g65
g58
NtRp142
(dp143
g61
(dp144
g69
I4
ssg70
Nsg63
(lp145
sbasbasbasbag56
(g72
g58
NtRp146
(dp147
g61
(dp148
sg70
g66
sg63
(lp149
g56
(g77
g58
NtRp150
(dp151
g61
(dp152
g81
g82
ssg70
g146
sg63
(lp153
S'body'
p154
asbag56
(g77
g58
NtRp155
(dp156
g61
(dp157
g88
g89
ssg70
g146
sg63
(lp158
S':'
asbag56
(g77
g58
NtRp159
(dp160
g61
(dp161
sg70
g146
sg63
(lp162
g56
(g57
g58
NtRp163
(dp164
g61
(dp165
g69
I5
ssg70
g159
sg63
(lp166
S'<cStringIO.StringO object at 0x8faa1a0>'
p167
asbasbasbag56
(g72
g58
NtRp168
(dp169
g61
(dp170
sg70
g66
sg63
(lp171
g56
(g77
g58
NtRp172
(dp173
g61
(dp174
g81
g82
ssg70
g168
sg63
(lp175
S'client'
p176
asbag56
(g77
g58
NtRp177
(dp178
g61
(dp179
g88
g89
ssg70
g168
sg63
(lp180
S':'
asbag56
(g77
g58
NtRp181
(dp182
g61
(dp183
sg70
g168
sg63
(lp184
g56
(g57
g58
NtRp185
(dp186
g61
(dp187
g69
I5
ssg70
g181
sg63
(lp188
S'127.0.0.1'
p189
asbasbasbag56
(g72
g58
NtRp190
(dp191
g61
(dp192
sg70
g66
sg63
(lp193
g56
(g77
g58
NtRp194
(dp195
g61
(dp196
g81
g82
ssg70
g190
sg63
(lp197
S'controller'
p198
asbag56
(g77
g58
NtRp199
(dp200
g61
(dp201
g88
g89
ssg70
g190
sg63
(lp202
S':'
asbag56
(g77
g58
NtRp203
(dp204
g61
(dp205
sg70
g190
sg63
(lp206
g56
(g57
g58
NtRp207
(dp208
g61
(dp209
g69
I5
ssg70
g203
sg63
(lp210
S'default'
p211
asbasbasbag56
(g72
g58
NtRp212
(dp213
g61
(dp214
sg70
g66
sg63
(lp215
g56
(g77
g58
NtRp216
(dp217
g61
(dp218
g81
g82
ssg70
g212
sg63
(lp219
S'cookies'
p220
asbag56
(g77
g58
NtRp221
(dp222
g61
(dp223
g88
g89
ssg70
g212
sg63
(lp224
S':'
asbag56
(g77
g58
NtRp225
(dp226
g61
(dp227
sg70
g212
sg63
(lp228
g56
(g57
g58
NtRp229
(dp230
g61
(dp231
g69
I5
ssg70
g225
sg63
(lp232
g56
(g65
g58
NtRp233
(dp234
g61
(dp235
g69
I4
ssg70
Nsg63
(lp236
g56
(g72
g58
NtRp237
(dp238
g61
(dp239
sg70
g233
sg63
(lp240
g56
(g77
g58
NtRp241
(dp242
g61
(dp243
g81
g82
ssg70
g237
sg63
(lp244
S'session_id_admin'
p245
asbag56
(g77
g58
NtRp246
(dp247
g61
(dp248
g88
g89
ssg70
g237
sg63
(lp249
S':'
asbag56
(g77
g58
NtRp250
(dp251
g61
(dp252
sg70
g237
sg63
(lp253
g56
(g57
g58
NtRp254
(dp255
g61
(dp256
g69
I4
ssg70
g250
sg63
(lp257
g56
(g65
g58
NtRp258
(dp259
g61
(dp260
g69
I3
ssg70
Nsg63
(lp261
g56
(g72
g58
NtRp262
(dp263
g61
(dp264
sg70
g258
sg63
(lp265
g56
(g77
g58
NtRp266
(dp267
g61
(dp268
g81
g82
ssg70
g262
sg63
(lp269
S'comment'
p270
asbag56
(g77
g58
NtRp271
(dp272
g61
(dp273
g88
g89
ssg70
g262
sg63
(lp274
S':'
asbag56
(g77
g58
NtRp275
(dp276
g61
(dp277
sg70
g262
sg63
(lp278
g56
(g57
g58
NtRp279
(dp280
g61
(dp281
g69
I3
ssg70
g275
sg63
(lp282
S''
asbasbasbag56
(g72
g58
NtRp283
(dp284
g61
(dp285
sg70
g258
sg63
(lp286
g56
(g77
g58
NtRp287
(dp288
g61
(dp289
g81
g82
ssg70
g283
sg63
(lp290
S'domain'
p291
asbag56
(g77
g58
NtRp292
(dp293
g61
(dp294
g88
g89
ssg70
g283
sg63
(lp295
S':'
asbag56
(g77
g58
NtRp296
(dp297
g61
(dp298
sg70
g283
sg63
(lp299
g56
(g57
g58
NtRp300
(dp301
g61
(dp302
g69
I3
ssg70
g296
sg63
(lp303
S''
asbasbasbag56
(g72
g58
NtRp304
(dp305
g61
(dp306
sg70
g258
sg63
(lp307
g56
(g77
g58
NtRp308
(dp309
g61
(dp310
g81
g82
ssg70
g304
sg63
(lp311
S'expires'
p312
asbag56
(g77
g58
NtRp313
(dp314
g61
(dp315
g88
g89
ssg70
g304
sg63
(lp316
S':'
asbag56
(g77
g58
NtRp317
(dp318
g61
(dp319
sg70
g304
sg63
(lp320
g56
(g57
g58
NtRp321
(dp322
g61
(dp323
g69
I3
ssg70
g317
sg63
(lp324
S''
asbasbasbag56
(g72
g58
NtRp325
(dp326
g61
(dp327
sg70
g258
sg63
(lp328
g56
(g77
g58
NtRp329
(dp330
g61
(dp331
g81
g82
ssg70
g325
sg63
(lp332
S'httponly'
p333
asbag56
(g77
g58
NtRp334
(dp335
g61
(dp336
g88
g89
ssg70
g325
sg63
(lp337
S':'
asbag56
(g77
g58
NtRp338
(dp339
g61
(dp340
sg70
g325
sg63
(lp341
g56
(g57
g58
NtRp342
(dp343
g61
(dp344
g69
I3
ssg70
g338
sg63
(lp345
S''
asbasbasbag56
(g72
g58
NtRp346
(dp347
g61
(dp348
sg70
g258
sg63
(lp349
g56
(g77
g58
NtRp350
(dp351
g61
(dp352
g81
g82
ssg70
g346
sg63
(lp353
S'max-age'
p354
asbag56
(g77
g58
NtRp355
(dp356
g61
(dp357
g88
g89
ssg70
g346
sg63
(lp358
S':'
asbag56
(g77
g58
NtRp359
(dp360
g61
(dp361
sg70
g346
sg63
(lp362
g56
(g57
g58
NtRp363
(dp364
g61
(dp365
g69
I3
ssg70
g359
sg63
(lp366
S''
asbasbasbag56
(g72
g58
NtRp367
(dp368
g61
(dp369
sg70
g258
sg63
(lp370
g56
(g77
g58
NtRp371
(dp372
g61
(dp373
g81
g82
ssg70
g367
sg63
(lp374
S'path'
p375
asbag56
(g77
g58
NtRp376
(dp377
g61
(dp378
g88
g89
ssg70
g367
sg63
(lp379
S':'
asbag56
(g77
g58
NtRp380
(dp381
g61
(dp382
sg70
g367
sg63
(lp383
g56
(g57
g58
NtRp384
(dp385
g61
(dp386
g69
I3
ssg70
g380
sg63
(lp387
S''
asbasbasbag56
(g72
g58
NtRp388
(dp389
g61
(dp390
sg70
g258
sg63
(lp391
g56
(g77
g58
NtRp392
(dp393
g61
(dp394
g81
g82
ssg70
g388
sg63
(lp395
S'secure'
p396
asbag56
(g77
g58
NtRp397
(dp398
g61
(dp399
g88
g89
ssg70
g388
sg63
(lp400
S':'
asbag56
(g77
g58
NtRp401
(dp402
g61
(dp403
sg70
g388
sg63
(lp404
g56
(g57
g58
NtRp405
(dp406
g61
(dp407
g69
I3
ssg70
g401
sg63
(lp408
S''
asbasbasbag56
(g72
g58
NtRp409
(dp410
g61
(dp411
sg70
g258
sg63
(lp412
g56
(g77
g58
NtRp413
(dp414
g61
(dp415
g81
g82
ssg70
g409
sg63
(lp416
S'version'
p417
asbag56
(g77
g58
NtRp418
(dp419
g61
(dp420
g88
g89
ssg70
g409
sg63
(lp421
S':'
asbag56
(g77
g58
NtRp422
(dp423
g61
(dp424
sg70
g409
sg63
(lp425
g56
(g57
g58
NtRp426
(dp427
g61
(dp428
g69
I3
ssg70
g422
sg63
(lp429
S''
asbasbasbasbasbasbasbag56
(g72
g58
NtRp430
(dp431
g61
(dp432
sg70
g233
sg63
(lp433
g56
(g77
g58
NtRp434
(dp435
g61
(dp436
g81
g82
ssg70
g430
sg63
(lp437
S'session_id_music_repo'
p438
asbag56
(g77
g58
NtRp439
(dp440
g61
(dp441
g88
g89
ssg70
g430
sg63
(lp442
S':'
asbag56
(g77
g58
NtRp443
(dp444
g61
(dp445
sg70
g430
sg63
(lp446
g56
(g57
g58
NtRp447
(dp448
g61
(dp449
g69
I4
ssg70
g443
sg63
(lp450
g56
(g65
g58
NtRp451
(dp452
g61
(dp453
g69
I3
ssg70
Nsg63
(lp454
g56
(g72
g58
NtRp455
(dp456
g61
(dp457
sg70
g451
sg63
(lp458
g56
(g77
g58
NtRp459
(dp460
g61
(dp461
g81
g82
ssg70
g455
sg63
(lp462
g270
asbag56
(g77
g58
NtRp463
(dp464
g61
(dp465
g88
g89
ssg70
g455
sg63
(lp466
S':'
asbag56
(g77
g58
NtRp467
(dp468
g61
(dp469
sg70
g455
sg63
(lp470
g56
(g57
g58
NtRp471
(dp472
g61
(dp473
g69
I3
ssg70
g467
sg63
(lp474
S''
asbasbasbag56
(g72
g58
NtRp475
(dp476
g61
(dp477
sg70
g451
sg63
(lp478
g56
(g77
g58
NtRp479
(dp480
g61
(dp481
g81
g82
ssg70
g475
sg63
(lp482
g291
asbag56
(g77
g58
NtRp483
(dp484
g61
(dp485
g88
g89
ssg70
g475
sg63
(lp486
S':'
asbag56
(g77
g58
NtRp487
(dp488
g61
(dp489
sg70
g475
sg63
(lp490
g56
(g57
g58
NtRp491
(dp492
g61
(dp493
g69
I3
ssg70
g487
sg63
(lp494
S''
asbasbasbag56
(g72
g58
NtRp495
(dp496
g61
(dp497
sg70
g451
sg63
(lp498
g56
(g77
g58
NtRp499
(dp500
g61
(dp501
g81
g82
ssg70
g495
sg63
(lp502
g312
asbag56
(g77
g58
NtRp503
(dp504
g61
(dp505
g88
g89
ssg70
g495
sg63
(lp506
S':'
asbag56
(g77
g58
NtRp507
(dp508
g61
(dp509
sg70
g495
sg63
(lp510
g56
(g57
g58
NtRp511
(dp512
g61
(dp513
g69
I3
ssg70
g507
sg63
(lp514
S''
asbasbasbag56
(g72
g58
NtRp515
(dp516
g61
(dp517
sg70
g451
sg63
(lp518
g56
(g77
g58
NtRp519
(dp520
g61
(dp521
g81
g82
ssg70
g515
sg63
(lp522
g333
asbag56
(g77
g58
NtRp523
(dp524
g61
(dp525
g88
g89
ssg70
g515
sg63
(lp526
S':'
asbag56
(g77
g58
NtRp527
(dp528
g61
(dp529
sg70
g515
sg63
(lp530
g56
(g57
g58
NtRp531
(dp532
g61
(dp533
g69
I3
ssg70
g527
sg63
(lp534
S''
asbasbasbag56
(g72
g58
NtRp535
(dp536
g61
(dp537
sg70
g451
sg63
(lp538
g56
(g77
g58
NtRp539
(dp540
g61
(dp541
g81
g82
ssg70
g535
sg63
(lp542
g354
asbag56
(g77
g58
NtRp543
(dp544
g61
(dp545
g88
g89
ssg70
g535
sg63
(lp546
S':'
asbag56
(g77
g58
NtRp547
(dp548
g61
(dp549
sg70
g535
sg63
(lp550
g56
(g57
g58
NtRp551
(dp552
g61
(dp553
g69
I3
ssg70
g547
sg63
(lp554
S''
asbasbasbag56
(g72
g58
NtRp555
(dp556
g61
(dp557
sg70
g451
sg63
(lp558
g56
(g77
g58
NtRp559
(dp560
g61
(dp561
g81
g82
ssg70
g555
sg63
(lp562
g375
asbag56
(g77
g58
NtRp563
(dp564
g61
(dp565
g88
g89
ssg70
g555
sg63
(lp566
S':'
asbag56
(g77
g58
NtRp567
(dp568
g61
(dp569
sg70
g555
sg63
(lp570
g56
(g57
g58
NtRp571
(dp572
g61
(dp573
g69
I3
ssg70
g567
sg63
(lp574
S''
asbasbasbag56
(g72
g58
NtRp575
(dp576
g61
(dp577
sg70
g451
sg63
(lp578
g56
(g77
g58
NtRp579
(dp580
g61
(dp581
g81
g82
ssg70
g575
sg63
(lp582
g396
asbag56
(g77
g58
NtRp583
(dp584
g61
(dp585
g88
g89
ssg70
g575
sg63
(lp586
S':'
asbag56
(g77
g58
NtRp587
(dp588
g61
(dp589
sg70
g575
sg63
(lp590
g56
(g57
g58
NtRp591
(dp592
g61
(dp593
g69
I3
ssg70
g587
sg63
(lp594
S''
asbasbasbag56
(g72
g58
NtRp595
(dp596
g61
(dp597
sg70
g451
sg63
(lp598
g56
(g77
g58
NtRp599
(dp600
g61
(dp601
g81
g82
ssg70
g595
sg63
(lp602
g417
asbag56
(g77
g58
NtRp603
(dp604
g61
(dp605
g88
g89
ssg70
g595
sg63
(lp606
S':'
asbag56
(g77
g58
NtRp607
(dp608
g61
(dp609
sg70
g595
sg63
(lp610
g56
(g57
g58
NtRp611
(dp612
g61
(dp613
g69
I3
ssg70
g607
sg63
(lp614
S''
asbasbasbasbasbasbasbag56
(g72
g58
NtRp615
(dp616
g61
(dp617
sg70
g233
sg63
(lp618
g56
(g77
g58
NtRp619
(dp620
g61
(dp621
g81
g82
ssg70
g615
sg63
(lp622
S'session_id_welcome'
p623
asbag56
(g77
g58
NtRp624
(dp625
g61
(dp626
g88
g89
ssg70
g615
sg63
(lp627
S':'
asbag56
(g77
g58
NtRp628
(dp629
g61
(dp630
sg70
g615
sg63
(lp631
g56
(g57
g58
NtRp632
(dp633
g61
(dp634
g69
I4
ssg70
g628
sg63
(lp635
g56
(g65
g58
NtRp636
(dp637
g61
(dp638
g69
I3
ssg70
Nsg63
(lp639
g56
(g72
g58
NtRp640
(dp641
g61
(dp642
sg70
g636
sg63
(lp643
g56
(g77
g58
NtRp644
(dp645
g61
(dp646
g81
g82
ssg70
g640
sg63
(lp647
g270
asbag56
(g77
g58
NtRp648
(dp649
g61
(dp650
g88
g89
ssg70
g640
sg63
(lp651
S':'
asbag56
(g77
g58
NtRp652
(dp653
g61
(dp654
sg70
g640
sg63
(lp655
g56
(g57
g58
NtRp656
(dp657
g61
(dp658
g69
I3
ssg70
g652
sg63
(lp659
S''
asbasbasbag56
(g72
g58
NtRp660
(dp661
g61
(dp662
sg70
g636
sg63
(lp663
g56
(g77
g58
NtRp664
(dp665
g61
(dp666
g81
g82
ssg70
g660
sg63
(lp667
g291
asbag56
(g77
g58
NtRp668
(dp669
g61
(dp670
g88
g89
ssg70
g660
sg63
(lp671
S':'
asbag56
(g77
g58
NtRp672
(dp673
g61
(dp674
sg70
g660
sg63
(lp675
g56
(g57
g58
NtRp676
(dp677
g61
(dp678
g69
I3
ssg70
g672
sg63
(lp679
S''
asbasbasbag56
(g72
g58
NtRp680
(dp681
g61
(dp682
sg70
g636
sg63
(lp683
g56
(g77
g58
NtRp684
(dp685
g61
(dp686
g81
g82
ssg70
g680
sg63
(lp687
g312
asbag56
(g77
g58
NtRp688
(dp689
g61
(dp690
g88
g89
ssg70
g680
sg63
(lp691
S':'
asbag56
(g77
g58
NtRp692
(dp693
g61
(dp694
sg70
g680
sg63
(lp695
g56
(g57
g58
NtRp696
(dp697
g61
(dp698
g69
I3
ssg70
g692
sg63
(lp699
S''
asbasbasbag56
(g72
g58
NtRp700
(dp701
g61
(dp702
sg70
g636
sg63
(lp703
g56
(g77
g58
NtRp704
(dp705
g61
(dp706
g81
g82
ssg70
g700
sg63
(lp707
g333
asbag56
(g77
g58
NtRp708
(dp709
g61
(dp710
g88
g89
ssg70
g700
sg63
(lp711
S':'
asbag56
(g77
g58
NtRp712
(dp713
g61
(dp714
sg70
g700
sg63
(lp715
g56
(g57
g58
NtRp716
(dp717
g61
(dp718
g69
I3
ssg70
g712
sg63
(lp719
S''
asbasbasbag56
(g72
g58
NtRp720
(dp721
g61
(dp722
sg70
g636
sg63
(lp723
g56
(g77
g58
NtRp724
(dp725
g61
(dp726
g81
g82
ssg70
g720
sg63
(lp727
g354
asbag56
(g77
g58
NtRp728
(dp729
g61
(dp730
g88
g89
ssg70
g720
sg63
(lp731
S':'
asbag56
(g77
g58
NtRp732
(dp733
g61
(dp734
sg70
g720
sg63
(lp735
g56
(g57
g58
NtRp736
(dp737
g61
(dp738
g69
I3
ssg70
g732
sg63
(lp739
S''
asbasbasbag56
(g72
g58
NtRp740
(dp741
g61
(dp742
sg70
g636
sg63
(lp743
g56
(g77
g58
NtRp744
(dp745
g61
(dp746
g81
g82
ssg70
g740
sg63
(lp747
g375
asbag56
(g77
g58
NtRp748
(dp749
g61
(dp750
g88
g89
ssg70
g740
sg63
(lp751
S':'
asbag56
(g77
g58
NtRp752
(dp753
g61
(dp754
sg70
g740
sg63
(lp755
g56
(g57
g58
NtRp756
(dp757
g61
(dp758
g69
I3
ssg70
g752
sg63
(lp759
S''
asbasbasbag56
(g72
g58
NtRp760
(dp761
g61
(dp762
sg70
g636
sg63
(lp763
g56
(g77
g58
NtRp764
(dp765
g61
(dp766
g81
g82
ssg70
g760
sg63
(lp767
g396
asbag56
(g77
g58
NtRp768
(dp769
g61
(dp770
g88
g89
ssg70
g760
sg63
(lp771
S':'
asbag56
(g77
g58
NtRp772
(dp773
g61
(dp774
sg70
g760
sg63
(lp775
g56
(g57
g58
NtRp776
(dp777
g61
(dp778
g69
I3
ssg70
g772
sg63
(lp779
S''
asbasbasbag56
(g72
g58
NtRp780
(dp781
g61
(dp782
sg70
g636
sg63
(lp783
g56
(g77
g58
NtRp784
(dp785
g61
(dp786
g81
g82
ssg70
g780
sg63
(lp787
g417
asbag56
(g77
g58
NtRp788
(dp789
g61
(dp790
g88
g89
ssg70
g780
sg63
(lp791
S':'
asbag56
(g77
g58
NtRp792
(dp793
g61
(dp794
sg70
g780
sg63
(lp795
g56
(g57
g58
NtRp796
(dp797
g61
(dp798
g69
I3
ssg70
g792
sg63
(lp799
S''
asbasbasbasbasbasbasbasbasbasbasbag56
(g72
g58
NtRp800
(dp801
g61
(dp802
sg70
g66
sg63
(lp803
g56
(g77
g58
NtRp804
(dp805
g61
(dp806
g81
g82
ssg70
g800
sg63
(lp807
S'env'
p808
asbag56
(g77
g58
NtRp809
(dp810
g61
(dp811
g88
g89
ssg70
g800
sg63
(lp812
S':'
asbag56
(g77
g58
NtRp813
(dp814
g61
(dp815
sg70
g800
sg63
(lp816
g56
(g57
g58
NtRp817
(dp818
g61
(dp819
g69
I5
ssg70
g813
sg63
(lp820
g56
(g65
g58
NtRp821
(dp822
g61
(dp823
g69
I4
ssg70
Nsg63
(lp824
g56
(g72
g58
NtRp825
(dp826
g61
(dp827
sg70
g821
sg63
(lp828
g56
(g77
g58
NtRp829
(dp830
g61
(dp831
g81
g82
ssg70
g825
sg63
(lp832
S'app_folders'
p833
asbag56
(g77
g58
NtRp834
(dp835
g61
(dp836
g88
g89
ssg70
g825
sg63
(lp837
S':'
asbag56
(g77
g58
NtRp838
(dp839
g61
(dp840
sg70
g825
sg63
(lp841
g56
(g57
g58
NtRp842
(dp843
g61
(dp844
g69
I4
ssg70
g838
sg63
(lp845
S"set(['/home/vsvah/Desktop/Coursework/Sem3/SSAD/web2py/applications/Music_Repo/', '/home/vsvah/Desktop/Coursework/Sem3/SSAD/web2py/applications/admin/', '/home/vsvah/Desktop/Coursework/Sem3/SSAD/web2py/applications/welcome/'])"
p846
asbasbasbag56
(g72
g58
NtRp847
(dp848
g61
(dp849
sg70
g821
sg63
(lp850
g56
(g77
g58
NtRp851
(dp852
g61
(dp853
g81
g82
ssg70
g847
sg63
(lp854
S'applications_parent'
p855
asbag56
(g77
g58
NtRp856
(dp857
g61
(dp858
g88
g89
ssg70
g847
sg63
(lp859
S':'
asbag56
(g77
g58
NtRp860
(dp861
g61
(dp862
sg70
g847
sg63
(lp863
g56
(g57
g58
NtRp864
(dp865
g61
(dp866
g69
I4
ssg70
g860
sg63
(lp867
S'/home/vsvah/Desktop/Coursework/Sem3/SSAD/web2py'
p868
asbasbasbag56
(g72
g58
NtRp869
(dp870
g61
(dp871
sg70
g821
sg63
(lp872
g56
(g77
g58
NtRp873
(dp874
g61
(dp875
g81
g82
ssg70
g869
sg63
(lp876
S'cmd_args'
p877
asbag56
(g77
g58
NtRp878
(dp879
g61
(dp880
g88
g89
ssg70
g869
sg63
(lp881
S':'
asbag56
(g77
g58
NtRp882
(dp883
g61
(dp884
sg70
g869
sg63
(lp885
g56
(g57
g58
NtRp886
(dp887
g61
(dp888
g69
I4
ssg70
g882
sg63
(lp889
g56
(g65
g58
NtRp890
(dp891
g61
(dp892
g69
I3
ssg70
Nsg63
(lp893
sbasbasbasbag56
(g72
g58
NtRp894
(dp895
g61
(dp896
sg70
g821
sg63
(lp897
g56
(g77
g58
NtRp898
(dp899
g61
(dp900
g81
g82
ssg70
g894
sg63
(lp901
S'cmd_options'
p902
asbag56
(g77
g58
NtRp903
(dp904
g61
(dp905
g88
g89
ssg70
g894
sg63
(lp906
S':'
asbag56
(g77
g58
NtRp907
(dp908
g61
(dp909
sg70
g894
sg63
(lp910
g56
(g57
g58
NtRp911
(dp912
g61
(dp913
g69
I4
ssg70
g907
sg63
(lp914
S"<Values at 0x892c04c: {'verbose': False, 'ip': '127.0.0.1', 'shutdown_timeout': 5, 'taskbar': False, 'port': 8000, 'maxthreads': None, 'softcron': False, 'server_name': 'vsvah-laptop', 'bpython': False, 'nogui': False, 'nocron': False, 'extcron': False, 'debuglevel': 30, 'test': None, 'folder': '/home/vsvah/Desktop/Coursework/Sem3/SSAD/web2py', 'config': '', 'import_models': False, 'winservice': '', 'shell': None, 'run': '', 'log_filename': 'httpserver.log', 'args': [''], 'profiler_filename': None, 'ssl_private_key': '', 'password': '<ask>', 'request_queue_size': 5, 'ssl_certificate': '', 'cronjob': False, 'plain': False, 'quiet': False, 'interfaces': None, 'minthreads': None, 'timeout': 10, 'numthreads': None, 'nobanner': False, 'pid_filename': 'httpserver.pid'}>"
p915
asbasbasbag56
(g72
g58
NtRp916
(dp917
g61
(dp918
sg70
g821
sg63
(lp919
g56
(g77
g58
NtRp920
(dp921
g61
(dp922
g81
g82
ssg70
g916
sg63
(lp923
S'db_sessions'
p924
asbag56
(g77
g58
NtRp925
(dp926
g61
(dp927
g88
g89
ssg70
g916
sg63
(lp928
S':'
asbag56
(g77
g58
NtRp929
(dp930
g61
(dp931
sg70
g916
sg63
(lp932
g56
(g57
g58
NtRp933
(dp934
g61
(dp935
g69
I4
ssg70
g929
sg63
(lp936
S'set([])'
p937
asbasbasbag56
(g72
g58
NtRp938
(dp939
g61
(dp940
sg70
g821
sg63
(lp941
g56
(g77
g58
NtRp942
(dp943
g61
(dp944
g81
g82
ssg70
g938
sg63
(lp945
S'debugging'
p946
asbag56
(g77
g58
NtRp947
(dp948
g61
(dp949
g88
g89
ssg70
g938
sg63
(lp950
S':'
asbag56
(g77
g58
NtRp951
(dp952
g61
(dp953
sg70
g938
sg63
(lp954
g56
(g57
g58
NtRp955
(dp956
g61
(dp957
g69
I4
ssg70
g951
sg63
(lp958
g99
asbasbasbag56
(g72
g58
NtRp959
(dp960
g61
(dp961
sg70
g821
sg63
(lp962
g56
(g77
g58
NtRp963
(dp964
g61
(dp965
g81
g82
ssg70
g959
sg63
(lp966
S'gluon_parent'
p967
asbag56
(g77
g58
NtRp968
(dp969
g61
(dp970
g88
g89
ssg70
g959
sg63
(lp971
S':'
asbag56
(g77
g58
NtRp972
(dp973
g61
(dp974
sg70
g959
sg63
(lp975
g56
(g57
g58
NtRp976
(dp977
g61
(dp978
g69
I4
ssg70
g972
sg63
(lp979
S'/home/vsvah/Desktop/Coursework/Sem3/SSAD/web2py'
p980
asbasbasbag56
(g72
g58
NtRp981
(dp982
g61
(dp983
sg70
g821
sg63
(lp984
g56
(g77
g58
NtRp985
(dp986
g61
(dp987
g81
g82
ssg70
g981
sg63
(lp988
S'http_accept'
p989
asbag56
(g77
g58
NtRp990
(dp991
g61
(dp992
g88
g89
ssg70
g981
sg63
(lp993
S':'
asbag56
(g77
g58
NtRp994
(dp995
g61
(dp996
sg70
g981
sg63
(lp997
g56
(g57
g58
NtRp998
(dp999
g61
(dp1000
g69
I4
ssg70
g994
sg63
(lp1001
S'text/html,application/xhtml+xml,application/xml;q=0.9,*/*;q=0.8'
p1002
asbasbasbag56
(g72
g58
NtRp1003
(dp1004
g61
(dp1005
sg70
g821
sg63
(lp1006
g56
(g77
g58
NtRp1007
(dp1008
g61
(dp1009
g81
g82
ssg70
g1003
sg63
(lp1010
S'http_accept_charset'
p1011
asbag56
(g77
g58
NtRp1012
(dp1013
g61
(dp1014
g88
g89
ssg70
g1003
sg63
(lp1015
S':'
asbag56
(g77
g58
NtRp1016
(dp1017
g61
(dp1018
sg70
g1003
sg63
(lp1019
g56
(g57
g58
NtRp1020
(dp1021
g61
(dp1022
g69
I4
ssg70
g1016
sg63
(lp1023
S'ISO-8859-1,utf-8;q=0.7,*;q=0.7'
p1024
asbasbasbag56
(g72
g58
NtRp1025
(dp1026
g61
(dp1027
sg70
g821
sg63
(lp1028
g56
(g77
g58
NtRp1029
(dp1030
g61
(dp1031
g81
g82
ssg70
g1025
sg63
(lp1032
S'http_accept_encoding'
p1033
asbag56
(g77
g58
NtRp1034
(dp1035
g61
(dp1036
g88
g89
ssg70
g1025
sg63
(lp1037
S':'
asbag56
(g77
g58
NtRp1038
(dp1039
g61
(dp1040
sg70
g1025
sg63
(lp1041
g56
(g57
g58
NtRp1042
(dp1043
g61
(dp1044
g69
I4
ssg70
g1038
sg63
(lp1045
S'gzip,deflate'
p1046
asbasbasbag56
(g72
g58
NtRp1047
(dp1048
g61
(dp1049
sg70
g821
sg63
(lp1050
g56
(g77
g58
NtRp1051
(dp1052
g61
(dp1053
g81
g82
ssg70
g1047
sg63
(lp1054
S'http_accept_language'
p1055
asbag56
(g77
g58
NtRp1056
(dp1057
g61
(dp1058
g88
g89
ssg70
g1047
sg63
(lp1059
S':'
asbag56
(g77
g58
NtRp1060
(dp1061
g61
(dp1062
sg70
g1047
sg63
(lp1063
g56
(g57
g58
NtRp1064
(dp1065
g61
(dp1066
g69
I4
ssg70
g1060
sg63
(lp1067
S'en-us,en;q=0.5'
p1068
asbasbasbag56
(g72
g58
NtRp1069
(dp1070
g61
(dp1071
sg70
g821
sg63
(lp1072
g56
(g77
g58
NtRp1073
(dp1074
g61
(dp1075
g81
g82
ssg70
g1069
sg63
(lp1076
S'http_connection'
p1077
asbag56
(g77
g58
NtRp1078
(dp1079
g61
(dp1080
g88
g89
ssg70
g1069
sg63
(lp1081
S':'
asbag56
(g77
g58
NtRp1082
(dp1083
g61
(dp1084
sg70
g1069
sg63
(lp1085
g56
(g57
g58
NtRp1086
(dp1087
g61
(dp1088
g69
I4
ssg70
g1082
sg63
(lp1089
S'keep-alive'
p1090
asbasbasbag56
(g72
g58
NtRp1091
(dp1092
g61
(dp1093
sg70
g821
sg63
(lp1094
g56
(g77
g58
NtRp1095
(dp1096
g61
(dp1097
g81
g82
ssg70
g1091
sg63
(lp1098
S'http_cookie'
p1099
asbag56
(g77
g58
NtRp1100
(dp1101
g61
(dp1102
g88
g89
ssg70
g1091
sg63
(lp1103
S':'
asbag56
(g77
g58
NtRp1104
(dp1105
g61
(dp1106
sg70
g1091
sg63
(lp1107
g56
(g57
g58
NtRp1108
(dp1109
g61
(dp1110
g69
I4
ssg70
g1104
sg63
(lp1111
S'session_id_welcome=127.0.0.1-60017955-a100-4bab-803b-a00037f3e933; session_id_admin=127.0.0.1-6e08d662-4206-44e0-900a-81fd115e8515; session_id_music_repo=127.0.0.1-58c50a89-5c2c-4324-a6ea-b9e20c8d0725'
p1112
asbasbasbag56
(g72
g58
NtRp1113
(dp1114
g61
(dp1115
sg70
g821
sg63
(lp1116
g56
(g77
g58
NtRp1117
(dp1118
g61
(dp1119
g81
g82
ssg70
g1113
sg63
(lp1120
S'http_host'
p1121
asbag56
(g77
g58
NtRp1122
(dp1123
g61
(dp1124
g88
g89
ssg70
g1113
sg63
(lp1125
S':'
asbag56
(g77
g58
NtRp1126
(dp1127
g61
(dp1128
sg70
g1113
sg63
(lp1129
g56
(g57
g58
NtRp1130
(dp1131
g61
(dp1132
g69
I4
ssg70
g1126
sg63
(lp1133
S'127.0.0.1:8000'
p1134
asbasbasbag56
(g72
g58
NtRp1135
(dp1136
g61
(dp1137
sg70
g821
sg63
(lp1138
g56
(g77
g58
NtRp1139
(dp1140
g61
(dp1141
g81
g82
ssg70
g1135
sg63
(lp1142
S'http_keep_alive'
p1143
asbag56
(g77
g58
NtRp1144
(dp1145
g61
(dp1146
g88
g89
ssg70
g1135
sg63
(lp1147
S':'
asbag56
(g77
g58
NtRp1148
(dp1149
g61
(dp1150
sg70
g1135
sg63
(lp1151
g56
(g57
g58
NtRp1152
(dp1153
g61
(dp1154
g69
I4
ssg70
g1148
sg63
(lp1155
S'115'
p1156
asbasbasbag56
(g72
g58
NtRp1157
(dp1158
g61
(dp1159
sg70
g821
sg63
(lp1160
g56
(g77
g58
NtRp1161
(dp1162
g61
(dp1163
g81
g82
ssg70
g1157
sg63
(lp1164
S'http_referer'
p1165
asbag56
(g77
g58
NtRp1166
(dp1167
g61
(dp1168
g88
g89
ssg70
g1157
sg63
(lp1169
S':'
asbag56
(g77
g58
NtRp1170
(dp1171
g61
(dp1172
sg70
g1157
sg63
(lp1173
g56
(g57
g58
NtRp1174
(dp1175
g61
(dp1176
g69
I4
ssg70
g1170
sg63
(lp1177
S'http://127.0.0.1:8000/Music_Repo/default/movie_artist_query'
p1178
asbasbasbag56
(g72
g58
NtRp1179
(dp1180
g61
(dp1181
sg70
g821
sg63
(lp1182
g56
(g77
g58
NtRp1183
(dp1184
g61
(dp1185
g81
g82
ssg70
g1179
sg63
(lp1186
S'http_user_agent'
p1187
asbag56
(g77
g58
NtRp1188
(dp1189
g61
(dp1190
g88
g89
ssg70
g1179
sg63
(lp1191
S':'
asbag56
(g77
g58
NtRp1192
(dp1193
g61
(dp1194
sg70
g1179
sg63
(lp1195
g56
(g57
g58
NtRp1196
(dp1197
g61
(dp1198
g69
I4
ssg70
g1192
sg63
(lp1199
S'Mozilla/5.0 (X11; U; Linux i686; en-US; rv:1.9.2.16) Gecko/20110323 Ubuntu/10.04 (lucid) Firefox/3.6.16'
p1200
asbasbasbag56
(g72
g58
NtRp1201
(dp1202
g61
(dp1203
sg70
g821
sg63
(lp1204
g56
(g77
g58
NtRp1205
(dp1206
g61
(dp1207
g81
g82
ssg70
g1201
sg63
(lp1208
S'is_jython'
p1209
asbag56
(g77
g58
NtRp1210
(dp1211
g61
(dp1212
g88
g89
ssg70
g1201
sg63
(lp1213
S':'
asbag56
(g77
g58
NtRp1214
(dp1215
g61
(dp1216
sg70
g1201
sg63
(lp1217
g56
(g57
g58
NtRp1218
(dp1219
g61
(dp1220
g69
I4
ssg70
g1214
sg63
(lp1221
g99
asbasbasbag56
(g72
g58
NtRp1222
(dp1223
g61
(dp1224
sg70
g821
sg63
(lp1225
g56
(g77
g58
NtRp1226
(dp1227
g61
(dp1228
g81
g82
ssg70
g1222
sg63
(lp1229
S'path_info'
p1230
asbag56
(g77
g58
NtRp1231
(dp1232
g61
(dp1233
g88
g89
ssg70
g1222
sg63
(lp1234
S':'
asbag56
(g77
g58
NtRp1235
(dp1236
g61
(dp1237
sg70
g1222
sg63
(lp1238
g56
(g57
g58
NtRp1239
(dp1240
g61
(dp1241
g69
I4
ssg70
g1235
sg63
(lp1242
S'/Music_Repo/default/display_link'
p1243
asbasbasbag56
(g72
g58
NtRp1244
(dp1245
g61
(dp1246
sg70
g821
sg63
(lp1247
g56
(g77
g58
NtRp1248
(dp1249
g61
(dp1250
g81
g82
ssg70
g1244
sg63
(lp1251
S'query_string'
p1252
asbag56
(g77
g58
NtRp1253
(dp1254
g61
(dp1255
g88
g89
ssg70
g1244
sg63
(lp1256
S':'
asbag56
(g77
g58
NtRp1257
(dp1258
g61
(dp1259
sg70
g1244
sg63
(lp1260
g56
(g57
g58
NtRp1261
(dp1262
g61
(dp1263
g69
I4
ssg70
g1257
sg63
(lp1264
S''
asbasbasbag56
(g72
g58
NtRp1265
(dp1266
g61
(dp1267
sg70
g821
sg63
(lp1268
g56
(g77
g58
NtRp1269
(dp1270
g61
(dp1271
g81
g82
ssg70
g1265
sg63
(lp1272
S'remote_addr'
p1273
asbag56
(g77
g58
NtRp1274
(dp1275
g61
(dp1276
g88
g89
ssg70
g1265
sg63
(lp1277
S':'
asbag56
(g77
g58
NtRp1278
(dp1279
g61
(dp1280
sg70
g1265
sg63
(lp1281
g56
(g57
g58
NtRp1282
(dp1283
g61
(dp1284
g69
I4
ssg70
g1278
sg63
(lp1285
g189
asbasbasbag56
(g72
g58
NtRp1286
(dp1287
g61
(dp1288
sg70
g821
sg63
(lp1289
g56
(g77
g58
NtRp1290
(dp1291
g61
(dp1292
g81
g82
ssg70
g1286
sg63
(lp1293
S'remote_port'
p1294
asbag56
(g77
g58
NtRp1295
(dp1296
g61
(dp1297
g88
g89
ssg70
g1286
sg63
(lp1298
S':'
asbag56
(g77
g58
NtRp1299
(dp1300
g61
(dp1301
sg70
g1286
sg63
(lp1302
g56
(g57
g58
NtRp1303
(dp1304
g61
(dp1305
g69
I4
ssg70
g1299
sg63
(lp1306
S'60395'
p1307
asbasbasbag56
(g72
g58
NtRp1308
(dp1309
g61
(dp1310
sg70
g821
sg63
(lp1311
g56
(g77
g58
NtRp1312
(dp1313
g61
(dp1314
g81
g82
ssg70
g1308
sg63
(lp1315
S'request_method'
p1316
asbag56
(g77
g58
NtRp1317
(dp1318
g61
(dp1319
g88
g89
ssg70
g1308
sg63
(lp1320
S':'
asbag56
(g77
g58
NtRp1321
(dp1322
g61
(dp1323
sg70
g1308
sg63
(lp1324
g56
(g57
g58
NtRp1325
(dp1326
g61
(dp1327
g69
I4
ssg70
g1321
sg63
(lp1328
S'GET'
p1329
asbasbasbag56
(g72
g58
NtRp1330
(dp1331
g61
(dp1332
sg70
g821
sg63
(lp1333
g56
(g77
g58
NtRp1334
(dp1335
g61
(dp1336
g81
g82
ssg70
g1330
sg63
(lp1337
S'script_name'
p1338
asbag56
(g77
g58
NtRp1339
(dp1340
g61
(dp1341
g88
g89
ssg70
g1330
sg63
(lp1342
S':'
asbag56
(g77
g58
NtRp1343
(dp1344
g61
(dp1345
sg70
g1330
sg63
(lp1346
g56
(g57
g58
NtRp1347
(dp1348
g61
(dp1349
g69
I4
ssg70
g1343
sg63
(lp1350
S''
asbasbasbag56
(g72
g58
NtRp1351
(dp1352
g61
(dp1353
sg70
g821
sg63
(lp1354
g56
(g77
g58
NtRp1355
(dp1356
g61
(dp1357
g81
g82
ssg70
g1351
sg63
(lp1358
S'server_name'
p1359
asbag56
(g77
g58
NtRp1360
(dp1361
g61
(dp1362
g88
g89
ssg70
g1351
sg63
(lp1363
S':'
asbag56
(g77
g58
NtRp1364
(dp1365
g61
(dp1366
sg70
g1351
sg63
(lp1367
g56
(g57
g58
NtRp1368
(dp1369
g61
(dp1370
g69
I4
ssg70
g1364
sg63
(lp1371
S'vsvah-laptop'
p1372
asbasbasbag56
(g72
g58
NtRp1373
(dp1374
g61
(dp1375
sg70
g821
sg63
(lp1376
g56
(g77
g58
NtRp1377
(dp1378
g61
(dp1379
g81
g82
ssg70
g1373
sg63
(lp1380
S'server_port'
p1381
asbag56
(g77
g58
NtRp1382
(dp1383
g61
(dp1384
g88
g89
ssg70
g1373
sg63
(lp1385
S':'
asbag56
(g77
g58
NtRp1386
(dp1387
g61
(dp1388
sg70
g1373
sg63
(lp1389
g56
(g57
g58
NtRp1390
(dp1391
g61
(dp1392
g69
I4
ssg70
g1386
sg63
(lp1393
S'8000'
p1394
asbasbasbag56
(g72
g58
NtRp1395
(dp1396
g61
(dp1397
sg70
g821
sg63
(lp1398
g56
(g77
g58
NtRp1399
(dp1400
g61
(dp1401
g81
g82
ssg70
g1395
sg63
(lp1402
S'server_protocol'
p1403
asbag56
(g77
g58
NtRp1404
(dp1405
g61
(dp1406
g88
g89
ssg70
g1395
sg63
(lp1407
S':'
asbag56
(g77
g58
NtRp1408
(dp1409
g61
(dp1410
sg70
g1395
sg63
(lp1411
g56
(g57
g58
NtRp1412
(dp1413
g61
(dp1414
g69
I4
ssg70
g1408
sg63
(lp1415
S'HTTP/1.1'
p1416
asbasbasbag56
(g72
g58
NtRp1417
(dp1418
g61
(dp1419
sg70
g821
sg63
(lp1420
g56
(g77
g58
NtRp1421
(dp1422
g61
(dp1423
g81
g82
ssg70
g1417
sg63
(lp1424
S'server_software'
p1425
asbag56
(g77
g58
NtRp1426
(dp1427
g61
(dp1428
g88
g89
ssg70
g1417
sg63
(lp1429
S':'
asbag56
(g77
g58
NtRp1430
(dp1431
g61
(dp1432
sg70
g1417
sg63
(lp1433
g56
(g57
g58
NtRp1434
(dp1435
g61
(dp1436
g69
I4
ssg70
g1430
sg63
(lp1437
S'Rocket 1.2.2'
p1438
asbasbasbag56
(g72
g58
NtRp1439
(dp1440
g61
(dp1441
sg70
g821
sg63
(lp1442
g56
(g77
g58
NtRp1443
(dp1444
g61
(dp1445
g81
g82
ssg70
g1439
sg63
(lp1446
S'web2py_crontype'
p1447
asbag56
(g77
g58
NtRp1448
(dp1449
g61
(dp1450
g88
g89
ssg70
g1439
sg63
(lp1451
S':'
asbag56
(g77
g58
NtRp1452
(dp1453
g61
(dp1454
sg70
g1439
sg63
(lp1455
g56
(g57
g58
NtRp1456
(dp1457
g61
(dp1458
g69
I4
ssg70
g1452
sg63
(lp1459
S'hard'
p1460
asbasbasbag56
(g72
g58
NtRp1461
(dp1462
g61
(dp1463
sg70
g821
sg63
(lp1464
g56
(g77
g58
NtRp1465
(dp1466
g61
(dp1467
g81
g82
ssg70
g1461
sg63
(lp1468
S'web2py_path'
p1469
asbag56
(g77
g58
NtRp1470
(dp1471
g61
(dp1472
g88
g89
ssg70
g1461
sg63
(lp1473
S':'
asbag56
(g77
g58
NtRp1474
(dp1475
g61
(dp1476
sg70
g1461
sg63
(lp1477
g56
(g57
g58
NtRp1478
(dp1479
g61
(dp1480
g69
I4
ssg70
g1474
sg63
(lp1481
g868
asbasbasbag56
(g72
g58
NtRp1482
(dp1483
g61
(dp1484
sg70
g821
sg63
(lp1485
g56
(g77
g58
NtRp1486
(dp1487
g61
(dp1488
g81
g82
ssg70
g1482
sg63
(lp1489
S'web2py_version'
p1490
asbag56
(g77
g58
NtRp1491
(dp1492
g61
(dp1493
g88
g89
ssg70
g1482
sg63
(lp1494
S':'
asbag56
(g77
g58
NtRp1495
(dp1496
g61
(dp1497
sg70
g1482
sg63
(lp1498
g56
(g57
g58
NtRp1499
(dp1500
g61
(dp1501
g69
I4
ssg70
g1495
sg63
(lp1502
S'Version 1.98.2 (2011-08-04 00:47:09)\n'
p1503
asbasbasbag56
(g72
g58
NtRp1504
(dp1505
g61
(dp1506
sg70
g821
sg63
(lp1507
g56
(g77
g58
NtRp1508
(dp1509
g61
(dp1510
g81
g82
ssg70
g1504
sg63
(lp1511
S'wsgi_errors'
p1512
asbag56
(g77
g58
NtRp1513
(dp1514
g61
(dp1515
g88
g89
ssg70
g1504
sg63
(lp1516
S':'
asbag56
(g77
g58
NtRp1517
(dp1518
g61
(dp1519
sg70
g1504
sg63
(lp1520
g56
(g57
g58
NtRp1521
(dp1522
g61
(dp1523
g69
I4
ssg70
g1517
sg63
(lp1524
S"<open file '<stderr>', mode 'w' at 0xb77850d0>"
p1525
asbasbasbag56
(g72
g58
NtRp1526
(dp1527
g61
(dp1528
sg70
g821
sg63
(lp1529
g56
(g77
g58
NtRp1530
(dp1531
g61
(dp1532
g81
g82
ssg70
g1526
sg63
(lp1533
S'wsgi_file_wrapper'
p1534
asbag56
(g77
g58
NtRp1535
(dp1536
g61
(dp1537
g88
g89
ssg70
g1526
sg63
(lp1538
S':'
asbag56
(g77
g58
NtRp1539
(dp1540
g61
(dp1541
sg70
g1526
sg63
(lp1542
g56
(g57
g58
NtRp1543
(dp1544
g61
(dp1545
g69
I4
ssg70
g1539
sg63
(lp1546
S'<class gluon.rocket.FileWrapper at 0x883408c>'
p1547
asbasbasbag56
(g72
g58
NtRp1548
(dp1549
g61
(dp1550
sg70
g821
sg63
(lp1551
g56
(g77
g58
NtRp1552
(dp1553
g61
(dp1554
g81
g82
ssg70
g1548
sg63
(lp1555
S'wsgi_input'
p1556
asbag56
(g77
g58
NtRp1557
(dp1558
g61
(dp1559
g88
g89
ssg70
g1548
sg63
(lp1560
S':'
asbag56
(g77
g58
NtRp1561
(dp1562
g61
(dp1563
sg70
g1548
sg63
(lp1564
g56
(g57
g58
NtRp1565
(dp1566
g61
(dp1567
g69
I4
ssg70
g1561
sg63
(lp1568
S'<socket._fileobject object at 0x8c6ff2c>'
p1569
asbasbasbag56
(g72
g58
NtRp1570
(dp1571
g61
(dp1572
sg70
g821
sg63
(lp1573
g56
(g77
g58
NtRp1574
(dp1575
g61
(dp1576
g81
g82
ssg70
g1570
sg63
(lp1577
S'wsgi_multiprocess'
p1578
asbag56
(g77
g58
NtRp1579
(dp1580
g61
(dp1581
g88
g89
ssg70
g1570
sg63
(lp1582
S':'
asbag56
(g77
g58
NtRp1583
(dp1584
g61
(dp1585
sg70
g1570
sg63
(lp1586
g56
(g57
g58
NtRp1587
(dp1588
g61
(dp1589
g69
I4
ssg70
g1583
sg63
(lp1590
g99
asbasbasbag56
(g72
g58
NtRp1591
(dp1592
g61
(dp1593
sg70
g821
sg63
(lp1594
g56
(g77
g58
NtRp1595
(dp1596
g61
(dp1597
g81
g82
ssg70
g1591
sg63
(lp1598
S'wsgi_multithread'
p1599
asbag56
(g77
g58
NtRp1600
(dp1601
g61
(dp1602
g88
g89
ssg70
g1591
sg63
(lp1603
S':'
asbag56
(g77
g58
NtRp1604
(dp1605
g61
(dp1606
sg70
g1591
sg63
(lp1607
g56
(g57
g58
NtRp1608
(dp1609
g61
(dp1610
g69
I4
ssg70
g1604
sg63
(lp1611
S'True'
p1612
asbasbasbag56
(g72
g58
NtRp1613
(dp1614
g61
(dp1615
sg70
g821
sg63
(lp1616
g56
(g77
g58
NtRp1617
(dp1618
g61
(dp1619
g81
g82
ssg70
g1613
sg63
(lp1620
S'wsgi_run_once'
p1621
asbag56
(g77
g58
NtRp1622
(dp1623
g61
(dp1624
g88
g89
ssg70
g1613
sg63
(lp1625
S':'
asbag56
(g77
g58
NtRp1626
(dp1627
g61
(dp1628
sg70
g1613
sg63
(lp1629
g56
(g57
g58
NtRp1630
(dp1631
g61
(dp1632
g69
I4
ssg70
g1626
sg63
(lp1633
g99
asbasbasbag56
(g72
g58
NtRp1634
(dp1635
g61
(dp1636
sg70
g821
sg63
(lp1637
g56
(g77
g58
NtRp1638
(dp1639
g61
(dp1640
g81
g82
ssg70
g1634
sg63
(lp1641
S'wsgi_url_scheme'
p1642
asbag56
(g77
g58
NtRp1643
(dp1644
g61
(dp1645
g88
g89
ssg70
g1634
sg63
(lp1646
S':'
asbag56
(g77
g58
NtRp1647
(dp1648
g61
(dp1649
sg70
g1634
sg63
(lp1650
g56
(g57
g58
NtRp1651
(dp1652
g61
(dp1653
g69
I4
ssg70
g1647
sg63
(lp1654
S'http'
p1655
asbasbasbag56
(g72
g58
NtRp1656
(dp1657
g61
(dp1658
sg70
g821
sg63
(lp1659
g56
(g77
g58
NtRp1660
(dp1661
g61
(dp1662
g81
g82
ssg70
g1656
sg63
(lp1663
S'wsgi_version'
p1664
asbag56
(g77
g58
NtRp1665
(dp1666
g61
(dp1667
g88
g89
ssg70
g1656
sg63
(lp1668
S':'
asbag56
(g77
g58
NtRp1669
(dp1670
g61
(dp1671
sg70
g1656
sg63
(lp1672
g56
(g57
g58
NtRp1673
(dp1674
g61
(dp1675
g69
I4
ssg70
g1669
sg63
(lp1676
g56
(g65
g58
NtRp1677
(dp1678
g61
(dp1679
g69
I3
ssg70
Nsg63
(lp1680
g56
(g72
g58
NtRp1681
(dp1682
g61
(dp1683
sg70
g1677
sg63
(lp1684
g56
(g77
g58
NtRp1685
(dp1686
g61
(dp1687
sg70
g1681
sg63
(lp1688
g56
(g57
g58
NtRp1689
(dp1690
g61
(dp1691
g69
I3
ssg70
g1685
sg63
(lp1692
S'1'
asbasbasbag56
(g72
g58
NtRp1693
(dp1694
g61
(dp1695
sg70
g1677
sg63
(lp1696
g56
(g77
g58
NtRp1697
(dp1698
g61
(dp1699
sg70
g1693
sg63
(lp1700
g56
(g57
g58
NtRp1701
(dp1702
g61
(dp1703
g69
I3
ssg70
g1697
sg63
(lp1704
S'0'
asbasbasbasbasbasbasbasbasbasbasbag56
(g72
g58
NtRp1705
(dp1706
g61
(dp1707
sg70
g66
sg63
(lp1708
g56
(g77
g58
NtRp1709
(dp1710
g61
(dp1711
g81
g82
ssg70
g1705
sg63
(lp1712
S'extension'
p1713
asbag56
(g77
g58
NtRp1714
(dp1715
g61
(dp1716
g88
g89
ssg70
g1705
sg63
(lp1717
S':'
asbag56
(g77
g58
NtRp1718
(dp1719
g61
(dp1720
sg70
g1705
sg63
(lp1721
g56
(g57
g58
NtRp1722
(dp1723
g61
(dp1724
g69
I5
ssg70
g1718
sg63
(lp1725
S'html'
p1726
asbasbasbag56
(g72
g58
NtRp1727
(dp1728
g61
(dp1729
sg70
g66
sg63
(lp1730
g56
(g77
g58
NtRp1731
(dp1732
g61
(dp1733
g81
g82
ssg70
g1727
sg63
(lp1734
S'folder'
p1735
asbag56
(g77
g58
NtRp1736
(dp1737
g61
(dp1738
g88
g89
ssg70
g1727
sg63
(lp1739
S':'
asbag56
(g77
g58
NtRp1740
(dp1741
g61
(dp1742
sg70
g1727
sg63
(lp1743
g56
(g57
g58
NtRp1744
(dp1745
g61
(dp1746
g69
I5
ssg70
g1740
sg63
(lp1747
S'/home/vsvah/Desktop/Coursework/Sem3/SSAD/web2py/applications/Music_Repo/'
p1748
asbasbasbag56
(g72
g58
NtRp1749
(dp1750
g61
(dp1751
sg70
g66
sg63
(lp1752
g56
(g77
g58
NtRp1753
(dp1754
g61
(dp1755
g81
g82
ssg70
g1749
sg63
(lp1756
S'function'
p1757
asbag56
(g77
g58
NtRp1758
(dp1759
g61
(dp1760
g88
g89
ssg70
g1749
sg63
(lp1761
S':'
asbag56
(g77
g58
NtRp1762
(dp1763
g61
(dp1764
sg70
g1749
sg63
(lp1765
g56
(g57
g58
NtRp1766
(dp1767
g61
(dp1768
g69
I5
ssg70
g1762
sg63
(lp1769
S'display_link'
p1770
asbasbasbag56
(g72
g58
NtRp1771
(dp1772
g61
(dp1773
sg70
g66
sg63
(lp1774
g56
(g77
g58
NtRp1775
(dp1776
g61
(dp1777
g81
g82
ssg70
g1771
sg63
(lp1778
S'get_vars'
p1779
asbag56
(g77
g58
NtRp1780
(dp1781
g61
(dp1782
g88
g89
ssg70
g1771
sg63
(lp1783
S':'
asbag56
(g77
g58
NtRp1784
(dp1785
g61
(dp1786
sg70
g1771
sg63
(lp1787
g56
(g57
g58
NtRp1788
(dp1789
g61
(dp1790
g69
I5
ssg70
g1784
sg63
(lp1791
g56
(g65
g58
NtRp1792
(dp1793
g61
(dp1794
g69
I4
ssg70
Nsg63
(lp1795
sbasbasbasbag56
(g72
g58
NtRp1796
(dp1797
g61
(dp1798
sg70
g66
sg63
(lp1799
g56
(g77
g58
NtRp1800
(dp1801
g61
(dp1802
g81
g82
ssg70
g1796
sg63
(lp1803
S'is_https'
p1804
asbag56
(g77
g58
NtRp1805
(dp1806
g61
(dp1807
g88
g89
ssg70
g1796
sg63
(lp1808
S':'
asbag56
(g77
g58
NtRp1809
(dp1810
g61
(dp1811
sg70
g1796
sg63
(lp1812
g56
(g57
g58
NtRp1813
(dp1814
g61
(dp1815
g69
I5
ssg70
g1809
sg63
(lp1816
g99
asbasbasbag56
(g72
g58
NtRp1817
(dp1818
g61
(dp1819
sg70
g66
sg63
(lp1820
g56
(g77
g58
NtRp1821
(dp1822
g61
(dp1823
g81
g82
ssg70
g1817
sg63
(lp1824
S'is_local'
p1825
asbag56
(g77
g58
NtRp1826
(dp1827
g61
(dp1828
g88
g89
ssg70
g1817
sg63
(lp1829
S':'
asbag56
(g77
g58
NtRp1830
(dp1831
g61
(dp1832
sg70
g1817
sg63
(lp1833
g56
(g57
g58
NtRp1834
(dp1835
g61
(dp1836
g69
I5
ssg70
g1830
sg63
(lp1837
g1612
asbasbasbag56
(g72
g58
NtRp1838
(dp1839
g61
(dp1840
sg70
g66
sg63
(lp1841
g56
(g77
g58
NtRp1842
(dp1843
g61
(dp1844
g81
g82
ssg70
g1838
sg63
(lp1845
S'is_restful'
p1846
asbag56
(g77
g58
NtRp1847
(dp1848
g61
(dp1849
g88
g89
ssg70
g1838
sg63
(lp1850
S':'
asbag56
(g77
g58
NtRp1851
(dp1852
g61
(dp1853
sg70
g1838
sg63
(lp1854
g56
(g57
g58
NtRp1855
(dp1856
g61
(dp1857
g69
I5
ssg70
g1851
sg63
(lp1858
g99
asbasbasbag56
(g72
g58
NtRp1859
(dp1860
g61
(dp1861
sg70
g66
sg63
(lp1862
g56
(g77
g58
NtRp1863
(dp1864
g61
(dp1865
g81
g82
ssg70
g1859
sg63
(lp1866
S'now'
p1867
asbag56
(g77
g58
NtRp1868
(dp1869
g61
(dp1870
g88
g89
ssg70
g1859
sg63
(lp1871
S':'
asbag56
(g77
g58
NtRp1872
(dp1873
g61
(dp1874
sg70
g1859
sg63
(lp1875
g56
(g57
g58
NtRp1876
(dp1877
g61
(dp1878
g69
I5
ssg70
g1872
sg63
(lp1879
S'datetime.datetime(2011, 9, 5, 22, 12, 37, 414848)'
p1880
asbasbasbag56
(g72
g58
NtRp1881
(dp1882
g61
(dp1883
sg70
g66
sg63
(lp1884
g56
(g77
g58
NtRp1885
(dp1886
g61
(dp1887
g81
g82
ssg70
g1881
sg63
(lp1888
S'post_vars'
p1889
asbag56
(g77
g58
NtRp1890
(dp1891
g61
(dp1892
g88
g89
ssg70
g1881
sg63
(lp1893
S':'
asbag56
(g77
g58
NtRp1894
(dp1895
g61
(dp1896
sg70
g1881
sg63
(lp1897
g56
(g57
g58
NtRp1898
(dp1899
g61
(dp1900
g69
I5
ssg70
g1894
sg63
(lp1901
g56
(g65
g58
NtRp1902
(dp1903
g61
(dp1904
g69
I4
ssg70
Nsg63
(lp1905
sbasbasbasbag56
(g72
g58
NtRp1906
(dp1907
g61
(dp1908
sg70
g66
sg63
(lp1909
g56
(g77
g58
NtRp1910
(dp1911
g61
(dp1912
g81
g82
ssg70
g1906
sg63
(lp1913
S'url'
p1914
asbag56
(g77
g58
NtRp1915
(dp1916
g61
(dp1917
g88
g89
ssg70
g1906
sg63
(lp1918
S':'
asbag56
(g77
g58
NtRp1919
(dp1920
g61
(dp1921
sg70
g1906
sg63
(lp1922
g56
(g57
g58
NtRp1923
(dp1924
g61
(dp1925
g69
I5
ssg70
g1919
sg63
(lp1926
S'/Music_Repo/default/display_link'
p1927
asbasbasbag56
(g72
g58
NtRp1928
(dp1929
g61
(dp1930
sg70
g66
sg63
(lp1931
g56
(g77
g58
NtRp1932
(dp1933
g61
(dp1934
g81
g82
ssg70
g1928
sg63
(lp1935
S'uuid'
p1936
asbag56
(g77
g58
NtRp1937
(dp1938
g61
(dp1939
g88
g89
ssg70
g1928
sg63
(lp1940
S':'
asbag56
(g77
g58
NtRp1941
(dp1942
g61
(dp1943
sg70
g1928
sg63
(lp1944
g56
(g57
g58
NtRp1945
(dp1946
g61
(dp1947
g69
I5
ssg70
g1941
sg63
(lp1948
S'Music_Repo/127.0.0.1.2011-09-05.22-12-37.d5e08177-bb0d-4c35-981a-d57e72b96611'
p1949
asbasbasbag56
(g72
g58
NtRp1950
(dp1951
g61
(dp1952
sg70
g66
sg63
(lp1953
g56
(g77
g58
NtRp1954
(dp1955
g61
(dp1956
g81
g82
ssg70
g1950
sg63
(lp1957
S'vars'
p1958
asbag56
(g77
g58
NtRp1959
(dp1960
g61
(dp1961
g88
g89
ssg70
g1950
sg63
(lp1962
S':'
asbag56
(g77
g58
NtRp1963
(dp1964
g61
(dp1965
sg70
g1950
sg63
(lp1966
g56
(g57
g58
NtRp1967
(dp1968
g61
(dp1969
g69
I5
ssg70
g1963
sg63
(lp1970
g56
(g65
g58
NtRp1971
(dp1972
g61
(dp1973
g69
I4
ssg70
Nsg63
(lp1974
sbasbasbasbag56
(g72
g58
NtRp1975
(dp1976
g61
(dp1977
sg70
g66
sg63
(lp1978
g56
(g77
g58
NtRp1979
(dp1980
g61
(dp1981
g81
g82
ssg70
g1975
sg63
(lp1982
S'wsgi'
p1983
asbag56
(g77
g58
NtRp1984
(dp1985
g61
(dp1986
g88
g89
ssg70
g1975
sg63
(lp1987
S':'
asbag56
(g77
g58
NtRp1988
(dp1989
g61
(dp1990
sg70
g1975
sg63
(lp1991
g56
(g57
g58
NtRp1992
(dp1993
g61
(dp1994
g69
I5
ssg70
g1988
sg63
(lp1995
g56
(g65
g58
NtRp1996
(dp1997
g61
(dp1998
g69
I4
ssg70
Nsg63
(lp1999
g56
(g72
g58
NtRp2000
(dp2001
g61
(dp2002
sg70
g1996
sg63
(lp2003
g56
(g77
g58
NtRp2004
(dp2005
g61
(dp2006
g81
g82
ssg70
g2000
sg63
(lp2007
S'environ'
p2008
asbag56
(g77
g58
NtRp2009
(dp2010
g61
(dp2011
g88
g89
ssg70
g2000
sg63
(lp2012
S':'
asbag56
(g77
g58
NtRp2013
(dp2014
g61
(dp2015
sg70
g2000
sg63
(lp2016
g56
(g57
g58
NtRp2017
(dp2018
g61
(dp2019
g69
I4
ssg70
g2013
sg63
(lp2020
g56
(g65
g58
NtRp2021
(dp2022
g61
(dp2023
g69
I3
ssg70
Nsg63
(lp2024
g56
(g72
g58
NtRp2025
(dp2026
g61
(dp2027
sg70
g2021
sg63
(lp2028
g56
(g77
g58
NtRp2029
(dp2030
g61
(dp2031
g81
g82
ssg70
g2025
sg63
(lp2032
S'HTTP_ACCEPT'
p2033
asbag56
(g77
g58
NtRp2034
(dp2035
g61
(dp2036
g88
g89
ssg70
g2025
sg63
(lp2037
S':'
asbag56
(g77
g58
NtRp2038
(dp2039
g61
(dp2040
sg70
g2025
sg63
(lp2041
g56
(g57
g58
NtRp2042
(dp2043
g61
(dp2044
g69
I3
ssg70
g2038
sg63
(lp2045
g1002
asbasbasbag56
(g72
g58
NtRp2046
(dp2047
g61
(dp2048
sg70
g2021
sg63
(lp2049
g56
(g77
g58
NtRp2050
(dp2051
g61
(dp2052
g81
g82
ssg70
g2046
sg63
(lp2053
S'HTTP_ACCEPT_CHARSET'
p2054
asbag56
(g77
g58
NtRp2055
(dp2056
g61
(dp2057
g88
g89
ssg70
g2046
sg63
(lp2058
S':'
asbag56
(g77
g58
NtRp2059
(dp2060
g61
(dp2061
sg70
g2046
sg63
(lp2062
g56
(g57
g58
NtRp2063
(dp2064
g61
(dp2065
g69
I3
ssg70
g2059
sg63
(lp2066
g1024
asbasbasbag56
(g72
g58
NtRp2067
(dp2068
g61
(dp2069
sg70
g2021
sg63
(lp2070
g56
(g77
g58
NtRp2071
(dp2072
g61
(dp2073
g81
g82
ssg70
g2067
sg63
(lp2074
S'HTTP_ACCEPT_ENCODING'
p2075
asbag56
(g77
g58
NtRp2076
(dp2077
g61
(dp2078
g88
g89
ssg70
g2067
sg63
(lp2079
S':'
asbag56
(g77
g58
NtRp2080
(dp2081
g61
(dp2082
sg70
g2067
sg63
(lp2083
g56
(g57
g58
NtRp2084
(dp2085
g61
(dp2086
g69
I3
ssg70
g2080
sg63
(lp2087
g1046
asbasbasbag56
(g72
g58
NtRp2088
(dp2089
g61
(dp2090
sg70
g2021
sg63
(lp2091
g56
(g77
g58
NtRp2092
(dp2093
g61
(dp2094
g81
g82
ssg70
g2088
sg63
(lp2095
S'HTTP_ACCEPT_LANGUAGE'
p2096
asbag56
(g77
g58
NtRp2097
(dp2098
g61
(dp2099
g88
g89
ssg70
g2088
sg63
(lp2100
S':'
asbag56
(g77
g58
NtRp2101
(dp2102
g61
(dp2103
sg70
g2088
sg63
(lp2104
g56
(g57
g58
NtRp2105
(dp2106
g61
(dp2107
g69
I3
ssg70
g2101
sg63
(lp2108
g1068
asbasbasbag56
(g72
g58
NtRp2109
(dp2110
g61
(dp2111
sg70
g2021
sg63
(lp2112
g56
(g77
g58
NtRp2113
(dp2114
g61
(dp2115
g81
g82
ssg70
g2109
sg63
(lp2116
S'HTTP_CONNECTION'
p2117
asbag56
(g77
g58
NtRp2118
(dp2119
g61
(dp2120
g88
g89
ssg70
g2109
sg63
(lp2121
S':'
asbag56
(g77
g58
NtRp2122
(dp2123
g61
(dp2124
sg70
g2109
sg63
(lp2125
g56
(g57
g58
NtRp2126
(dp2127
g61
(dp2128
g69
I3
ssg70
g2122
sg63
(lp2129
g1090
asbasbasbag56
(g72
g58
NtRp2130
(dp2131
g61
(dp2132
sg70
g2021
sg63
(lp2133
g56
(g77
g58
NtRp2134
(dp2135
g61
(dp2136
g81
g82
ssg70
g2130
sg63
(lp2137
S'HTTP_COOKIE'
p2138
asbag56
(g77
g58
NtRp2139
(dp2140
g61
(dp2141
g88
g89
ssg70
g2130
sg63
(lp2142
S':'
asbag56
(g77
g58
NtRp2143
(dp2144
g61
(dp2145
sg70
g2130
sg63
(lp2146
g56
(g57
g58
NtRp2147
(dp2148
g61
(dp2149
g69
I3
ssg70
g2143
sg63
(lp2150
g1112
asbasbasbag56
(g72
g58
NtRp2151
(dp2152
g61
(dp2153
sg70
g2021
sg63
(lp2154
g56
(g77
g58
NtRp2155
(dp2156
g61
(dp2157
g81
g82
ssg70
g2151
sg63
(lp2158
S'HTTP_HOST'
p2159
asbag56
(g77
g58
NtRp2160
(dp2161
g61
(dp2162
g88
g89
ssg70
g2151
sg63
(lp2163
S':'
asbag56
(g77
g58
NtRp2164
(dp2165
g61
(dp2166
sg70
g2151
sg63
(lp2167
g56
(g57
g58
NtRp2168
(dp2169
g61
(dp2170
g69
I3
ssg70
g2164
sg63
(lp2171
g1134
asbasbasbag56
(g72
g58
NtRp2172
(dp2173
g61
(dp2174
sg70
g2021
sg63
(lp2175
g56
(g77
g58
NtRp2176
(dp2177
g61
(dp2178
g81
g82
ssg70
g2172
sg63
(lp2179
S'HTTP_KEEP_ALIVE'
p2180
asbag56
(g77
g58
NtRp2181
(dp2182
g61
(dp2183
g88
g89
ssg70
g2172
sg63
(lp2184
S':'
asbag56
(g77
g58
NtRp2185
(dp2186
g61
(dp2187
sg70
g2172
sg63
(lp2188
g56
(g57
g58
NtRp2189
(dp2190
g61
(dp2191
g69
I3
ssg70
g2185
sg63
(lp2192
g1156
asbasbasbag56
(g72
g58
NtRp2193
(dp2194
g61
(dp2195
sg70
g2021
sg63
(lp2196
g56
(g77
g58
NtRp2197
(dp2198
g61
(dp2199
g81
g82
ssg70
g2193
sg63
(lp2200
S'HTTP_REFERER'
p2201
asbag56
(g77
g58
NtRp2202
(dp2203
g61
(dp2204
g88
g89
ssg70
g2193
sg63
(lp2205
S':'
asbag56
(g77
g58
NtRp2206
(dp2207
g61
(dp2208
sg70
g2193
sg63
(lp2209
g56
(g57
g58
NtRp2210
(dp2211
g61
(dp2212
g69
I3
ssg70
g2206
sg63
(lp2213
g1178
asbasbasbag56
(g72
g58
NtRp2214
(dp2215
g61
(dp2216
sg70
g2021
sg63
(lp2217
g56
(g77
g58
NtRp2218
(dp2219
g61
(dp2220
g81
g82
ssg70
g2214
sg63
(lp2221
S'HTTP_USER_AGENT'
p2222
asbag56
(g77
g58
NtRp2223
(dp2224
g61
(dp2225
g88
g89
ssg70
g2214
sg63
(lp2226
S':'
asbag56
(g77
g58
NtRp2227
(dp2228
g61
(dp2229
sg70
g2214
sg63
(lp2230
g56
(g57
g58
NtRp2231
(dp2232
g61
(dp2233
g69
I3
ssg70
g2227
sg63
(lp2234
g1200
asbasbasbag56
(g72
g58
NtRp2235
(dp2236
g61
(dp2237
sg70
g2021
sg63
(lp2238
g56
(g77
g58
NtRp2239
(dp2240
g61
(dp2241
g81
g82
ssg70
g2235
sg63
(lp2242
S'PATH_INFO'
p2243
asbag56
(g77
g58
NtRp2244
(dp2245
g61
(dp2246
g88
g89
ssg70
g2235
sg63
(lp2247
S':'
asbag56
(g77
g58
NtRp2248
(dp2249
g61
(dp2250
sg70
g2235
sg63
(lp2251
g56
(g57
g58
NtRp2252
(dp2253
g61
(dp2254
g69
I3
ssg70
g2248
sg63
(lp2255
g1243
asbasbasbag56
(g72
g58
NtRp2256
(dp2257
g61
(dp2258
sg70
g2021
sg63
(lp2259
g56
(g77
g58
NtRp2260
(dp2261
g61
(dp2262
g81
g82
ssg70
g2256
sg63
(lp2263
S'QUERY_STRING'
p2264
asbag56
(g77
g58
NtRp2265
(dp2266
g61
(dp2267
g88
g89
ssg70
g2256
sg63
(lp2268
S':'
asbag56
(g77
g58
NtRp2269
(dp2270
g61
(dp2271
sg70
g2256
sg63
(lp2272
g56
(g57
g58
NtRp2273
(dp2274
g61
(dp2275
g69
I3
ssg70
g2269
sg63
(lp2276
S''
asbasbasbag56
(g72
g58
NtRp2277
(dp2278
g61
(dp2279
sg70
g2021
sg63
(lp2280
g56
(g77
g58
NtRp2281
(dp2282
g61
(dp2283
g81
g82
ssg70
g2277
sg63
(lp2284
S'REMOTE_ADDR'
p2285
asbag56
(g77
g58
NtRp2286
(dp2287
g61
(dp2288
g88
g89
ssg70
g2277
sg63
(lp2289
S':'
asbag56
(g77
g58
NtRp2290
(dp2291
g61
(dp2292
sg70
g2277
sg63
(lp2293
g56
(g57
g58
NtRp2294
(dp2295
g61
(dp2296
g69
I3
ssg70
g2290
sg63
(lp2297
g189
asbasbasbag56
(g72
g58
NtRp2298
(dp2299
g61
(dp2300
sg70
g2021
sg63
(lp2301
g56
(g77
g58
NtRp2302
(dp2303
g61
(dp2304
g81
g82
ssg70
g2298
sg63
(lp2305
S'REMOTE_PORT'
p2306
asbag56
(g77
g58
NtRp2307
(dp2308
g61
(dp2309
g88
g89
ssg70
g2298
sg63
(lp2310
S':'
asbag56
(g77
g58
NtRp2311
(dp2312
g61
(dp2313
sg70
g2298
sg63
(lp2314
g56
(g57
g58
NtRp2315
(dp2316
g61
(dp2317
g69
I3
ssg70
g2311
sg63
(lp2318
g1307
asbasbasbag56
(g72
g58
NtRp2319
(dp2320
g61
(dp2321
sg70
g2021
sg63
(lp2322
g56
(g77
g58
NtRp2323
(dp2324
g61
(dp2325
g81
g82
ssg70
g2319
sg63
(lp2326
S'REQUEST_METHOD'
p2327
asbag56
(g77
g58
NtRp2328
(dp2329
g61
(dp2330
g88
g89
ssg70
g2319
sg63
(lp2331
S':'
asbag56
(g77
g58
NtRp2332
(dp2333
g61
(dp2334
sg70
g2319
sg63
(lp2335
g56
(g57
g58
NtRp2336
(dp2337
g61
(dp2338
g69
I3
ssg70
g2332
sg63
(lp2339
g1329
asbasbasbag56
(g72
g58
NtRp2340
(dp2341
g61
(dp2342
sg70
g2021
sg63
(lp2343
g56
(g77
g58
NtRp2344
(dp2345
g61
(dp2346
g81
g82
ssg70
g2340
sg63
(lp2347
S'SCRIPT_NAME'
p2348
asbag56
(g77
g58
NtRp2349
(dp2350
g61
(dp2351
g88
g89
ssg70
g2340
sg63
(lp2352
S':'
asbag56
(g77
g58
NtRp2353
(dp2354
g61
(dp2355
sg70
g2340
sg63
(lp2356
g56
(g57
g58
NtRp2357
(dp2358
g61
(dp2359
g69
I3
ssg70
g2353
sg63
(lp2360
S''
asbasbasbag56
(g72
g58
NtRp2361
(dp2362
g61
(dp2363
sg70
g2021
sg63
(lp2364
g56
(g77
g58
NtRp2365
(dp2366
g61
(dp2367
g81
g82
ssg70
g2361
sg63
(lp2368
S'SERVER_NAME'
p2369
asbag56
(g77
g58
NtRp2370
(dp2371
g61
(dp2372
g88
g89
ssg70
g2361
sg63
(lp2373
S':'
asbag56
(g77
g58
NtRp2374
(dp2375
g61
(dp2376
sg70
g2361
sg63
(lp2377
g56
(g57
g58
NtRp2378
(dp2379
g61
(dp2380
g69
I3
ssg70
g2374
sg63
(lp2381
g1372
asbasbasbag56
(g72
g58
NtRp2382
(dp2383
g61
(dp2384
sg70
g2021
sg63
(lp2385
g56
(g77
g58
NtRp2386
(dp2387
g61
(dp2388
g81
g82
ssg70
g2382
sg63
(lp2389
S'SERVER_PORT'
p2390
asbag56
(g77
g58
NtRp2391
(dp2392
g61
(dp2393
g88
g89
ssg70
g2382
sg63
(lp2394
S':'
asbag56
(g77
g58
NtRp2395
(dp2396
g61
(dp2397
sg70
g2382
sg63
(lp2398
g56
(g57
g58
NtRp2399
(dp2400
g61
(dp2401
g69
I3
ssg70
g2395
sg63
(lp2402
g1394
asbasbasbag56
(g72
g58
NtRp2403
(dp2404
g61
(dp2405
sg70
g2021
sg63
(lp2406
g56
(g77
g58
NtRp2407
(dp2408
g61
(dp2409
g81
g82
ssg70
g2403
sg63
(lp2410
S'SERVER_PROTOCOL'
p2411
asbag56
(g77
g58
NtRp2412
(dp2413
g61
(dp2414
g88
g89
ssg70
g2403
sg63
(lp2415
S':'
asbag56
(g77
g58
NtRp2416
(dp2417
g61
(dp2418
sg70
g2403
sg63
(lp2419
g56
(g57
g58
NtRp2420
(dp2421
g61
(dp2422
g69
I3
ssg70
g2416
sg63
(lp2423
g1416
asbasbasbag56
(g72
g58
NtRp2424
(dp2425
g61
(dp2426
sg70
g2021
sg63
(lp2427
g56
(g77
g58
NtRp2428
(dp2429
g61
(dp2430
g81
g82
ssg70
g2424
sg63
(lp2431
S'SERVER_SOFTWARE'
p2432
asbag56
(g77
g58
NtRp2433
(dp2434
g61
(dp2435
g88
g89
ssg70
g2424
sg63
(lp2436
S':'
asbag56
(g77
g58
NtRp2437
(dp2438
g61
(dp2439
sg70
g2424
sg63
(lp2440
g56
(g57
g58
NtRp2441
(dp2442
g61
(dp2443
g69
I3
ssg70
g2437
sg63
(lp2444
g1438
asbasbasbag56
(g72
g58
NtRp2445
(dp2446
g61
(dp2447
sg70
g2021
sg63
(lp2448
g56
(g77
g58
NtRp2449
(dp2450
g61
(dp2451
g81
g82
ssg70
g2445
sg63
(lp2452
S'wsgi.errors'
p2453
asbag56
(g77
g58
NtRp2454
(dp2455
g61
(dp2456
g88
g89
ssg70
g2445
sg63
(lp2457
S':'
asbag56
(g77
g58
NtRp2458
(dp2459
g61
(dp2460
sg70
g2445
sg63
(lp2461
g56
(g57
g58
NtRp2462
(dp2463
g61
(dp2464
g69
I3
ssg70
g2458
sg63
(lp2465
S"<open file '<stderr>', mode 'w' at 0xb77850d0>"
p2466
asbasbasbag56
(g72
g58
NtRp2467
(dp2468
g61
(dp2469
sg70
g2021
sg63
(lp2470
g56
(g77
g58
NtRp2471
(dp2472
g61
(dp2473
g81
g82
ssg70
g2467
sg63
(lp2474
S'wsgi.file_wrapper'
p2475
asbag56
(g77
g58
NtRp2476
(dp2477
g61
(dp2478
g88
g89
ssg70
g2467
sg63
(lp2479
S':'
asbag56
(g77
g58
NtRp2480
(dp2481
g61
(dp2482
sg70
g2467
sg63
(lp2483
g56
(g57
g58
NtRp2484
(dp2485
g61
(dp2486
g69
I3
ssg70
g2480
sg63
(lp2487
S'<class gluon.rocket.FileWrapper at 0x883408c>'
p2488
asbasbasbag56
(g72
g58
NtRp2489
(dp2490
g61
(dp2491
sg70
g2021
sg63
(lp2492
g56
(g77
g58
NtRp2493
(dp2494
g61
(dp2495
g81
g82
ssg70
g2489
sg63
(lp2496
S'wsgi.input'
p2497
asbag56
(g77
g58
NtRp2498
(dp2499
g61
(dp2500
g88
g89
ssg70
g2489
sg63
(lp2501
S':'
asbag56
(g77
g58
NtRp2502
(dp2503
g61
(dp2504
sg70
g2489
sg63
(lp2505
g56
(g57
g58
NtRp2506
(dp2507
g61
(dp2508
g69
I3
ssg70
g2502
sg63
(lp2509
S'<cStringIO.StringO object at 0x8faa1a0>'
p2510
asbasbasbag56
(g72
g58
NtRp2511
(dp2512
g61
(dp2513
sg70
g2021
sg63
(lp2514
g56
(g77
g58
NtRp2515
(dp2516
g61
(dp2517
g81
g82
ssg70
g2511
sg63
(lp2518
S'wsgi.multiprocess'
p2519
asbag56
(g77
g58
NtRp2520
(dp2521
g61
(dp2522
g88
g89
ssg70
g2511
sg63
(lp2523
S':'
asbag56
(g77
g58
NtRp2524
(dp2525
g61
(dp2526
sg70
g2511
sg63
(lp2527
g56
(g57
g58
NtRp2528
(dp2529
g61
(dp2530
g69
I3
ssg70
g2524
sg63
(lp2531
g99
asbasbasbag56
(g72
g58
NtRp2532
(dp2533
g61
(dp2534
sg70
g2021
sg63
(lp2535
g56
(g77
g58
NtRp2536
(dp2537
g61
(dp2538
g81
g82
ssg70
g2532
sg63
(lp2539
S'wsgi.multithread'
p2540
asbag56
(g77
g58
NtRp2541
(dp2542
g61
(dp2543
g88
g89
ssg70
g2532
sg63
(lp2544
S':'
asbag56
(g77
g58
NtRp2545
(dp2546
g61
(dp2547
sg70
g2532
sg63
(lp2548
g56
(g57
g58
NtRp2549
(dp2550
g61
(dp2551
g69
I3
ssg70
g2545
sg63
(lp2552
g1612
asbasbasbag56
(g72
g58
NtRp2553
(dp2554
g61
(dp2555
sg70
g2021
sg63
(lp2556
g56
(g77
g58
NtRp2557
(dp2558
g61
(dp2559
g81
g82
ssg70
g2553
sg63
(lp2560
S'wsgi.run_once'
p2561
asbag56
(g77
g58
NtRp2562
(dp2563
g61
(dp2564
g88
g89
ssg70
g2553
sg63
(lp2565
S':'
asbag56
(g77
g58
NtRp2566
(dp2567
g61
(dp2568
sg70
g2553
sg63
(lp2569
g56
(g57
g58
NtRp2570
(dp2571
g61
(dp2572
g69
I3
ssg70
g2566
sg63
(lp2573
g99
asbasbasbag56
(g72
g58
NtRp2574
(dp2575
g61
(dp2576
sg70
g2021
sg63
(lp2577
g56
(g77
g58
NtRp2578
(dp2579
g61
(dp2580
g81
g82
ssg70
g2574
sg63
(lp2581
S'wsgi.url_scheme'
p2582
asbag56
(g77
g58
NtRp2583
(dp2584
g61
(dp2585
g88
g89
ssg70
g2574
sg63
(lp2586
S':'
asbag56
(g77
g58
NtRp2587
(dp2588
g61
(dp2589
sg70
g2574
sg63
(lp2590
g56
(g57
g58
NtRp2591
(dp2592
g61
(dp2593
g69
I3
ssg70
g2587
sg63
(lp2594
g1655
asbasbasbag56
(g72
g58
NtRp2595
(dp2596
g61
(dp2597
sg70
g2021
sg63
(lp2598
g56
(g77
g58
NtRp2599
(dp2600
g61
(dp2601
g81
g82
ssg70
g2595
sg63
(lp2602
S'wsgi.version'
p2603
asbag56
(g77
g58
NtRp2604
(dp2605
g61
(dp2606
g88
g89
ssg70
g2595
sg63
(lp2607
S':'
asbag56
(g77
g58
NtRp2608
(dp2609
g61
(dp2610
sg70
g2595
sg63
(lp2611
g56
(g57
g58
NtRp2612
(dp2613
g61
(dp2614
g69
I3
ssg70
g2608
sg63
(lp2615
S'1'
asbasbasbasbasbasbasbasbasbasbasbasbasbsS'frames'
p2616
(lp2617
(dp2618
S'file'
p2619
S'/home/vsvah/Desktop/Coursework/Sem3/SSAD/web2py/gluon/restricted.py'
p2620
sS'dump'
p2621
(dp2622
S'environment'
p2623
S"{'A': <class 'gluon.html.A'>, 'Auth': <class 'gluon.tools.Auth'>, 'B': <class 'gluon.html.B'>, 'BEAUTIFY': <class 'gluon.html.BEAUTIFY'>, 'BODY': <class 'gluon.html.BODY'>, 'BR': <class 'gluon.html.BR'>, 'BUTTON': <class 'gluon.html.BUTTON'>, 'CAT': <class 'gluon.html.CAT'>, 'CENTER': <class 'gluon.html.CENTER'>, 'CLEANUP': <class 'gluon.validators.CLEANUP'>, ...}"
p2624
sS'ccode'
p2625
S'<code object <module> at 0x928b698, file "/home/...ions/Music_Repo/controllers/default.py", line 12>'
p2626
ssS'lnum'
p2627
I192
sS'lines'
p2628
(dp2629
I192
S'        exec ccode in environment'
p2630
sI193
S'    except HTTP:'
p2631
sI194
S'        raise'
p2632
sI195
S'    except Exception, error:'
p2633
sI196
S'        # XXX Show exception in Wing IDE if running in debugger'
p2634
sI187
S'    try:'
p2635
sI188
S'        if type(code) == types.CodeType:'
p2636
sI189
S'            ccode = code'
p2637
sI190
S'        else:'
p2638
sI191
S'            ccode = compile2(code,layer)'
p2639
ssS'call'
p2640
S"(code='# -*- coding: utf-8 -*-\\n# this file is released ...\\t\\n\\nresponse._vars=response._caller(display_link)\\n', environment={'A': <class 'gluon.html.A'>, 'Auth': <class 'gluon.tools.Auth'>, 'B': <class 'gluon.html.B'>, 'BEAUTIFY': <class 'gluon.html.BEAUTIFY'>, 'BODY': <class 'gluon.html.BODY'>, 'BR': <class 'gluon.html.BR'>, 'BUTTON': <class 'gluon.html.BUTTON'>, 'CAT': <class 'gluon.html.CAT'>, 'CENTER': <class 'gluon.html.CENTER'>, 'CLEANUP': <class 'gluon.validators.CLEANUP'>, ...}, layer='/home/vsvah/Desktop/Coursework/Sem3/SSAD/web2py/applications/Music_Repo/controllers/default.py')"
p2641
sS'func'
p2642
S'restricted'
p2643
sa(dp2644
g2619
S'/home/vsvah/Desktop/Coursework/Sem3/SSAD/web2py/applications/Music_Repo/controllers/default.py'
p2645
sg2621
(dp2646
sg2627
I195
sg2628
(dp2647
I192
S'        return dict(r="All Tables Successfully Cleared :D")'
p2648
sI193
S''
sI184
S'\trow=db((db.song.rating>=4) & (db.song.singer==db.artist.id)).select(db.song.name,db.artist.name)'
p2649
sI185
S'\treturn dict(r=row)'
p2650
sI186
S''
sI187
S'def reset_state():'
p2651
sI188
S'\tdb.artist.truncate()'
p2652
sI189
S'\tdb.song.truncate()'
p2653
sI190
S'\tdb.movie.truncate()'
p2654
sI191
S'\tdb.rating.truncate()'
p2655
ssg2640
S'()'
p2656
sg2642
S'<module>'
p2657
sa(dp2658
g2619
S'/home/vsvah/Desktop/Coursework/Sem3/SSAD/web2py/gluon/globals.py'
p2659
sg2621
(dp2660
S'self'
p2661
S'undefined'
p2662
sS'f'
S'<function display_link>'
p2663
ssg2627
I145
sg2628
(dp2664
I140
S'        self.meta = Storage()      # used by web2py_ajax.html'
p2665
sI141
S'        self.menu = []             # used by the default view layout'
p2666
sI142
S'        self.files = []            # used by web2py_ajax.html'
p2667
sI143
S'        self.generic_patterns = [] # patterns to allow generic views'
p2668
sI144
S'        self._vars = None'
p2669
sI145
S'        self._caller = lambda f: f()'
p2670
sI146
S'        self._view_environment = None'
p2671
sI147
S'        self._custom_commit = None'
p2672
sI148
S'        self._custom_rollback = None'
p2673
sI149
S''
ssg2640
S'(f=<function display_link>)'
p2674
sg2642
S'<lambda>'
p2675
sa(dp2676
g2619
S'/home/vsvah/Desktop/Coursework/Sem3/SSAD/web2py/applications/Music_Repo/controllers/default.py'
p2677
sg2621
(dp2678
S'rows'
p2679
g2662
sS'db.song'
p2680
S"<Table {'composer': <gluon.dal.Field object at 0...c>, 'id': <gluon.dal.Field object at 0x929306c>}>"
p2681
sS').select'
p2682
g2662
sS'session.movie'
p2683
S"'123'"
p2684
sS'db.movie'
p2685
S"<Table {'director': <gluon.dal.Field object at 0...c>, 'id': <gluon.dal.Field object at 0x927982c>}>"
p2686
sS'global session'
p2687
S"<Storage {'_formkey[song/create]': '7d9f5b5a-828...a706-5f56-475f-91c8-6a6f5dae5955', 'name': '12'}>"
p2688
sS'db.song.movie'
p2689
S'<gluon.dal.Field object>'
p2690
sS'db.movie.name'
p2691
S'<gluon.dal.Field object>'
p2692
sS'global db'
p2693
S"<DAL {'auth_event': <Table {'origin': <gluon.dal..., 'id': <gluon.dal.Field object at 0x927a08c>}>}>"
p2694
sS'db.movie.id'
p2695
S'<gluon.dal.Field object>'
p2696
ssg2627
I161
sg2628
(dp2697
I160
S"       elif session.movie!='':"
p2698
sI161
S'\t rows =db(db.song.movie==db.movie.id & db.movie.name == session.movie ).select()'
p2699
sI162
S'       else:'
p2700
sI163
S'\t  rows = db(db.song.singer == db.artist.id & db.artist.name == session.artist).select()'
p2701
sI164
S'       return dict(r = rows)'
p2702
sI165
S''
sI156
S''
sI157
S'def display_link():'
p2703
sI158
S"       if session.movie!='' and session.artist!='':"
p2704
sI159
S'\trows = db( ((db.song.movie == db.movie.id) & (db.movie.name==session.movie))&((db.song.singer == db.artist.id)&(db.artist.name==session.artist)) ).select()'
p2705
ssg2640
S'()'
p2706
sg2642
S'display_link'
p2707
sasS'pyver'
p2708
S'Python 2.6.5: /usr/bin/python'
p2709
sS'session'
p2710
g56
(g57
g58
NtRp2711
(dp2712
g61
(dp2713
sg63
(lp2714
g56
(g65
g58
NtRp2715
(dp2716
g61
(dp2717
g69
I5
ssg70
Nsg63
(lp2718
g56
(g72
g58
NtRp2719
(dp2720
g61
(dp2721
sg70
g2715
sg63
(lp2722
g56
(g77
g58
NtRp2723
(dp2724
g61
(dp2725
g81
g82
ssg70
g2719
sg63
(lp2726
S'artist'
p2727
asbag56
(g77
g58
NtRp2728
(dp2729
g61
(dp2730
g88
g89
ssg70
g2719
sg63
(lp2731
S':'
asbag56
(g77
g58
NtRp2732
(dp2733
g61
(dp2734
sg70
g2719
sg63
(lp2735
g56
(g57
g58
NtRp2736
(dp2737
g61
(dp2738
g69
I5
ssg70
g2732
sg63
(lp2739
S''
asbasbasbag56
(g72
g58
NtRp2740
(dp2741
g61
(dp2742
sg70
g2715
sg63
(lp2743
g56
(g77
g58
NtRp2744
(dp2745
g61
(dp2746
g81
g82
ssg70
g2740
sg63
(lp2747
S'k'
asbag56
(g77
g58
NtRp2748
(dp2749
g61
(dp2750
g88
g89
ssg70
g2740
sg63
(lp2751
S':'
asbag56
(g77
g58
NtRp2752
(dp2753
g61
(dp2754
sg70
g2740
sg63
(lp2755
g56
(g57
g58
NtRp2756
(dp2757
g61
(dp2758
g69
I5
ssg70
g2752
sg63
(lp2759
S'truc'
p2760
asbasbasbag56
(g72
g58
NtRp2761
(dp2762
g61
(dp2763
sg70
g2715
sg63
(lp2764
g56
(g77
g58
NtRp2765
(dp2766
g61
(dp2767
g81
g82
ssg70
g2761
sg63
(lp2768
S'movie'
p2769
asbag56
(g77
g58
NtRp2770
(dp2771
g61
(dp2772
g88
g89
ssg70
g2761
sg63
(lp2773
S':'
asbag56
(g77
g58
NtRp2774
(dp2775
g61
(dp2776
sg70
g2761
sg63
(lp2777
g56
(g57
g58
NtRp2778
(dp2779
g61
(dp2780
g69
I5
ssg70
g2774
sg63
(lp2781
S'123'
p2782
asbasbasbag56
(g72
g58
NtRp2783
(dp2784
g61
(dp2785
sg70
g2715
sg63
(lp2786
g56
(g77
g58
NtRp2787
(dp2788
g61
(dp2789
g81
g82
ssg70
g2783
sg63
(lp2790
S'name'
p2791
asbag56
(g77
g58
NtRp2792
(dp2793
g61
(dp2794
g88
g89
ssg70
g2783
sg63
(lp2795
S':'
asbag56
(g77
g58
NtRp2796
(dp2797
g61
(dp2798
sg70
g2783
sg63
(lp2799
g56
(g57
g58
NtRp2800
(dp2801
g61
(dp2802
g69
I5
ssg70
g2796
sg63
(lp2803
S'12'
p2804
asbasbasbag56
(g72
g58
NtRp2805
(dp2806
g61
(dp2807
sg70
g2715
sg63
(lp2808
g56
(g77
g58
NtRp2809
(dp2810
g61
(dp2811
g81
g82
ssg70
g2805
sg63
(lp2812
S'song'
p2813
asbag56
(g77
g58
NtRp2814
(dp2815
g61
(dp2816
g88
g89
ssg70
g2805
sg63
(lp2817
S':'
asbag56
(g77
g58
NtRp2818
(dp2819
g61
(dp2820
sg70
g2805
sg63
(lp2821
g56
(g57
g58
NtRp2822
(dp2823
g61
(dp2824
g69
I5
ssg70
g2818
sg63
(lp2825
S'12'
p2826
asbasbasbasbasbsS'etype'
p2827
S"<type 'exceptions.TypeError'>"
p2828
sS'date'
p2829
S'Mon Sep  5 22:12:37 2011'
p2830
sS'response'
p2831
g56
(g57
g58
NtRp2832
(dp2833
g61
(dp2834
sg63
(lp2835
g56
(g65
g58
NtRp2836
(dp2837
g61
(dp2838
g69
I5
ssg70
Nsg63
(lp2839
g56
(g72
g58
NtRp2840
(dp2841
g61
(dp2842
sg70
g2836
sg63
(lp2843
g56
(g77
g58
NtRp2844
(dp2845
g61
(dp2846
g81
g82
ssg70
g2840
sg63
(lp2847
g154
asbag56
(g77
g58
NtRp2848
(dp2849
g61
(dp2850
g88
g89
ssg70
g2840
sg63
(lp2851
S':'
asbag56
(g77
g58
NtRp2852
(dp2853
g61
(dp2854
sg70
g2840
sg63
(lp2855
g56
(g57
g58
NtRp2856
(dp2857
g61
(dp2858
g69
I5
ssg70
g2852
sg63
(lp2859
S'<cStringIO.StringO object at 0x929b280>'
p2860
asbasbasbag56
(g72
g58
NtRp2861
(dp2862
g61
(dp2863
sg70
g2836
sg63
(lp2864
g56
(g77
g58
NtRp2865
(dp2866
g61
(dp2867
g81
g82
ssg70
g2861
sg63
(lp2868
g220
asbag56
(g77
g58
NtRp2869
(dp2870
g61
(dp2871
g88
g89
ssg70
g2861
sg63
(lp2872
S':'
asbag56
(g77
g58
NtRp2873
(dp2874
g61
(dp2875
sg70
g2861
sg63
(lp2876
g56
(g57
g58
NtRp2877
(dp2878
g61
(dp2879
g69
I5
ssg70
g2873
sg63
(lp2880
g56
(g65
g58
NtRp2881
(dp2882
g61
(dp2883
g69
I4
ssg70
Nsg63
(lp2884
g56
(g72
g58
NtRp2885
(dp2886
g61
(dp2887
sg70
g2881
sg63
(lp2888
g56
(g77
g58
NtRp2889
(dp2890
g61
(dp2891
g81
g82
ssg70
g2885
sg63
(lp2892
S'session_id_music_repo'
p2893
asbag56
(g77
g58
NtRp2894
(dp2895
g61
(dp2896
g88
g89
ssg70
g2885
sg63
(lp2897
S':'
asbag56
(g77
g58
NtRp2898
(dp2899
g61
(dp2900
sg70
g2885
sg63
(lp2901
g56
(g57
g58
NtRp2902
(dp2903
g61
(dp2904
g69
I4
ssg70
g2898
sg63
(lp2905
g56
(g65
g58
NtRp2906
(dp2907
g61
(dp2908
g69
I3
ssg70
Nsg63
(lp2909
g56
(g72
g58
NtRp2910
(dp2911
g61
(dp2912
sg70
g2906
sg63
(lp2913
g56
(g77
g58
NtRp2914
(dp2915
g61
(dp2916
g81
g82
ssg70
g2910
sg63
(lp2917
g270
asbag56
(g77
g58
NtRp2918
(dp2919
g61
(dp2920
g88
g89
ssg70
g2910
sg63
(lp2921
S':'
asbag56
(g77
g58
NtRp2922
(dp2923
g61
(dp2924
sg70
g2910
sg63
(lp2925
g56
(g57
g58
NtRp2926
(dp2927
g61
(dp2928
g69
I3
ssg70
g2922
sg63
(lp2929
S''
asbasbasbag56
(g72
g58
NtRp2930
(dp2931
g61
(dp2932
sg70
g2906
sg63
(lp2933
g56
(g77
g58
NtRp2934
(dp2935
g61
(dp2936
g81
g82
ssg70
g2930
sg63
(lp2937
g291
asbag56
(g77
g58
NtRp2938
(dp2939
g61
(dp2940
g88
g89
ssg70
g2930
sg63
(lp2941
S':'
asbag56
(g77
g58
NtRp2942
(dp2943
g61
(dp2944
sg70
g2930
sg63
(lp2945
g56
(g57
g58
NtRp2946
(dp2947
g61
(dp2948
g69
I3
ssg70
g2942
sg63
(lp2949
S''
asbasbasbag56
(g72
g58
NtRp2950
(dp2951
g61
(dp2952
sg70
g2906
sg63
(lp2953
g56
(g77
g58
NtRp2954
(dp2955
g61
(dp2956
g81
g82
ssg70
g2950
sg63
(lp2957
g312
asbag56
(g77
g58
NtRp2958
(dp2959
g61
(dp2960
g88
g89
ssg70
g2950
sg63
(lp2961
S':'
asbag56
(g77
g58
NtRp2962
(dp2963
g61
(dp2964
sg70
g2950
sg63
(lp2965
g56
(g57
g58
NtRp2966
(dp2967
g61
(dp2968
g69
I3
ssg70
g2962
sg63
(lp2969
S''
asbasbasbag56
(g72
g58
NtRp2970
(dp2971
g61
(dp2972
sg70
g2906
sg63
(lp2973
g56
(g77
g58
NtRp2974
(dp2975
g61
(dp2976
g81
g82
ssg70
g2970
sg63
(lp2977
g333
asbag56
(g77
g58
NtRp2978
(dp2979
g61
(dp2980
g88
g89
ssg70
g2970
sg63
(lp2981
S':'
asbag56
(g77
g58
NtRp2982
(dp2983
g61
(dp2984
sg70
g2970
sg63
(lp2985
g56
(g57
g58
NtRp2986
(dp2987
g61
(dp2988
g69
I3
ssg70
g2982
sg63
(lp2989
S''
asbasbasbag56
(g72
g58
NtRp2990
(dp2991
g61
(dp2992
sg70
g2906
sg63
(lp2993
g56
(g77
g58
NtRp2994
(dp2995
g61
(dp2996
g81
g82
ssg70
g2990
sg63
(lp2997
g354
asbag56
(g77
g58
NtRp2998
(dp2999
g61
(dp3000
g88
g89
ssg70
g2990
sg63
(lp3001
S':'
asbag56
(g77
g58
NtRp3002
(dp3003
g61
(dp3004
sg70
g2990
sg63
(lp3005
g56
(g57
g58
NtRp3006
(dp3007
g61
(dp3008
g69
I3
ssg70
g3002
sg63
(lp3009
S''
asbasbasbag56
(g72
g58
NtRp3010
(dp3011
g61
(dp3012
sg70
g2906
sg63
(lp3013
g56
(g77
g58
NtRp3014
(dp3015
g61
(dp3016
g81
g82
ssg70
g3010
sg63
(lp3017
g375
asbag56
(g77
g58
NtRp3018
(dp3019
g61
(dp3020
g88
g89
ssg70
g3010
sg63
(lp3021
S':'
asbag56
(g77
g58
NtRp3022
(dp3023
g61
(dp3024
sg70
g3010
sg63
(lp3025
g56
(g57
g58
NtRp3026
(dp3027
g61
(dp3028
g69
I3
ssg70
g3022
sg63
(lp3029
S'/'
asbasbasbag56
(g72
g58
NtRp3030
(dp3031
g61
(dp3032
sg70
g2906
sg63
(lp3033
g56
(g77
g58
NtRp3034
(dp3035
g61
(dp3036
g81
g82
ssg70
g3030
sg63
(lp3037
g396
asbag56
(g77
g58
NtRp3038
(dp3039
g61
(dp3040
g88
g89
ssg70
g3030
sg63
(lp3041
S':'
asbag56
(g77
g58
NtRp3042
(dp3043
g61
(dp3044
sg70
g3030
sg63
(lp3045
g56
(g57
g58
NtRp3046
(dp3047
g61
(dp3048
g69
I3
ssg70
g3042
sg63
(lp3049
S''
asbasbasbag56
(g72
g58
NtRp3050
(dp3051
g61
(dp3052
sg70
g2906
sg63
(lp3053
g56
(g77
g58
NtRp3054
(dp3055
g61
(dp3056
g81
g82
ssg70
g3050
sg63
(lp3057
g417
asbag56
(g77
g58
NtRp3058
(dp3059
g61
(dp3060
g88
g89
ssg70
g3050
sg63
(lp3061
S':'
asbag56
(g77
g58
NtRp3062
(dp3063
g61
(dp3064
sg70
g3050
sg63
(lp3065
g56
(g57
g58
NtRp3066
(dp3067
g61
(dp3068
g69
I3
ssg70
g3062
sg63
(lp3069
S''
asbasbasbasbasbasbasbasbasbasbasbag56
(g72
g58
NtRp3070
(dp3071
g61
(dp3072
sg70
g2836
sg63
(lp3073
g56
(g77
g58
NtRp3074
(dp3075
g61
(dp3076
g81
g82
ssg70
g3070
sg63
(lp3077
S'files'
p3078
asbag56
(g77
g58
NtRp3079
(dp3080
g61
(dp3081
g88
g89
ssg70
g3070
sg63
(lp3082
S':'
asbag56
(g77
g58
NtRp3083
(dp3084
g61
(dp3085
sg70
g3070
sg63
(lp3086
g56
(g57
g58
NtRp3087
(dp3088
g61
(dp3089
g69
I5
ssg70
g3083
sg63
(lp3090
g56
(g65
g58
NtRp3091
(dp3092
g61
(dp3093
g69
I4
ssg70
Nsg63
(lp3094
sbasbasbasbag56
(g72
g58
NtRp3095
(dp3096
g61
(dp3097
sg70
g2836
sg63
(lp3098
g56
(g77
g58
NtRp3099
(dp3100
g61
(dp3101
g81
g82
ssg70
g3095
sg63
(lp3102
S'flash'
p3103
asbag56
(g77
g58
NtRp3104
(dp3105
g61
(dp3106
g88
g89
ssg70
g3095
sg63
(lp3107
S':'
asbag56
(g77
g58
NtRp3108
(dp3109
g61
(dp3110
sg70
g3095
sg63
(lp3111
g56
(g57
g58
NtRp3112
(dp3113
g61
(dp3114
g69
I5
ssg70
g3108
sg63
(lp3115
S''
asbasbasbag56
(g72
g58
NtRp3116
(dp3117
g61
(dp3118
sg70
g2836
sg63
(lp3119
g56
(g77
g58
NtRp3120
(dp3121
g61
(dp3122
g81
g82
ssg70
g3116
sg63
(lp3123
S'generic_patterns'
p3124
asbag56
(g77
g58
NtRp3125
(dp3126
g61
(dp3127
g88
g89
ssg70
g3116
sg63
(lp3128
S':'
asbag56
(g77
g58
NtRp3129
(dp3130
g61
(dp3131
sg70
g3116
sg63
(lp3132
g56
(g57
g58
NtRp3133
(dp3134
g61
(dp3135
g69
I5
ssg70
g3129
sg63
(lp3136
g56
(g65
g58
NtRp3137
(dp3138
g61
(dp3139
g69
I4
ssg70
Nsg63
(lp3140
g56
(g72
g58
NtRp3141
(dp3142
g61
(dp3143
sg70
g3137
sg63
(lp3144
g56
(g77
g58
NtRp3145
(dp3146
g61
(dp3147
sg70
g3141
sg63
(lp3148
g56
(g57
g58
NtRp3149
(dp3150
g61
(dp3151
g69
I4
ssg70
g3145
sg63
(lp3152
S'*'
asbasbasbasbasbasbasbag56
(g72
g58
NtRp3153
(dp3154
g61
(dp3155
sg70
g2836
sg63
(lp3156
g56
(g77
g58
NtRp3157
(dp3158
g61
(dp3159
g81
g82
ssg70
g3153
sg63
(lp3160
S'headers'
p3161
asbag56
(g77
g58
NtRp3162
(dp3163
g61
(dp3164
g88
g89
ssg70
g3153
sg63
(lp3165
S':'
asbag56
(g77
g58
NtRp3166
(dp3167
g61
(dp3168
sg70
g3153
sg63
(lp3169
g56
(g57
g58
NtRp3170
(dp3171
g61
(dp3172
g69
I5
ssg70
g3166
sg63
(lp3173
g56
(g65
g58
NtRp3174
(dp3175
g61
(dp3176
g69
I4
ssg70
Nsg63
(lp3177
g56
(g72
g58
NtRp3178
(dp3179
g61
(dp3180
sg70
g3174
sg63
(lp3181
g56
(g77
g58
NtRp3182
(dp3183
g61
(dp3184
g81
g82
ssg70
g3178
sg63
(lp3185
S'Cache-Control'
p3186
asbag56
(g77
g58
NtRp3187
(dp3188
g61
(dp3189
g88
g89
ssg70
g3178
sg63
(lp3190
S':'
asbag56
(g77
g58
NtRp3191
(dp3192
g61
(dp3193
sg70
g3178
sg63
(lp3194
g56
(g57
g58
NtRp3195
(dp3196
g61
(dp3197
g69
I4
ssg70
g3191
sg63
(lp3198
S'no-store, no-cache, must-revalidate, post-check=0, pre-check=0'
p3199
asbasbasbag56
(g72
g58
NtRp3200
(dp3201
g61
(dp3202
sg70
g3174
sg63
(lp3203
g56
(g77
g58
NtRp3204
(dp3205
g61
(dp3206
g81
g82
ssg70
g3200
sg63
(lp3207
S'Content-Type'
p3208
asbag56
(g77
g58
NtRp3209
(dp3210
g61
(dp3211
g88
g89
ssg70
g3200
sg63
(lp3212
S':'
asbag56
(g77
g58
NtRp3213
(dp3214
g61
(dp3215
sg70
g3200
sg63
(lp3216
g56
(g57
g58
NtRp3217
(dp3218
g61
(dp3219
g69
I4
ssg70
g3213
sg63
(lp3220
S'text/html; charset=utf-8'
p3221
asbasbasbag56
(g72
g58
NtRp3222
(dp3223
g61
(dp3224
sg70
g3174
sg63
(lp3225
g56
(g77
g58
NtRp3226
(dp3227
g61
(dp3228
g81
g82
ssg70
g3222
sg63
(lp3229
S'Expires'
p3230
asbag56
(g77
g58
NtRp3231
(dp3232
g61
(dp3233
g88
g89
ssg70
g3222
sg63
(lp3234
S':'
asbag56
(g77
g58
NtRp3235
(dp3236
g61
(dp3237
sg70
g3222
sg63
(lp3238
g56
(g57
g58
NtRp3239
(dp3240
g61
(dp3241
g69
I4
ssg70
g3235
sg63
(lp3242
S'Mon, 05 Sep 2011 16:42:37 GMT'
p3243
asbasbasbag56
(g72
g58
NtRp3244
(dp3245
g61
(dp3246
sg70
g3174
sg63
(lp3247
g56
(g77
g58
NtRp3248
(dp3249
g61
(dp3250
g81
g82
ssg70
g3244
sg63
(lp3251
S'Pragma'
p3252
asbag56
(g77
g58
NtRp3253
(dp3254
g61
(dp3255
g88
g89
ssg70
g3244
sg63
(lp3256
S':'
asbag56
(g77
g58
NtRp3257
(dp3258
g61
(dp3259
sg70
g3244
sg63
(lp3260
g56
(g57
g58
NtRp3261
(dp3262
g61
(dp3263
g69
I4
ssg70
g3257
sg63
(lp3264
S'no-cache'
p3265
asbasbasbag56
(g72
g58
NtRp3266
(dp3267
g61
(dp3268
sg70
g3174
sg63
(lp3269
g56
(g77
g58
NtRp3270
(dp3271
g61
(dp3272
g81
g82
ssg70
g3266
sg63
(lp3273
S'X-Powered-By'
p3274
asbag56
(g77
g58
NtRp3275
(dp3276
g61
(dp3277
g88
g89
ssg70
g3266
sg63
(lp3278
S':'
asbag56
(g77
g58
NtRp3279
(dp3280
g61
(dp3281
sg70
g3266
sg63
(lp3282
g56
(g57
g58
NtRp3283
(dp3284
g61
(dp3285
g69
I4
ssg70
g3279
sg63
(lp3286
S'web2py'
p3287
asbasbasbasbasbasbasbag56
(g72
g58
NtRp3288
(dp3289
g61
(dp3290
sg70
g2836
sg63
(lp3291
g56
(g77
g58
NtRp3292
(dp3293
g61
(dp3294
g81
g82
ssg70
g3288
sg63
(lp3295
S'menu'
p3296
asbag56
(g77
g58
NtRp3297
(dp3298
g61
(dp3299
g88
g89
ssg70
g3288
sg63
(lp3300
S':'
asbag56
(g77
g58
NtRp3301
(dp3302
g61
(dp3303
sg70
g3288
sg63
(lp3304
g56
(g57
g58
NtRp3305
(dp3306
g61
(dp3307
g69
I5
ssg70
g3301
sg63
(lp3308
g56
(g65
g58
NtRp3309
(dp3310
g61
(dp3311
g69
I4
ssg70
Nsg63
(lp3312
g56
(g72
g58
NtRp3313
(dp3314
g61
(dp3315
sg70
g3309
sg63
(lp3316
g56
(g77
g58
NtRp3317
(dp3318
g61
(dp3319
sg70
g3313
sg63
(lp3320
g56
(g57
g58
NtRp3321
(dp3322
g61
(dp3323
g69
I4
ssg70
g3317
sg63
(lp3324
g56
(g65
g58
NtRp3325
(dp3326
g61
(dp3327
g69
I3
ssg70
Nsg63
(lp3328
g56
(g72
g58
NtRp3329
(dp3330
g61
(dp3331
sg70
g3325
sg63
(lp3332
g56
(g77
g58
NtRp3333
(dp3334
g61
(dp3335
sg70
g3329
sg63
(lp3336
g56
(g57
g58
NtRp3337
(dp3338
g61
(dp3339
g69
I3
ssg70
g3333
sg63
(lp3340
cgluon.languages
lazyT_unpickle
p3341
(S's\x04\x00\x00\x00Home'
tRp3342
asbasbasbag56
(g72
g58
NtRp3343
(dp3344
g61
(dp3345
sg70
g3325
sg63
(lp3346
g56
(g77
g58
NtRp3347
(dp3348
g61
(dp3349
sg70
g3343
sg63
(lp3350
g56
(g57
g58
NtRp3351
(dp3352
g61
(dp3353
g69
I3
ssg70
g3347
sg63
(lp3354
g99
asbasbasbag56
(g72
g58
NtRp3355
(dp3356
g61
(dp3357
sg70
g3325
sg63
(lp3358
g56
(g77
g58
NtRp3359
(dp3360
g61
(dp3361
sg70
g3355
sg63
(lp3362
g56
(g57
g58
NtRp3363
(dp3364
g61
(dp3365
g69
I3
ssg70
g3359
sg63
(lp3366
S'/Music_Repo/default/index'
p3367
asbasbasbag56
(g72
g58
NtRp3368
(dp3369
g61
(dp3370
sg70
g3325
sg63
(lp3371
g56
(g77
g58
NtRp3372
(dp3373
g61
(dp3374
sg70
g3368
sg63
(lp3375
g56
(g57
g58
NtRp3376
(dp3377
g61
(dp3378
g69
I3
ssg70
g3372
sg63
(lp3379
g56
(g65
g58
NtRp3380
(dp3381
g61
(dp3382
g69
I2
ssg70
Nsg63
(lp3383
sbasbasbasbasbasbasbasbag56
(g72
g58
NtRp3384
(dp3385
g61
(dp3386
sg70
g3309
sg63
(lp3387
g56
(g77
g58
NtRp3388
(dp3389
g61
(dp3390
sg70
g3384
sg63
(lp3391
g56
(g57
g58
NtRp3392
(dp3393
g61
(dp3394
g69
I4
ssg70
g3388
sg63
(lp3395
g56
(g65
g58
NtRp3396
(dp3397
g61
(dp3398
g69
I3
ssg70
Nsg63
(lp3399
g56
(g72
g58
NtRp3400
(dp3401
g61
(dp3402
sg70
g3396
sg63
(lp3403
g56
(g77
g58
NtRp3404
(dp3405
g61
(dp3406
sg70
g3400
sg63
(lp3407
g56
(g57
g58
NtRp3408
(dp3409
g61
(dp3410
g69
I3
ssg70
g3404
sg63
(lp3411
g3341
(S's\x08\x00\x00\x00This App'
tRp3412
asbasbasbag56
(g72
g58
NtRp3413
(dp3414
g61
(dp3415
sg70
g3396
sg63
(lp3416
g56
(g77
g58
NtRp3417
(dp3418
g61
(dp3419
sg70
g3413
sg63
(lp3420
g56
(g57
g58
NtRp3421
(dp3422
g61
(dp3423
g69
I3
ssg70
g3417
sg63
(lp3424
g99
asbasbasbag56
(g72
g58
NtRp3425
(dp3426
g61
(dp3427
sg70
g3396
sg63
(lp3428
g56
(g77
g58
NtRp3429
(dp3430
g61
(dp3431
sg70
g3425
sg63
(lp3432
g56
(g57
g58
NtRp3433
(dp3434
g61
(dp3435
g69
I3
ssg70
g3429
sg63
(lp3436
S'/admin/default/design/Music_Repo'
p3437
asbasbasbag56
(g72
g58
NtRp3438
(dp3439
g61
(dp3440
sg70
g3396
sg63
(lp3441
g56
(g77
g58
NtRp3442
(dp3443
g61
(dp3444
sg70
g3438
sg63
(lp3445
g56
(g57
g58
NtRp3446
(dp3447
g61
(dp3448
g69
I3
ssg70
g3442
sg63
(lp3449
g56
(g65
g58
NtRp3450
(dp3451
g61
(dp3452
g69
I2
ssg70
Nsg63
(lp3453
g56
(g72
g58
NtRp3454
(dp3455
g61
(dp3456
sg70
g3450
sg63
(lp3457
g56
(g77
g58
NtRp3458
(dp3459
g61
(dp3460
sg70
g3454
sg63
(lp3461
g56
(g57
g58
NtRp3462
(dp3463
g61
(dp3464
g69
I2
ssg70
g3458
sg63
(lp3465
g56
(g65
g58
NtRp3466
(dp3467
g61
(dp3468
g69
I1
ssg70
Nsg63
(lp3469
g56
(g72
g58
NtRp3470
(dp3471
g61
(dp3472
sg70
g3466
sg63
(lp3473
g56
(g77
g58
NtRp3474
(dp3475
g61
(dp3476
sg70
g3470
sg63
(lp3477
g56
(g57
g58
NtRp3478
(dp3479
g61
(dp3480
g69
I1
ssg70
g3474
sg63
(lp3481
g3341
(S's\n\x00\x00\x00Controller'
tRp3482
asbasbasbag56
(g72
g58
NtRp3483
(dp3484
g61
(dp3485
sg70
g3466
sg63
(lp3486
g56
(g77
g58
NtRp3487
(dp3488
g61
(dp3489
sg70
g3483
sg63
(lp3490
g56
(g57
g58
NtRp3491
(dp3492
g61
(dp3493
g69
I1
ssg70
g3487
sg63
(lp3494
I00
asbasbasbag56
(g72
g58
NtRp3495
(dp3496
g61
(dp3497
sg70
g3466
sg63
(lp3498
g56
(g77
g58
NtRp3499
(dp3500
g61
(dp3501
sg70
g3495
sg63
(lp3502
g56
(g57
g58
NtRp3503
(dp3504
g61
(dp3505
g69
I1
ssg70
g3499
sg63
(lp3506
S'/admin/default/edit/Music_Repo/controllers/default.py'
p3507
asbasbasbasbasbasbasbag56
(g72
g58
NtRp3508
(dp3509
g61
(dp3510
sg70
g3450
sg63
(lp3511
g56
(g77
g58
NtRp3512
(dp3513
g61
(dp3514
sg70
g3508
sg63
(lp3515
g56
(g57
g58
NtRp3516
(dp3517
g61
(dp3518
g69
I2
ssg70
g3512
sg63
(lp3519
g56
(g65
g58
NtRp3520
(dp3521
g61
(dp3522
g69
I1
ssg70
Nsg63
(lp3523
g56
(g72
g58
NtRp3524
(dp3525
g61
(dp3526
sg70
g3520
sg63
(lp3527
g56
(g77
g58
NtRp3528
(dp3529
g61
(dp3530
sg70
g3524
sg63
(lp3531
g56
(g57
g58
NtRp3532
(dp3533
g61
(dp3534
g69
I1
ssg70
g3528
sg63
(lp3535
g3341
(S's\x04\x00\x00\x00View'
tRp3536
asbasbasbag56
(g72
g58
NtRp3537
(dp3538
g61
(dp3539
sg70
g3520
sg63
(lp3540
g56
(g77
g58
NtRp3541
(dp3542
g61
(dp3543
sg70
g3537
sg63
(lp3544
g56
(g57
g58
NtRp3545
(dp3546
g61
(dp3547
g69
I1
ssg70
g3541
sg63
(lp3548
I00
asbasbasbag56
(g72
g58
NtRp3549
(dp3550
g61
(dp3551
sg70
g3520
sg63
(lp3552
g56
(g77
g58
NtRp3553
(dp3554
g61
(dp3555
sg70
g3549
sg63
(lp3556
g56
(g57
g58
NtRp3557
(dp3558
g61
(dp3559
g69
I1
ssg70
g3553
sg63
(lp3560
S'/admin/default/edit/Music_Repo/views/default/display_link.html'
p3561
asbasbasbasbasbasbasbag56
(g72
g58
NtRp3562
(dp3563
g61
(dp3564
sg70
g3450
sg63
(lp3565
g56
(g77
g58
NtRp3566
(dp3567
g61
(dp3568
sg70
g3562
sg63
(lp3569
g56
(g57
g58
NtRp3570
(dp3571
g61
(dp3572
g69
I2
ssg70
g3566
sg63
(lp3573
g56
(g65
g58
NtRp3574
(dp3575
g61
(dp3576
g69
I1
ssg70
Nsg63
(lp3577
g56
(g72
g58
NtRp3578
(dp3579
g61
(dp3580
sg70
g3574
sg63
(lp3581
g56
(g77
g58
NtRp3582
(dp3583
g61
(dp3584
sg70
g3578
sg63
(lp3585
g56
(g57
g58
NtRp3586
(dp3587
g61
(dp3588
g69
I1
ssg70
g3582
sg63
(lp3589
g3341
(S's\x06\x00\x00\x00Layout'
tRp3590
asbasbasbag56
(g72
g58
NtRp3591
(dp3592
g61
(dp3593
sg70
g3574
sg63
(lp3594
g56
(g77
g58
NtRp3595
(dp3596
g61
(dp3597
sg70
g3591
sg63
(lp3598
g56
(g57
g58
NtRp3599
(dp3600
g61
(dp3601
g69
I1
ssg70
g3595
sg63
(lp3602
I00
asbasbasbag56
(g72
g58
NtRp3603
(dp3604
g61
(dp3605
sg70
g3574
sg63
(lp3606
g56
(g77
g58
NtRp3607
(dp3608
g61
(dp3609
sg70
g3603
sg63
(lp3610
g56
(g57
g58
NtRp3611
(dp3612
g61
(dp3613
g69
I1
ssg70
g3607
sg63
(lp3614
S'/admin/default/edit/Music_Repo/views/layout.html'
p3615
asbasbasbasbasbasbasbag56
(g72
g58
NtRp3616
(dp3617
g61
(dp3618
sg70
g3450
sg63
(lp3619
g56
(g77
g58
NtRp3620
(dp3621
g61
(dp3622
sg70
g3616
sg63
(lp3623
g56
(g57
g58
NtRp3624
(dp3625
g61
(dp3626
g69
I2
ssg70
g3620
sg63
(lp3627
g56
(g65
g58
NtRp3628
(dp3629
g61
(dp3630
g69
I1
ssg70
Nsg63
(lp3631
g56
(g72
g58
NtRp3632
(dp3633
g61
(dp3634
sg70
g3628
sg63
(lp3635
g56
(g77
g58
NtRp3636
(dp3637
g61
(dp3638
sg70
g3632
sg63
(lp3639
g56
(g57
g58
NtRp3640
(dp3641
g61
(dp3642
g69
I1
ssg70
g3636
sg63
(lp3643
g3341
(S's\n\x00\x00\x00Stylesheet'
tRp3644
asbasbasbag56
(g72
g58
NtRp3645
(dp3646
g61
(dp3647
sg70
g3628
sg63
(lp3648
g56
(g77
g58
NtRp3649
(dp3650
g61
(dp3651
sg70
g3645
sg63
(lp3652
g56
(g57
g58
NtRp3653
(dp3654
g61
(dp3655
g69
I1
ssg70
g3649
sg63
(lp3656
I00
asbasbasbag56
(g72
g58
NtRp3657
(dp3658
g61
(dp3659
sg70
g3628
sg63
(lp3660
g56
(g77
g58
NtRp3661
(dp3662
g61
(dp3663
sg70
g3657
sg63
(lp3664
g56
(g57
g58
NtRp3665
(dp3666
g61
(dp3667
g69
I1
ssg70
g3661
sg63
(lp3668
S'/admin/default/edit/Music_Repo/static/base.css'
p3669
asbasbasbasbasbasbasbag56
(g72
g58
NtRp3670
(dp3671
g61
(dp3672
sg70
g3450
sg63
(lp3673
g56
(g77
g58
NtRp3674
(dp3675
g61
(dp3676
sg70
g3670
sg63
(lp3677
g56
(g57
g58
NtRp3678
(dp3679
g61
(dp3680
g69
I2
ssg70
g3674
sg63
(lp3681
g56
(g65
g58
NtRp3682
(dp3683
g61
(dp3684
g69
I1
ssg70
Nsg63
(lp3685
g56
(g72
g58
NtRp3686
(dp3687
g61
(dp3688
sg70
g3682
sg63
(lp3689
g56
(g77
g58
NtRp3690
(dp3691
g61
(dp3692
sg70
g3686
sg63
(lp3693
g56
(g57
g58
NtRp3694
(dp3695
g61
(dp3696
g69
I1
ssg70
g3690
sg63
(lp3697
g3341
(S's\x08\x00\x00\x00DB Model'
tRp3698
asbasbasbag56
(g72
g58
NtRp3699
(dp3700
g61
(dp3701
sg70
g3682
sg63
(lp3702
g56
(g77
g58
NtRp3703
(dp3704
g61
(dp3705
sg70
g3699
sg63
(lp3706
g56
(g57
g58
NtRp3707
(dp3708
g61
(dp3709
g69
I1
ssg70
g3703
sg63
(lp3710
I00
asbasbasbag56
(g72
g58
NtRp3711
(dp3712
g61
(dp3713
sg70
g3682
sg63
(lp3714
g56
(g77
g58
NtRp3715
(dp3716
g61
(dp3717
sg70
g3711
sg63
(lp3718
g56
(g57
g58
NtRp3719
(dp3720
g61
(dp3721
g69
I1
ssg70
g3715
sg63
(lp3722
S'/admin/default/edit/Music_Repo/models/db.py'
p3723
asbasbasbasbasbasbasbag56
(g72
g58
NtRp3724
(dp3725
g61
(dp3726
sg70
g3450
sg63
(lp3727
g56
(g77
g58
NtRp3728
(dp3729
g61
(dp3730
sg70
g3724
sg63
(lp3731
g56
(g57
g58
NtRp3732
(dp3733
g61
(dp3734
g69
I2
ssg70
g3728
sg63
(lp3735
g56
(g65
g58
NtRp3736
(dp3737
g61
(dp3738
g69
I1
ssg70
Nsg63
(lp3739
g56
(g72
g58
NtRp3740
(dp3741
g61
(dp3742
sg70
g3736
sg63
(lp3743
g56
(g77
g58
NtRp3744
(dp3745
g61
(dp3746
sg70
g3740
sg63
(lp3747
g56
(g57
g58
NtRp3748
(dp3749
g61
(dp3750
g69
I1
ssg70
g3744
sg63
(lp3751
g3341
(S's\n\x00\x00\x00Menu Model'
tRp3752
asbasbasbag56
(g72
g58
NtRp3753
(dp3754
g61
(dp3755
sg70
g3736
sg63
(lp3756
g56
(g77
g58
NtRp3757
(dp3758
g61
(dp3759
sg70
g3753
sg63
(lp3760
g56
(g57
g58
NtRp3761
(dp3762
g61
(dp3763
g69
I1
ssg70
g3757
sg63
(lp3764
I00
asbasbasbag56
(g72
g58
NtRp3765
(dp3766
g61
(dp3767
sg70
g3736
sg63
(lp3768
g56
(g77
g58
NtRp3769
(dp3770
g61
(dp3771
sg70
g3765
sg63
(lp3772
g56
(g57
g58
NtRp3773
(dp3774
g61
(dp3775
g69
I1
ssg70
g3769
sg63
(lp3776
S'/admin/default/edit/Music_Repo/models/menu.py'
p3777
asbasbasbasbasbasbasbag56
(g72
g58
NtRp3778
(dp3779
g61
(dp3780
sg70
g3450
sg63
(lp3781
g56
(g77
g58
NtRp3782
(dp3783
g61
(dp3784
sg70
g3778
sg63
(lp3785
g56
(g57
g58
NtRp3786
(dp3787
g61
(dp3788
g69
I2
ssg70
g3782
sg63
(lp3789
g56
(g65
g58
NtRp3790
(dp3791
g61
(dp3792
g69
I1
ssg70
Nsg63
(lp3793
g56
(g72
g58
NtRp3794
(dp3795
g61
(dp3796
sg70
g3790
sg63
(lp3797
g56
(g77
g58
NtRp3798
(dp3799
g61
(dp3800
sg70
g3794
sg63
(lp3801
g56
(g57
g58
NtRp3802
(dp3803
g61
(dp3804
g69
I1
ssg70
g3798
sg63
(lp3805
g3341
(S's\x08\x00\x00\x00Database'
tRp3806
asbasbasbag56
(g72
g58
NtRp3807
(dp3808
g61
(dp3809
sg70
g3790
sg63
(lp3810
g56
(g77
g58
NtRp3811
(dp3812
g61
(dp3813
sg70
g3807
sg63
(lp3814
g56
(g57
g58
NtRp3815
(dp3816
g61
(dp3817
g69
I1
ssg70
g3811
sg63
(lp3818
I00
asbasbasbag56
(g72
g58
NtRp3819
(dp3820
g61
(dp3821
sg70
g3790
sg63
(lp3822
g56
(g77
g58
NtRp3823
(dp3824
g61
(dp3825
sg70
g3819
sg63
(lp3826
g56
(g57
g58
NtRp3827
(dp3828
g61
(dp3829
g69
I1
ssg70
g3823
sg63
(lp3830
S'/Music_Repo/appadmin/index'
p3831
asbasbasbasbasbasbasbag56
(g72
g58
NtRp3832
(dp3833
g61
(dp3834
sg70
g3450
sg63
(lp3835
g56
(g77
g58
NtRp3836
(dp3837
g61
(dp3838
sg70
g3832
sg63
(lp3839
g56
(g57
g58
NtRp3840
(dp3841
g61
(dp3842
g69
I2
ssg70
g3836
sg63
(lp3843
g56
(g65
g58
NtRp3844
(dp3845
g61
(dp3846
g69
I1
ssg70
Nsg63
(lp3847
g56
(g72
g58
NtRp3848
(dp3849
g61
(dp3850
sg70
g3844
sg63
(lp3851
g56
(g77
g58
NtRp3852
(dp3853
g61
(dp3854
sg70
g3848
sg63
(lp3855
g56
(g57
g58
NtRp3856
(dp3857
g61
(dp3858
g69
I1
ssg70
g3852
sg63
(lp3859
g3341
(S's\x06\x00\x00\x00Errors'
tRp3860
asbasbasbag56
(g72
g58
NtRp3861
(dp3862
g61
(dp3863
sg70
g3844
sg63
(lp3864
g56
(g77
g58
NtRp3865
(dp3866
g61
(dp3867
sg70
g3861
sg63
(lp3868
g56
(g57
g58
NtRp3869
(dp3870
g61
(dp3871
g69
I1
ssg70
g3865
sg63
(lp3872
I00
asbasbasbag56
(g72
g58
NtRp3873
(dp3874
g61
(dp3875
sg70
g3844
sg63
(lp3876
g56
(g77
g58
NtRp3877
(dp3878
g61
(dp3879
sg70
g3873
sg63
(lp3880
g56
(g57
g58
NtRp3881
(dp3882
g61
(dp3883
g69
I1
ssg70
g3877
sg63
(lp3884
S'/admin/default/errors/Music_Repo'
p3885
asbasbasbasbasbasbasbag56
(g72
g58
NtRp3886
(dp3887
g61
(dp3888
sg70
g3450
sg63
(lp3889
g56
(g77
g58
NtRp3890
(dp3891
g61
(dp3892
sg70
g3886
sg63
(lp3893
g56
(g57
g58
NtRp3894
(dp3895
g61
(dp3896
g69
I2
ssg70
g3890
sg63
(lp3897
g56
(g65
g58
NtRp3898
(dp3899
g61
(dp3900
g69
I1
ssg70
Nsg63
(lp3901
g56
(g72
g58
NtRp3902
(dp3903
g61
(dp3904
sg70
g3898
sg63
(lp3905
g56
(g77
g58
NtRp3906
(dp3907
g61
(dp3908
sg70
g3902
sg63
(lp3909
g56
(g57
g58
NtRp3910
(dp3911
g61
(dp3912
g69
I1
ssg70
g3906
sg63
(lp3913
g3341
(S's\x05\x00\x00\x00About'
tRp3914
asbasbasbag56
(g72
g58
NtRp3915
(dp3916
g61
(dp3917
sg70
g3898
sg63
(lp3918
g56
(g77
g58
NtRp3919
(dp3920
g61
(dp3921
sg70
g3915
sg63
(lp3922
g56
(g57
g58
NtRp3923
(dp3924
g61
(dp3925
g69
I1
ssg70
g3919
sg63
(lp3926
I00
asbasbasbag56
(g72
g58
NtRp3927
(dp3928
g61
(dp3929
sg70
g3898
sg63
(lp3930
g56
(g77
g58
NtRp3931
(dp3932
g61
(dp3933
sg70
g3927
sg63
(lp3934
g56
(g57
g58
NtRp3935
(dp3936
g61
(dp3937
g69
I1
ssg70
g3931
sg63
(lp3938
S'/admin/default/about/Music_Repo'
p3939
asbasbasbasbasbasbasbasbasbasbasbasbasbasbasbag56
(g72
g58
NtRp3940
(dp3941
g61
(dp3942
sg70
g3309
sg63
(lp3943
g56
(g77
g58
NtRp3944
(dp3945
g61
(dp3946
sg70
g3940
sg63
(lp3947
g56
(g57
g58
NtRp3948
(dp3949
g61
(dp3950
g69
I4
ssg70
g3944
sg63
(lp3951
g56
(g65
g58
NtRp3952
(dp3953
g61
(dp3954
g69
I3
ssg70
Nsg63
(lp3955
g56
(g72
g58
NtRp3956
(dp3957
g61
(dp3958
sg70
g3952
sg63
(lp3959
g56
(g77
g58
NtRp3960
(dp3961
g61
(dp3962
sg70
g3956
sg63
(lp3963
g56
(g57
g58
NtRp3964
(dp3965
g61
(dp3966
g69
I3
ssg70
g3960
sg63
(lp3967
g3341
(S's\t\x00\x00\x00Resources'
tRp3968
asbasbasbag56
(g72
g58
NtRp3969
(dp3970
g61
(dp3971
sg70
g3952
sg63
(lp3972
g56
(g77
g58
NtRp3973
(dp3974
g61
(dp3975
sg70
g3969
sg63
(lp3976
g56
(g57
g58
NtRp3977
(dp3978
g61
(dp3979
g69
I3
ssg70
g3973
sg63
(lp3980
g99
asbasbasbag56
(g72
g58
NtRp3981
(dp3982
g61
(dp3983
sg70
g3952
sg63
(lp3984
g56
(g77
g58
NtRp3985
(dp3986
g61
(dp3987
sg70
g3981
sg63
(lp3988
g56
(g57
g58
NtRp3989
(dp3990
g61
(dp3991
g69
I3
ssg70
g3985
sg63
(lp3992
S'None'
p3993
asbasbasbag56
(g72
g58
NtRp3994
(dp3995
g61
(dp3996
sg70
g3952
sg63
(lp3997
g56
(g77
g58
NtRp3998
(dp3999
g61
(dp4000
sg70
g3994
sg63
(lp4001
g56
(g57
g58
NtRp4002
(dp4003
g61
(dp4004
g69
I3
ssg70
g3998
sg63
(lp4005
g56
(g65
g58
NtRp4006
(dp4007
g61
(dp4008
g69
I2
ssg70
Nsg63
(lp4009
g56
(g72
g58
NtRp4010
(dp4011
g61
(dp4012
sg70
g4006
sg63
(lp4013
g56
(g77
g58
NtRp4014
(dp4015
g61
(dp4016
sg70
g4010
sg63
(lp4017
g56
(g57
g58
NtRp4018
(dp4019
g61
(dp4020
g69
I2
ssg70
g4014
sg63
(lp4021
g56
(g65
g58
NtRp4022
(dp4023
g61
(dp4024
g69
I1
ssg70
Nsg63
(lp4025
g56
(g72
g58
NtRp4026
(dp4027
g61
(dp4028
sg70
g4022
sg63
(lp4029
g56
(g77
g58
NtRp4030
(dp4031
g61
(dp4032
sg70
g4026
sg63
(lp4033
g56
(g57
g58
NtRp4034
(dp4035
g61
(dp4036
g69
I1
ssg70
g4030
sg63
(lp4037
g3341
(S's\r\x00\x00\x00Documentation'
tRp4038
asbasbasbag56
(g72
g58
NtRp4039
(dp4040
g61
(dp4041
sg70
g4022
sg63
(lp4042
g56
(g77
g58
NtRp4043
(dp4044
g61
(dp4045
sg70
g4039
sg63
(lp4046
g56
(g57
g58
NtRp4047
(dp4048
g61
(dp4049
g69
I1
ssg70
g4043
sg63
(lp4050
I00
asbasbasbag56
(g72
g58
NtRp4051
(dp4052
g61
(dp4053
sg70
g4022
sg63
(lp4054
g56
(g77
g58
NtRp4055
(dp4056
g61
(dp4057
sg70
g4051
sg63
(lp4058
g56
(g57
g58
NtRp4059
(dp4060
g61
(dp4061
g69
I1
ssg70
g4055
sg63
(lp4062
S'http://www.web2py.com/book'
p4063
asbasbasbag56
(g72
g58
NtRp4064
(dp4065
g61
(dp4066
sg70
g4022
sg63
(lp4067
g56
(g77
g58
NtRp4068
(dp4069
g61
(dp4070
sg70
g4064
sg63
(lp4071
g56
(g57
g58
NtRp4072
(dp4073
g61
(dp4074
g69
I1
ssg70
g4068
sg63
(lp4075
(lp4076
(g3341
(S's\x07\x00\x00\x00Preface'
tRp4077
I00
S'http://www.web2py.com/book/default/chapter/00'
tp4078
a(g3341
(S's\x0c\x00\x00\x00Introduction'
tRp4079
I00
S'http://www.web2py.com/book/default/chapter/01'
tp4080
a(g3341
(S's\x06\x00\x00\x00Python'
tRp4081
I00
S'http://www.web2py.com/book/default/chapter/02'
tp4082
a(g3341
(S's\x08\x00\x00\x00Overview'
tRp4083
I00
S'http://www.web2py.com/book/default/chapter/03'
tp4084
a(g3341
(S's\x08\x00\x00\x00The Core'
tRp4085
I00
S'http://www.web2py.com/book/default/chapter/04'
tp4086
a(g3341
(S's\t\x00\x00\x00The Views'
tRp4087
I00
S'http://www.web2py.com/book/default/chapter/05'
tp4088
a(g3341
(S's\x08\x00\x00\x00Database'
tRp4089
I00
S'http://www.web2py.com/book/default/chapter/06'
tp4090
a(g3341
(S's\x14\x00\x00\x00Forms and Validators'
tRp4091
I00
S'http://www.web2py.com/book/default/chapter/07'
tp4092
a(g3341
(S's\x0e\x00\x00\x00Access Control'
tRp4093
I00
S'http://www.web2py.com/book/default/chapter/08'
tp4094
a(g3341
(S's\x08\x00\x00\x00Services'
tRp4095
I00
S'http://www.web2py.com/book/default/chapter/09'
tp4096
a(g3341
(S's\x0c\x00\x00\x00Ajax Recipes'
tRp4097
I00
S'http://www.web2py.com/book/default/chapter/10'
tp4098
a(g3341
(S's\x12\x00\x00\x00Deployment Recipes'
tRp4099
I00
S'http://www.web2py.com/book/default/chapter/11'
tp4100
a(g3341
(S's\r\x00\x00\x00Other Recipes'
tRp4101
I00
S'http://www.web2py.com/book/default/chapter/12'
tp4102
a(g3341
(S's\r\x00\x00\x00Buy this book'
tRp4103
I00
S'http://stores.lulu.com/web2py'
tp4104
aasbasbasbasbasbasbasbag56
(g72
g58
NtRp4105
(dp4106
g61
(dp4107
sg70
g4006
sg63
(lp4108
g56
(g77
g58
NtRp4109
(dp4110
g61
(dp4111
sg70
g4105
sg63
(lp4112
g56
(g57
g58
NtRp4113
(dp4114
g61
(dp4115
g69
I2
ssg70
g4109
sg63
(lp4116
g56
(g65
g58
NtRp4117
(dp4118
g61
(dp4119
g69
I1
ssg70
Nsg63
(lp4120
g56
(g72
g58
NtRp4121
(dp4122
g61
(dp4123
sg70
g4117
sg63
(lp4124
g56
(g77
g58
NtRp4125
(dp4126
g61
(dp4127
sg70
g4121
sg63
(lp4128
g56
(g57
g58
NtRp4129
(dp4130
g61
(dp4131
g69
I1
ssg70
g4125
sg63
(lp4132
g3341
(S's\t\x00\x00\x00Community'
tRp4133
asbasbasbag56
(g72
g58
NtRp4134
(dp4135
g61
(dp4136
sg70
g4117
sg63
(lp4137
g56
(g77
g58
NtRp4138
(dp4139
g61
(dp4140
sg70
g4134
sg63
(lp4141
g56
(g57
g58
NtRp4142
(dp4143
g61
(dp4144
g69
I1
ssg70
g4138
sg63
(lp4145
I00
asbasbasbag56
(g72
g58
NtRp4146
(dp4147
g61
(dp4148
sg70
g4117
sg63
(lp4149
g56
(g77
g58
NtRp4150
(dp4151
g61
(dp4152
sg70
g4146
sg63
(lp4153
g56
(g57
g58
NtRp4154
(dp4155
g61
(dp4156
g69
I1
ssg70
g4150
sg63
(lp4157
Nasbasbasbag56
(g72
g58
NtRp4158
(dp4159
g61
(dp4160
sg70
g4117
sg63
(lp4161
g56
(g77
g58
NtRp4162
(dp4163
g61
(dp4164
sg70
g4158
sg63
(lp4165
g56
(g57
g58
NtRp4166
(dp4167
g61
(dp4168
g69
I1
ssg70
g4162
sg63
(lp4169
(lp4170
(g3341
(S's\x06\x00\x00\x00Groups'
tRp4171
I00
S'http://www.web2py.com/examples/default/usergroups'
tp4172
a(g3341
(S's\x07\x00\x00\x00Twitter'
tRp4173
I00
S'http://twitter.com/web2py'
tp4174
a(g3341
(S's\t\x00\x00\x00Live chat'
tRp4175
I00
S'http://mibbit.com/?channel=%23web2py&server=irc.mibbit.net'
tp4176
a(g3341
(S's\n\x00\x00\x00User Voice'
tRp4177
I00
S'http://web2py.uservoice.com/'
tp4178
aasbasbasbasbasbasbasbag56
(g72
g58
NtRp4179
(dp4180
g61
(dp4181
sg70
g4006
sg63
(lp4182
g56
(g77
g58
NtRp4183
(dp4184
g61
(dp4185
sg70
g4179
sg63
(lp4186
g56
(g57
g58
NtRp4187
(dp4188
g61
(dp4189
g69
I2
ssg70
g4183
sg63
(lp4190
g56
(g65
g58
NtRp4191
(dp4192
g61
(dp4193
g69
I1
ssg70
Nsg63
(lp4194
g56
(g72
g58
NtRp4195
(dp4196
g61
(dp4197
sg70
g4191
sg63
(lp4198
g56
(g77
g58
NtRp4199
(dp4200
g61
(dp4201
sg70
g4195
sg63
(lp4202
g56
(g57
g58
NtRp4203
(dp4204
g61
(dp4205
g69
I1
ssg70
g4199
sg63
(lp4206
g3341
(S's\x06\x00\x00\x00Web2py'
tRp4207
asbasbasbag56
(g72
g58
NtRp4208
(dp4209
g61
(dp4210
sg70
g4191
sg63
(lp4211
g56
(g77
g58
NtRp4212
(dp4213
g61
(dp4214
sg70
g4208
sg63
(lp4215
g56
(g57
g58
NtRp4216
(dp4217
g61
(dp4218
g69
I1
ssg70
g4212
sg63
(lp4219
I00
asbasbasbag56
(g72
g58
NtRp4220
(dp4221
g61
(dp4222
sg70
g4191
sg63
(lp4223
g56
(g77
g58
NtRp4224
(dp4225
g61
(dp4226
sg70
g4220
sg63
(lp4227
g56
(g57
g58
NtRp4228
(dp4229
g61
(dp4230
g69
I1
ssg70
g4224
sg63
(lp4231
S'http://www.web2py.com'
p4232
asbasbasbag56
(g72
g58
NtRp4233
(dp4234
g61
(dp4235
sg70
g4191
sg63
(lp4236
g56
(g77
g58
NtRp4237
(dp4238
g61
(dp4239
sg70
g4233
sg63
(lp4240
g56
(g57
g58
NtRp4241
(dp4242
g61
(dp4243
g69
I1
ssg70
g4237
sg63
(lp4244
(lp4245
(g3341
(S's\x08\x00\x00\x00Download'
tRp4246
I00
S'http://www.web2py.com/examples/default/download'
tp4247
a(g3341
(S's\x07\x00\x00\x00Support'
tRp4248
I00
S'http://www.web2py.com/examples/default/support'
tp4249
a(g3341
(S's\x0e\x00\x00\x00Quick Examples'
tRp4250
I00
S'http://web2py.com/examples/default/examples'
tp4251
a(g3341
(S's\x03\x00\x00\x00FAQ'
tRp4252
I00
S'http://web2py.com/AlterEgo'
tp4253
a(g3341
(S's\x11\x00\x00\x00Free Applications'
tRp4254
I00
S'http://web2py.com/appliances'
tp4255
a(g3341
(S's\x07\x00\x00\x00Plugins'
tRp4256
I00
S'http://web2py.com/plugins'
tp4257
a(g3341
(S's\x07\x00\x00\x00Recipes'
tRp4258
I00
S'http://web2pyslices.com/'
tp4259
a(g3341
(S's\x04\x00\x00\x00Demo'
tRp4260
I00
S'http://web2py.com/demo_admin'
tp4261
a(g3341
(S's\x08\x00\x00\x00Semantic'
tRp4262
I00
S'http://web2py.com/semantic'
tp4263
a(g3341
(S's\x07\x00\x00\x00Layouts'
tRp4264
I00
S'http://web2py.com/layouts'
tp4265
a(g3341
(S's\x06\x00\x00\x00Videos'
tRp4266
I00
S'http://www.web2py.com/examples/default/videos/'
tp4267
aasbasbasbasbasbasbasbasbasbasbasbasbasbasbasbasbasbasbasbag56
(g72
g58
NtRp4268
(dp4269
g61
(dp4270
sg70
g2836
sg63
(lp4271
g56
(g77
g58
NtRp4272
(dp4273
g61
(dp4274
g81
g82
ssg70
g4268
sg63
(lp4275
S'meta'
p4276
asbag56
(g77
g58
NtRp4277
(dp4278
g61
(dp4279
g88
g89
ssg70
g4268
sg63
(lp4280
S':'
asbag56
(g77
g58
NtRp4281
(dp4282
g61
(dp4283
sg70
g4268
sg63
(lp4284
g56
(g57
g58
NtRp4285
(dp4286
g61
(dp4287
g69
I5
ssg70
g4281
sg63
(lp4288
g56
(g65
g58
NtRp4289
(dp4290
g61
(dp4291
g69
I4
ssg70
Nsg63
(lp4292
g56
(g72
g58
NtRp4293
(dp4294
g61
(dp4295
sg70
g4289
sg63
(lp4296
g56
(g77
g58
NtRp4297
(dp4298
g61
(dp4299
g81
g82
ssg70
g4293
sg63
(lp4300
S'author'
p4301
asbag56
(g77
g58
NtRp4302
(dp4303
g61
(dp4304
g88
g89
ssg70
g4293
sg63
(lp4305
S':'
asbag56
(g77
g58
NtRp4306
(dp4307
g61
(dp4308
sg70
g4293
sg63
(lp4309
g56
(g57
g58
NtRp4310
(dp4311
g61
(dp4312
g69
I4
ssg70
g4306
sg63
(lp4313
S'you'
p4314
asbasbasbag56
(g72
g58
NtRp4315
(dp4316
g61
(dp4317
sg70
g4289
sg63
(lp4318
g56
(g77
g58
NtRp4319
(dp4320
g61
(dp4321
g81
g82
ssg70
g4315
sg63
(lp4322
S'copyright'
p4323
asbag56
(g77
g58
NtRp4324
(dp4325
g61
(dp4326
g88
g89
ssg70
g4315
sg63
(lp4327
S':'
asbag56
(g77
g58
NtRp4328
(dp4329
g61
(dp4330
sg70
g4315
sg63
(lp4331
g56
(g57
g58
NtRp4332
(dp4333
g61
(dp4334
g69
I4
ssg70
g4328
sg63
(lp4335
S'Copyright 2007-2010'
p4336
asbasbasbag56
(g72
g58
NtRp4337
(dp4338
g61
(dp4339
sg70
g4289
sg63
(lp4340
g56
(g77
g58
NtRp4341
(dp4342
g61
(dp4343
g81
g82
ssg70
g4337
sg63
(lp4344
S'description'
p4345
asbag56
(g77
g58
NtRp4346
(dp4347
g61
(dp4348
g88
g89
ssg70
g4337
sg63
(lp4349
S':'
asbag56
(g77
g58
NtRp4350
(dp4351
g61
(dp4352
sg70
g4337
sg63
(lp4353
g56
(g57
g58
NtRp4354
(dp4355
g61
(dp4356
g69
I4
ssg70
g4350
sg63
(lp4357
S'Free and open source full-stack enterprise framework for agile development of fast, scalable, secure and portable database-driven web-based applications. Written and programmable in Python'
p4358
asbasbasbag56
(g72
g58
NtRp4359
(dp4360
g61
(dp4361
sg70
g4289
sg63
(lp4362
g56
(g77
g58
NtRp4363
(dp4364
g61
(dp4365
g81
g82
ssg70
g4359
sg63
(lp4366
S'generator'
p4367
asbag56
(g77
g58
NtRp4368
(dp4369
g61
(dp4370
g88
g89
ssg70
g4359
sg63
(lp4371
S':'
asbag56
(g77
g58
NtRp4372
(dp4373
g61
(dp4374
sg70
g4359
sg63
(lp4375
g56
(g57
g58
NtRp4376
(dp4377
g61
(dp4378
g69
I4
ssg70
g4372
sg63
(lp4379
S'Web2py Enterprise Framework'
p4380
asbasbasbag56
(g72
g58
NtRp4381
(dp4382
g61
(dp4383
sg70
g4289
sg63
(lp4384
g56
(g77
g58
NtRp4385
(dp4386
g61
(dp4387
g81
g82
ssg70
g4381
sg63
(lp4388
S'keywords'
p4389
asbag56
(g77
g58
NtRp4390
(dp4391
g61
(dp4392
g88
g89
ssg70
g4381
sg63
(lp4393
S':'
asbag56
(g77
g58
NtRp4394
(dp4395
g61
(dp4396
sg70
g4381
sg63
(lp4397
g56
(g57
g58
NtRp4398
(dp4399
g61
(dp4400
g69
I4
ssg70
g4394
sg63
(lp4401
S'web2py, python, framework'
p4402
asbasbasbasbasbasbasbag56
(g72
g58
NtRp4403
(dp4404
g61
(dp4405
sg70
g2836
sg63
(lp4406
g56
(g77
g58
NtRp4407
(dp4408
g61
(dp4409
g81
g82
ssg70
g4403
sg63
(lp4410
S'postprocessing'
p4411
asbag56
(g77
g58
NtRp4412
(dp4413
g61
(dp4414
g88
g89
ssg70
g4403
sg63
(lp4415
S':'
asbag56
(g77
g58
NtRp4416
(dp4417
g61
(dp4418
sg70
g4403
sg63
(lp4419
g56
(g57
g58
NtRp4420
(dp4421
g61
(dp4422
g69
I5
ssg70
g4416
sg63
(lp4423
g56
(g65
g58
NtRp4424
(dp4425
g61
(dp4426
g69
I4
ssg70
Nsg63
(lp4427
sbasbasbasbag56
(g72
g58
NtRp4428
(dp4429
g61
(dp4430
sg70
g2836
sg63
(lp4431
g56
(g77
g58
NtRp4432
(dp4433
g61
(dp4434
g81
g82
ssg70
g4428
sg63
(lp4435
S'session_file'
p4436
asbag56
(g77
g58
NtRp4437
(dp4438
g61
(dp4439
g88
g89
ssg70
g4428
sg63
(lp4440
S':'
asbag56
(g77
g58
NtRp4441
(dp4442
g61
(dp4443
sg70
g4428
sg63
(lp4444
g56
(g57
g58
NtRp4445
(dp4446
g61
(dp4447
g69
I5
ssg70
g4441
sg63
(lp4448
S"<open file '/home/vsvah/Desktop/Coursework/Sem3/SSAD/web2py/applications/Music_Repo/sessions/127.0.0.1-58c50a89-5c2c-4324-a6ea-b9e20c8d0725', mode 'rb+' at 0x90845f8>"
p4449
asbasbasbag56
(g72
g58
NtRp4450
(dp4451
g61
(dp4452
sg70
g2836
sg63
(lp4453
g56
(g77
g58
NtRp4454
(dp4455
g61
(dp4456
g81
g82
ssg70
g4450
sg63
(lp4457
S'session_filename'
p4458
asbag56
(g77
g58
NtRp4459
(dp4460
g61
(dp4461
g88
g89
ssg70
g4450
sg63
(lp4462
S':'
asbag56
(g77
g58
NtRp4463
(dp4464
g61
(dp4465
sg70
g4450
sg63
(lp4466
g56
(g57
g58
NtRp4467
(dp4468
g61
(dp4469
g69
I5
ssg70
g4463
sg63
(lp4470
S'/home/vsvah/Desktop/Coursework/Sem3/SSAD/web2py/applications/Music_Repo/sessions/127.0.0.1-58c50a89-5c2c-4324-a6ea-b9e20c8d0725'
p4471
asbasbasbag56
(g72
g58
NtRp4472
(dp4473
g61
(dp4474
sg70
g2836
sg63
(lp4475
g56
(g77
g58
NtRp4476
(dp4477
g61
(dp4478
g81
g82
ssg70
g4472
sg63
(lp4479
S'session_id'
p4480
asbag56
(g77
g58
NtRp4481
(dp4482
g61
(dp4483
g88
g89
ssg70
g4472
sg63
(lp4484
S':'
asbag56
(g77
g58
NtRp4485
(dp4486
g61
(dp4487
sg70
g4472
sg63
(lp4488
g56
(g57
g58
NtRp4489
(dp4490
g61
(dp4491
g69
I5
ssg70
g4485
sg63
(lp4492
S'127.0.0.1-58c50a89-5c2c-4324-a6ea-b9e20c8d0725'
p4493
asbasbasbag56
(g72
g58
NtRp4494
(dp4495
g61
(dp4496
sg70
g2836
sg63
(lp4497
g56
(g77
g58
NtRp4498
(dp4499
g61
(dp4500
g81
g82
ssg70
g4494
sg63
(lp4501
S'session_id_name'
p4502
asbag56
(g77
g58
NtRp4503
(dp4504
g61
(dp4505
g88
g89
ssg70
g4494
sg63
(lp4506
S':'
asbag56
(g77
g58
NtRp4507
(dp4508
g61
(dp4509
sg70
g4494
sg63
(lp4510
g56
(g57
g58
NtRp4511
(dp4512
g61
(dp4513
g69
I5
ssg70
g4507
sg63
(lp4514
g2893
asbasbasbag56
(g72
g58
NtRp4515
(dp4516
g61
(dp4517
sg70
g2836
sg63
(lp4518
g56
(g77
g58
NtRp4519
(dp4520
g61
(dp4521
g81
g82
ssg70
g4515
sg63
(lp4522
S'session_locked'
p4523
asbag56
(g77
g58
NtRp4524
(dp4525
g61
(dp4526
g88
g89
ssg70
g4515
sg63
(lp4527
S':'
asbag56
(g77
g58
NtRp4528
(dp4529
g61
(dp4530
sg70
g4515
sg63
(lp4531
g56
(g57
g58
NtRp4532
(dp4533
g61
(dp4534
g69
I5
ssg70
g4528
sg63
(lp4535
g1612
asbasbasbag56
(g72
g58
NtRp4536
(dp4537
g61
(dp4538
sg70
g2836
sg63
(lp4539
g56
(g77
g58
NtRp4540
(dp4541
g61
(dp4542
g81
g82
ssg70
g4536
sg63
(lp4543
S'session_new'
p4544
asbag56
(g77
g58
NtRp4545
(dp4546
g61
(dp4547
g88
g89
ssg70
g4536
sg63
(lp4548
S':'
asbag56
(g77
g58
NtRp4549
(dp4550
g61
(dp4551
sg70
g4536
sg63
(lp4552
g56
(g57
g58
NtRp4553
(dp4554
g61
(dp4555
g69
I5
ssg70
g4549
sg63
(lp4556
g99
asbasbasbag56
(g72
g58
NtRp4557
(dp4558
g61
(dp4559
sg70
g2836
sg63
(lp4560
g56
(g77
g58
NtRp4561
(dp4562
g61
(dp4563
g81
g82
ssg70
g4557
sg63
(lp4564
S'status'
p4565
asbag56
(g77
g58
NtRp4566
(dp4567
g61
(dp4568
g88
g89
ssg70
g4557
sg63
(lp4569
S':'
asbag56
(g77
g58
NtRp4570
(dp4571
g61
(dp4572
sg70
g4557
sg63
(lp4573
g56
(g57
g58
NtRp4574
(dp4575
g61
(dp4576
g69
I5
ssg70
g4570
sg63
(lp4577
S'200'
p4578
asbasbasbag56
(g72
g58
NtRp4579
(dp4580
g61
(dp4581
sg70
g2836
sg63
(lp4582
g56
(g77
g58
NtRp4583
(dp4584
g61
(dp4585
g81
g82
ssg70
g4579
sg63
(lp4586
S'subtitle'
p4587
asbag56
(g77
g58
NtRp4588
(dp4589
g61
(dp4590
g88
g89
ssg70
g4579
sg63
(lp4591
S':'
asbag56
(g77
g58
NtRp4592
(dp4593
g61
(dp4594
sg70
g4579
sg63
(lp4595
g56
(g57
g58
NtRp4596
(dp4597
g61
(dp4598
g69
I5
ssg70
g4592
sg63
(lp4599
g3341
(S's\r\x00\x00\x00customize me!'
tRp4600
asbasbasbag56
(g72
g58
NtRp4601
(dp4602
g61
(dp4603
sg70
g2836
sg63
(lp4604
g56
(g77
g58
NtRp4605
(dp4606
g61
(dp4607
g81
g82
ssg70
g4601
sg63
(lp4608
S'title'
p4609
asbag56
(g77
g58
NtRp4610
(dp4611
g61
(dp4612
g88
g89
ssg70
g4601
sg63
(lp4613
S':'
asbag56
(g77
g58
NtRp4614
(dp4615
g61
(dp4616
sg70
g4601
sg63
(lp4617
g56
(g57
g58
NtRp4618
(dp4619
g61
(dp4620
g69
I5
ssg70
g4614
sg63
(lp4621
g121
asbasbasbag56
(g72
g58
NtRp4622
(dp4623
g61
(dp4624
sg70
g2836
sg63
(lp4625
g56
(g77
g58
NtRp4626
(dp4627
g61
(dp4628
g81
g82
ssg70
g4622
sg63
(lp4629
g1936
asbag56
(g77
g58
NtRp4630
(dp4631
g61
(dp4632
g88
g89
ssg70
g4622
sg63
(lp4633
S':'
asbag56
(g77
g58
NtRp4634
(dp4635
g61
(dp4636
sg70
g4622
sg63
(lp4637
g56
(g57
g58
NtRp4638
(dp4639
g61
(dp4640
g69
I5
ssg70
g4634
sg63
(lp4641
g1949
asbasbasbag56
(g72
g58
NtRp4642
(dp4643
g61
(dp4644
sg70
g2836
sg63
(lp4645
g56
(g77
g58
NtRp4646
(dp4647
g61
(dp4648
g81
g82
ssg70
g4642
sg63
(lp4649
S'view'
p4650
asbag56
(g77
g58
NtRp4651
(dp4652
g61
(dp4653
g88
g89
ssg70
g4642
sg63
(lp4654
S':'
asbag56
(g77
g58
NtRp4655
(dp4656
g61
(dp4657
sg70
g4642
sg63
(lp4658
g56
(g57
g58
NtRp4659
(dp4660
g61
(dp4661
g69
I5
ssg70
g4655
sg63
(lp4662
S'default/display_link.html'
p4663
asbasbasbasbasbsS'locals'
p4664
(dp4665
ssS'traceback'
p4666
S'Traceback (most recent call last):\n  File "/home/vsvah/Desktop/Coursework/Sem3/SSAD/web2py/gluon/restricted.py", line 192, in restricted\n    exec ccode in environment\n  File "/home/vsvah/Desktop/Coursework/Sem3/SSAD/web2py/applications/Music_Repo/controllers/default.py", line 195, in <module>\n  File "/home/vsvah/Desktop/Coursework/Sem3/SSAD/web2py/gluon/globals.py", line 145, in <lambda>\n    self._caller = lambda f: f()\n  File "/home/vsvah/Desktop/Coursework/Sem3/SSAD/web2py/applications/Music_Repo/controllers/default.py", line 161, in display_link\n    rows =db(db.song.movie==db.movie.id & db.movie.name == session.movie ).select()\nTypeError: unsupported operand type(s) for &: \'Field\' and \'Field\'\n'
p4667
s.