(dp1
S'output'
p2
S''
sS'layer'
p3
S'/home/vsvah/Desktop/Coursework/Sem3/SSAD/web2py/applications/Music_Repo/controllers/default.py'
p4
sS'code'
p5
S'# -*- coding: utf-8 -*-\n# this file is released under public domain and you can use without limitations\n\n#########################################################################\n## This is a samples controller\n## - index is the default action of any application\n## - user is required for authentication and authorization\n## - download is for downloading files uploaded in the db (does streaming)\n## - call exposes all registered services (none by default)\n#########################################################################\n\ndef index():\n    """\n    example action using the internationalization operator T and flash\n    rendered by views/default/index.html or views/generic.html\n    """\n    return dict(message=T(\'Hello World\'))\n\ndef user():\n    """\n    exposes:\n    http://..../[app]/default/user/login\n    http://..../[app]/default/user/logout\n    http://..../[app]/default/user/register\n    http://..../[app]/default/user/profile\n    http://..../[app]/default/user/retrieve_password\n    http://..../[app]/default/user/change_password\n    use @auth.requires_login()\n        @auth.requires_membership(\'group name\')\n        @auth.requires_permission(\'read\',\'table name\',record_id)\n    to decorate functions that need access control\n    """\n    return dict(form=auth())\n\n\ndef download():\n    """\n    allows downloading of uploaded files\n    http://..../[app]/default/download/[filename]\n    """\n    return response.download(request,db)\n\n\ndef call():\n    """\n    exposes services. for example:\n    http://..../[app]/default/call/jsonrpc\n    decorate with @services.jsonrpc the functions to expose\n    supports xml, json, xmlrpc, jsonrpc, amfrpc, rss, csv\n    """\n    return service()\n\n\n@auth.requires_signature()\ndef data():\n    """\n    http://..../[app]/default/data/tables\n    http://..../[app]/default/data/create/[table]\n    http://..../[app]/default/data/read/[table]/[id]\n    http://..../[app]/default/data/update/[table]/[id]\n    http://..../[app]/default/data/delete/[table]/[id[\n    http://..../[app]/default/data/select/[table]\n    http://..../[app]/default/data/search/[table]\n    but URLs bust be signed, i.e. linked with\n      A(\'table\',_href=URL(\'data/tables\',user_signature=True))\n    or with the signed load operator\n      LOAD(\'default\',\'data.load\',args=\'tables\',ajax=True,user_signature=True)\n    """\n    return dict(form=crud())\n\n\ndef form_for_artist():\n\tform = SQLFORM(db.artist)\n\tif form.accepts(request.vars, session):\n\t      response.flash = \'form accepted\'\n\telif form.errors:\n\t      response.flash = \'form has errors\'\n\telse:\n\t      response.flash = \'please fill out the form\'\n\treturn dict(form=form)\n\t\ndef form_for_movie():\n\tform = SQLFORM(db.movie)\n\tif form.accepts(request.vars, session):\n\t      response.flash = \'form accepted\'\n\telif form.errors:\n\t      response.flash = \'form has errors\'\n\telse:\n\t      response.flash = \'please fill out the form\'\n\treturn dict(form=form)\n\ndef form_for_song():\n\tform = SQLFORM(db.song)\n\tif form.accepts(request.vars, session):\n\t      response.flash = \'form accepted\'\n\telif form.errors:\n\t      response.flash = \'form has errors\'\n\telse:\n\t      response.flash = \'please fill out the form\'\n\treturn dict(form=form)\n@auth.requires_login()\ndef form_for_rating():\n\tform = SQLFORM(db.rating)\n\tif form.accepts(request.vars, session):\n\t      response.flash = \'form accepted\'\n\t      k = request.vars.rating\n\t      n = request.vars.song\n\t      row = db(db.rating.song==n).select()\n\t      s=0\n\t      c=0\n\t      for i in row:\n\t        s=s+i.rating\n\t        c=c+1\n\t        s=s/c\n\t      rows = db(db.song.id==n).select()\n\t      row = rows[0]\n\t      row.update_record(rating = s)\n\n\telif form.errors:\n\t      response.flash = \'form has errors\'\n\telse:\n\t      response.flash = \'please fill out the form\'\n\treturn dict(form=form)\n\ndef form_for_user():\n\tform = SQLFORM(db.auth_user)\n\tif form.accepts(request.vars, session):\n\t      response.flash = \'form accepted\'\n\telif form.errors:\n\t      response.flash = \'form has errors\'\n\telse:\n\t      response.flash = \'please fill out the form\'\n\treturn dict(form=form)\n\ndef query_form():\n\tform = SQLFORM.factory(\n\t\t\tField(\'query_number\',\'integer\',requires = IS_INT_IN_RANGE(1,6))\n\t\t\t)\n\tif form.accepts(request.vars,session):\n\t\tredirect(URL(\'q\'+request.vars.query_number))\n\treturn dict(form=form)\n\ndef song_artist_query():\n\tform = SQLFORM.factory(\n\t\t\tField(\'song_name\',\'string\')\n\t\t\tField(\'artist_name\',\'string\')\n\t\t\t)\n        if request.vars.song_name == None and request.vars.artist_name == None :\n\t        response.flash = \'please enter one field\'\n\telif form.accepts(request.vars,session):\n\t\tsession.name = request.vars.song_name\n\t\tsession.artist = request.vars.artist_name\n\t\tredirect(URL(\'display\'))\n        return dict(form=form)\n\ndef display():\n\treturn dict(r = "hello")\n\t   \n\ndef q1():\n\trow = db((db.song.singer == db.artist.id) & (db.artist.id == 3)).select(db.song.name)\n\treturn dict(r=row)\n\ndef q2():\n\trow = db((db.song.singer==db.artist.id) & (db.artist.name == "Balu")).select(db.song.name)\n\treturn dict(r=row)\n\ndef q3():\n\trow = db(((db.song.singer == db.artist.id) & (db.artist.name == "Balu")) & ((db.song.movie == db.movie.id) & (db.movie.name=="Shankarabharanam"))).select(db.song.name)\n\treturn dict(r=row)\n\ndef q4():\n\trow = db(((db.song.singer == db.artist.id) & (db.artist.name == "Balu")) & ((db.song.movie==db.movie.id) & (db.movie.release_date<datetime.date(2000,1,1)))).select(db.song.name,db.song.actor)\n\treturn dict(r=row)\n\ndef q5():\n\trow=db((db.song.rating>=4) & (db.song.singer==db.artist.id)).select(db.song.name,db.artist.name)\n\treturn dict(r=row)\n\ndef reset_state():\n\tdb.artist.truncate()\n\tdb.song.truncate()\n\tdb.movie.truncate()\n\tdb.rating.truncate()\n\tsession.k="truc"\n        return dict(r="All Tables Successfully Cleared :D")\n\t\n\nresponse._vars=response._caller(index)\n'
p6
sS'snapshot'
p7
(dp8
S'exception'
p9
(dp10
S'__getslice__'
p11
S"<method-wrapper '__getslice__' of exceptions.SyntaxError object>"
p12
sS'text'
p13
S'"\\t\\t\\tField(\'artist_name\',\'string\')\\n"'
p14
sS'__str__'
p15
S"<method-wrapper '__str__' of exceptions.SyntaxError object>"
p16
sS'__reduce__'
p17
S'<built-in method __reduce__ of exceptions.SyntaxError object>'
p18
sS'__dict__'
p19
S'{}'
p20
sS'__sizeof__'
p21
S'<built-in method __sizeof__ of exceptions.SyntaxError object>'
p22
sS'__init__'
p23
S"<method-wrapper '__init__' of exceptions.SyntaxError object>"
p24
sS'__setattr__'
p25
S"<method-wrapper '__setattr__' of exceptions.SyntaxError object>"
p26
sS'__reduce_ex__'
p27
S'<built-in method __reduce_ex__ of exceptions.SyntaxError object>'
p28
sS'__new__'
p29
S'<built-in method __new__ of type object>'
p30
sS'__format__'
p31
S'<built-in method __format__ of exceptions.SyntaxError object>'
p32
sS'__class__'
p33
S"<type 'exceptions.SyntaxError'>"
p34
sS'filename'
p35
S"'/home/vsvah/Desktop/Coursework/Sem3/SSAD/web2py/applications/Music_Repo/controllers/default.py'"
p36
sS'lineno'
p37
S'146'
p38
sS'msg'
p39
S"'invalid syntax'"
p40
sS'__doc__'
p41
S"'Invalid syntax.'"
p42
sS'__getitem__'
p43
S"<method-wrapper '__getitem__' of exceptions.SyntaxError object>"
p44
sS'__setstate__'
p45
S'<built-in method __setstate__ of exceptions.SyntaxError object>'
p46
sS'__getattribute__'
p47
S"<method-wrapper '__getattribute__' of exceptions.SyntaxError object>"
p48
sS'print_file_and_line'
p49
S'None'
p50
sS'args'
p51
S'(\'invalid syntax\', (\'/home/vsvah/Desktop/Coursework/Sem3/SSAD/web2py/applications/Music_Repo/controllers/default.py\', 146, 8, "\\t\\t\\tField(\'artist_name\',\'string\')\\n"))'
p52
sS'__subclasshook__'
p53
S'<built-in method __subclasshook__ of type object>'
p54
sS'offset'
p55
S'8'
sS'__unicode__'
p56
S'<built-in method __unicode__ of exceptions.SyntaxError object>'
p57
sS'__delattr__'
p58
S"<method-wrapper '__delattr__' of exceptions.SyntaxError object>"
p59
sS'__repr__'
p60
S"<method-wrapper '__repr__' of exceptions.SyntaxError object>"
p61
sS'__hash__'
p62
S"<method-wrapper '__hash__' of exceptions.SyntaxError object>"
p63
ssS'evalue'
p64
S'invalid syntax (default.py, line 146)'
p65
sS'request'
p66
ccopy_reg
_reconstructor
p67
(cgluon.html
BEAUTIFY
p68
c__builtin__
object
p69
NtRp70
(dp71
S'attributes'
p72
(dp73
sS'components'
p74
(lp75
g67
(cgluon.html
TABLE
p76
g69
NtRp77
(dp78
g72
(dp79
S'level'
p80
I5
ssS'parent'
p81
Nsg74
(lp82
g67
(cgluon.html
TR
p83
g69
NtRp84
(dp85
g72
(dp86
sg81
g77
sg74
(lp87
g67
(cgluon.html
TD
p88
g69
NtRp89
(dp90
g72
(dp91
S'_style'
p92
S'font-weight:bold;'
p93
ssg81
g84
sg74
(lp94
S'ajax'
p95
asbag67
(g88
g69
NtRp96
(dp97
g72
(dp98
S'_valign'
p99
S'top'
p100
ssg81
g84
sg74
(lp101
S':'
asbag67
(g88
g69
NtRp102
(dp103
g72
(dp104
sg81
g84
sg74
(lp105
g67
(g68
g69
NtRp106
(dp107
g72
(dp108
g80
I5
ssg81
g102
sg74
(lp109
S'False'
p110
asbasbasbag67
(g83
g69
NtRp111
(dp112
g72
(dp113
sg81
g77
sg74
(lp114
g67
(g88
g69
NtRp115
(dp116
g72
(dp117
g92
g93
ssg81
g111
sg74
(lp118
S'application'
p119
asbag67
(g88
g69
NtRp120
(dp121
g72
(dp122
g99
g100
ssg81
g111
sg74
(lp123
S':'
asbag67
(g88
g69
NtRp124
(dp125
g72
(dp126
sg81
g111
sg74
(lp127
g67
(g68
g69
NtRp128
(dp129
g72
(dp130
g80
I5
ssg81
g124
sg74
(lp131
S'Music_Repo'
p132
asbasbasbag67
(g83
g69
NtRp133
(dp134
g72
(dp135
sg81
g77
sg74
(lp136
g67
(g88
g69
NtRp137
(dp138
g72
(dp139
g92
g93
ssg81
g133
sg74
(lp140
g51
asbag67
(g88
g69
NtRp141
(dp142
g72
(dp143
g99
g100
ssg81
g133
sg74
(lp144
S':'
asbag67
(g88
g69
NtRp145
(dp146
g72
(dp147
sg81
g133
sg74
(lp148
g67
(g68
g69
NtRp149
(dp150
g72
(dp151
g80
I5
ssg81
g145
sg74
(lp152
g67
(g76
g69
NtRp153
(dp154
g72
(dp155
g80
I4
ssg81
Nsg74
(lp156
sbasbasbasbag67
(g83
g69
NtRp157
(dp158
g72
(dp159
sg81
g77
sg74
(lp160
g67
(g88
g69
NtRp161
(dp162
g72
(dp163
g92
g93
ssg81
g157
sg74
(lp164
S'body'
p165
asbag67
(g88
g69
NtRp166
(dp167
g72
(dp168
g99
g100
ssg81
g157
sg74
(lp169
S':'
asbag67
(g88
g69
NtRp170
(dp171
g72
(dp172
sg81
g157
sg74
(lp173
g67
(g68
g69
NtRp174
(dp175
g72
(dp176
g80
I5
ssg81
g170
sg74
(lp177
S'<cStringIO.StringO object at 0x8e7bae0>'
p178
asbasbasbag67
(g83
g69
NtRp179
(dp180
g72
(dp181
sg81
g77
sg74
(lp182
g67
(g88
g69
NtRp183
(dp184
g72
(dp185
g92
g93
ssg81
g179
sg74
(lp186
S'client'
p187
asbag67
(g88
g69
NtRp188
(dp189
g72
(dp190
g99
g100
ssg81
g179
sg74
(lp191
S':'
asbag67
(g88
g69
NtRp192
(dp193
g72
(dp194
sg81
g179
sg74
(lp195
g67
(g68
g69
NtRp196
(dp197
g72
(dp198
g80
I5
ssg81
g192
sg74
(lp199
S'127.0.0.1'
p200
asbasbasbag67
(g83
g69
NtRp201
(dp202
g72
(dp203
sg81
g77
sg74
(lp204
g67
(g88
g69
NtRp205
(dp206
g72
(dp207
g92
g93
ssg81
g201
sg74
(lp208
S'controller'
p209
asbag67
(g88
g69
NtRp210
(dp211
g72
(dp212
g99
g100
ssg81
g201
sg74
(lp213
S':'
asbag67
(g88
g69
NtRp214
(dp215
g72
(dp216
sg81
g201
sg74
(lp217
g67
(g68
g69
NtRp218
(dp219
g72
(dp220
g80
I5
ssg81
g214
sg74
(lp221
S'default'
p222
asbasbasbag67
(g83
g69
NtRp223
(dp224
g72
(dp225
sg81
g77
sg74
(lp226
g67
(g88
g69
NtRp227
(dp228
g72
(dp229
g92
g93
ssg81
g223
sg74
(lp230
S'cookies'
p231
asbag67
(g88
g69
NtRp232
(dp233
g72
(dp234
g99
g100
ssg81
g223
sg74
(lp235
S':'
asbag67
(g88
g69
NtRp236
(dp237
g72
(dp238
sg81
g223
sg74
(lp239
g67
(g68
g69
NtRp240
(dp241
g72
(dp242
g80
I5
ssg81
g236
sg74
(lp243
g67
(g76
g69
NtRp244
(dp245
g72
(dp246
g80
I4
ssg81
Nsg74
(lp247
g67
(g83
g69
NtRp248
(dp249
g72
(dp250
sg81
g244
sg74
(lp251
g67
(g88
g69
NtRp252
(dp253
g72
(dp254
g92
g93
ssg81
g248
sg74
(lp255
S'session_id_admin'
p256
asbag67
(g88
g69
NtRp257
(dp258
g72
(dp259
g99
g100
ssg81
g248
sg74
(lp260
S':'
asbag67
(g88
g69
NtRp261
(dp262
g72
(dp263
sg81
g248
sg74
(lp264
g67
(g68
g69
NtRp265
(dp266
g72
(dp267
g80
I4
ssg81
g261
sg74
(lp268
g67
(g76
g69
NtRp269
(dp270
g72
(dp271
g80
I3
ssg81
Nsg74
(lp272
g67
(g83
g69
NtRp273
(dp274
g72
(dp275
sg81
g269
sg74
(lp276
g67
(g88
g69
NtRp277
(dp278
g72
(dp279
g92
g93
ssg81
g273
sg74
(lp280
S'comment'
p281
asbag67
(g88
g69
NtRp282
(dp283
g72
(dp284
g99
g100
ssg81
g273
sg74
(lp285
S':'
asbag67
(g88
g69
NtRp286
(dp287
g72
(dp288
sg81
g273
sg74
(lp289
g67
(g68
g69
NtRp290
(dp291
g72
(dp292
g80
I3
ssg81
g286
sg74
(lp293
S''
asbasbasbag67
(g83
g69
NtRp294
(dp295
g72
(dp296
sg81
g269
sg74
(lp297
g67
(g88
g69
NtRp298
(dp299
g72
(dp300
g92
g93
ssg81
g294
sg74
(lp301
S'domain'
p302
asbag67
(g88
g69
NtRp303
(dp304
g72
(dp305
g99
g100
ssg81
g294
sg74
(lp306
S':'
asbag67
(g88
g69
NtRp307
(dp308
g72
(dp309
sg81
g294
sg74
(lp310
g67
(g68
g69
NtRp311
(dp312
g72
(dp313
g80
I3
ssg81
g307
sg74
(lp314
S''
asbasbasbag67
(g83
g69
NtRp315
(dp316
g72
(dp317
sg81
g269
sg74
(lp318
g67
(g88
g69
NtRp319
(dp320
g72
(dp321
g92
g93
ssg81
g315
sg74
(lp322
S'expires'
p323
asbag67
(g88
g69
NtRp324
(dp325
g72
(dp326
g99
g100
ssg81
g315
sg74
(lp327
S':'
asbag67
(g88
g69
NtRp328
(dp329
g72
(dp330
sg81
g315
sg74
(lp331
g67
(g68
g69
NtRp332
(dp333
g72
(dp334
g80
I3
ssg81
g328
sg74
(lp335
S''
asbasbasbag67
(g83
g69
NtRp336
(dp337
g72
(dp338
sg81
g269
sg74
(lp339
g67
(g88
g69
NtRp340
(dp341
g72
(dp342
g92
g93
ssg81
g336
sg74
(lp343
S'httponly'
p344
asbag67
(g88
g69
NtRp345
(dp346
g72
(dp347
g99
g100
ssg81
g336
sg74
(lp348
S':'
asbag67
(g88
g69
NtRp349
(dp350
g72
(dp351
sg81
g336
sg74
(lp352
g67
(g68
g69
NtRp353
(dp354
g72
(dp355
g80
I3
ssg81
g349
sg74
(lp356
S''
asbasbasbag67
(g83
g69
NtRp357
(dp358
g72
(dp359
sg81
g269
sg74
(lp360
g67
(g88
g69
NtRp361
(dp362
g72
(dp363
g92
g93
ssg81
g357
sg74
(lp364
S'max-age'
p365
asbag67
(g88
g69
NtRp366
(dp367
g72
(dp368
g99
g100
ssg81
g357
sg74
(lp369
S':'
asbag67
(g88
g69
NtRp370
(dp371
g72
(dp372
sg81
g357
sg74
(lp373
g67
(g68
g69
NtRp374
(dp375
g72
(dp376
g80
I3
ssg81
g370
sg74
(lp377
S''
asbasbasbag67
(g83
g69
NtRp378
(dp379
g72
(dp380
sg81
g269
sg74
(lp381
g67
(g88
g69
NtRp382
(dp383
g72
(dp384
g92
g93
ssg81
g378
sg74
(lp385
S'path'
p386
asbag67
(g88
g69
NtRp387
(dp388
g72
(dp389
g99
g100
ssg81
g378
sg74
(lp390
S':'
asbag67
(g88
g69
NtRp391
(dp392
g72
(dp393
sg81
g378
sg74
(lp394
g67
(g68
g69
NtRp395
(dp396
g72
(dp397
g80
I3
ssg81
g391
sg74
(lp398
S''
asbasbasbag67
(g83
g69
NtRp399
(dp400
g72
(dp401
sg81
g269
sg74
(lp402
g67
(g88
g69
NtRp403
(dp404
g72
(dp405
g92
g93
ssg81
g399
sg74
(lp406
S'secure'
p407
asbag67
(g88
g69
NtRp408
(dp409
g72
(dp410
g99
g100
ssg81
g399
sg74
(lp411
S':'
asbag67
(g88
g69
NtRp412
(dp413
g72
(dp414
sg81
g399
sg74
(lp415
g67
(g68
g69
NtRp416
(dp417
g72
(dp418
g80
I3
ssg81
g412
sg74
(lp419
S''
asbasbasbag67
(g83
g69
NtRp420
(dp421
g72
(dp422
sg81
g269
sg74
(lp423
g67
(g88
g69
NtRp424
(dp425
g72
(dp426
g92
g93
ssg81
g420
sg74
(lp427
S'version'
p428
asbag67
(g88
g69
NtRp429
(dp430
g72
(dp431
g99
g100
ssg81
g420
sg74
(lp432
S':'
asbag67
(g88
g69
NtRp433
(dp434
g72
(dp435
sg81
g420
sg74
(lp436
g67
(g68
g69
NtRp437
(dp438
g72
(dp439
g80
I3
ssg81
g433
sg74
(lp440
S''
asbasbasbasbasbasbasbag67
(g83
g69
NtRp441
(dp442
g72
(dp443
sg81
g244
sg74
(lp444
g67
(g88
g69
NtRp445
(dp446
g72
(dp447
g92
g93
ssg81
g441
sg74
(lp448
S'session_id_music_repo'
p449
asbag67
(g88
g69
NtRp450
(dp451
g72
(dp452
g99
g100
ssg81
g441
sg74
(lp453
S':'
asbag67
(g88
g69
NtRp454
(dp455
g72
(dp456
sg81
g441
sg74
(lp457
g67
(g68
g69
NtRp458
(dp459
g72
(dp460
g80
I4
ssg81
g454
sg74
(lp461
g67
(g76
g69
NtRp462
(dp463
g72
(dp464
g80
I3
ssg81
Nsg74
(lp465
g67
(g83
g69
NtRp466
(dp467
g72
(dp468
sg81
g462
sg74
(lp469
g67
(g88
g69
NtRp470
(dp471
g72
(dp472
g92
g93
ssg81
g466
sg74
(lp473
g281
asbag67
(g88
g69
NtRp474
(dp475
g72
(dp476
g99
g100
ssg81
g466
sg74
(lp477
S':'
asbag67
(g88
g69
NtRp478
(dp479
g72
(dp480
sg81
g466
sg74
(lp481
g67
(g68
g69
NtRp482
(dp483
g72
(dp484
g80
I3
ssg81
g478
sg74
(lp485
S''
asbasbasbag67
(g83
g69
NtRp486
(dp487
g72
(dp488
sg81
g462
sg74
(lp489
g67
(g88
g69
NtRp490
(dp491
g72
(dp492
g92
g93
ssg81
g486
sg74
(lp493
g302
asbag67
(g88
g69
NtRp494
(dp495
g72
(dp496
g99
g100
ssg81
g486
sg74
(lp497
S':'
asbag67
(g88
g69
NtRp498
(dp499
g72
(dp500
sg81
g486
sg74
(lp501
g67
(g68
g69
NtRp502
(dp503
g72
(dp504
g80
I3
ssg81
g498
sg74
(lp505
S''
asbasbasbag67
(g83
g69
NtRp506
(dp507
g72
(dp508
sg81
g462
sg74
(lp509
g67
(g88
g69
NtRp510
(dp511
g72
(dp512
g92
g93
ssg81
g506
sg74
(lp513
g323
asbag67
(g88
g69
NtRp514
(dp515
g72
(dp516
g99
g100
ssg81
g506
sg74
(lp517
S':'
asbag67
(g88
g69
NtRp518
(dp519
g72
(dp520
sg81
g506
sg74
(lp521
g67
(g68
g69
NtRp522
(dp523
g72
(dp524
g80
I3
ssg81
g518
sg74
(lp525
S''
asbasbasbag67
(g83
g69
NtRp526
(dp527
g72
(dp528
sg81
g462
sg74
(lp529
g67
(g88
g69
NtRp530
(dp531
g72
(dp532
g92
g93
ssg81
g526
sg74
(lp533
g344
asbag67
(g88
g69
NtRp534
(dp535
g72
(dp536
g99
g100
ssg81
g526
sg74
(lp537
S':'
asbag67
(g88
g69
NtRp538
(dp539
g72
(dp540
sg81
g526
sg74
(lp541
g67
(g68
g69
NtRp542
(dp543
g72
(dp544
g80
I3
ssg81
g538
sg74
(lp545
S''
asbasbasbag67
(g83
g69
NtRp546
(dp547
g72
(dp548
sg81
g462
sg74
(lp549
g67
(g88
g69
NtRp550
(dp551
g72
(dp552
g92
g93
ssg81
g546
sg74
(lp553
g365
asbag67
(g88
g69
NtRp554
(dp555
g72
(dp556
g99
g100
ssg81
g546
sg74
(lp557
S':'
asbag67
(g88
g69
NtRp558
(dp559
g72
(dp560
sg81
g546
sg74
(lp561
g67
(g68
g69
NtRp562
(dp563
g72
(dp564
g80
I3
ssg81
g558
sg74
(lp565
S''
asbasbasbag67
(g83
g69
NtRp566
(dp567
g72
(dp568
sg81
g462
sg74
(lp569
g67
(g88
g69
NtRp570
(dp571
g72
(dp572
g92
g93
ssg81
g566
sg74
(lp573
g386
asbag67
(g88
g69
NtRp574
(dp575
g72
(dp576
g99
g100
ssg81
g566
sg74
(lp577
S':'
asbag67
(g88
g69
NtRp578
(dp579
g72
(dp580
sg81
g566
sg74
(lp581
g67
(g68
g69
NtRp582
(dp583
g72
(dp584
g80
I3
ssg81
g578
sg74
(lp585
S''
asbasbasbag67
(g83
g69
NtRp586
(dp587
g72
(dp588
sg81
g462
sg74
(lp589
g67
(g88
g69
NtRp590
(dp591
g72
(dp592
g92
g93
ssg81
g586
sg74
(lp593
g407
asbag67
(g88
g69
NtRp594
(dp595
g72
(dp596
g99
g100
ssg81
g586
sg74
(lp597
S':'
asbag67
(g88
g69
NtRp598
(dp599
g72
(dp600
sg81
g586
sg74
(lp601
g67
(g68
g69
NtRp602
(dp603
g72
(dp604
g80
I3
ssg81
g598
sg74
(lp605
S''
asbasbasbag67
(g83
g69
NtRp606
(dp607
g72
(dp608
sg81
g462
sg74
(lp609
g67
(g88
g69
NtRp610
(dp611
g72
(dp612
g92
g93
ssg81
g606
sg74
(lp613
g428
asbag67
(g88
g69
NtRp614
(dp615
g72
(dp616
g99
g100
ssg81
g606
sg74
(lp617
S':'
asbag67
(g88
g69
NtRp618
(dp619
g72
(dp620
sg81
g606
sg74
(lp621
g67
(g68
g69
NtRp622
(dp623
g72
(dp624
g80
I3
ssg81
g618
sg74
(lp625
S''
asbasbasbasbasbasbasbag67
(g83
g69
NtRp626
(dp627
g72
(dp628
sg81
g244
sg74
(lp629
g67
(g88
g69
NtRp630
(dp631
g72
(dp632
g92
g93
ssg81
g626
sg74
(lp633
S'session_id_welcome'
p634
asbag67
(g88
g69
NtRp635
(dp636
g72
(dp637
g99
g100
ssg81
g626
sg74
(lp638
S':'
asbag67
(g88
g69
NtRp639
(dp640
g72
(dp641
sg81
g626
sg74
(lp642
g67
(g68
g69
NtRp643
(dp644
g72
(dp645
g80
I4
ssg81
g639
sg74
(lp646
g67
(g76
g69
NtRp647
(dp648
g72
(dp649
g80
I3
ssg81
Nsg74
(lp650
g67
(g83
g69
NtRp651
(dp652
g72
(dp653
sg81
g647
sg74
(lp654
g67
(g88
g69
NtRp655
(dp656
g72
(dp657
g92
g93
ssg81
g651
sg74
(lp658
g281
asbag67
(g88
g69
NtRp659
(dp660
g72
(dp661
g99
g100
ssg81
g651
sg74
(lp662
S':'
asbag67
(g88
g69
NtRp663
(dp664
g72
(dp665
sg81
g651
sg74
(lp666
g67
(g68
g69
NtRp667
(dp668
g72
(dp669
g80
I3
ssg81
g663
sg74
(lp670
S''
asbasbasbag67
(g83
g69
NtRp671
(dp672
g72
(dp673
sg81
g647
sg74
(lp674
g67
(g88
g69
NtRp675
(dp676
g72
(dp677
g92
g93
ssg81
g671
sg74
(lp678
g302
asbag67
(g88
g69
NtRp679
(dp680
g72
(dp681
g99
g100
ssg81
g671
sg74
(lp682
S':'
asbag67
(g88
g69
NtRp683
(dp684
g72
(dp685
sg81
g671
sg74
(lp686
g67
(g68
g69
NtRp687
(dp688
g72
(dp689
g80
I3
ssg81
g683
sg74
(lp690
S''
asbasbasbag67
(g83
g69
NtRp691
(dp692
g72
(dp693
sg81
g647
sg74
(lp694
g67
(g88
g69
NtRp695
(dp696
g72
(dp697
g92
g93
ssg81
g691
sg74
(lp698
g323
asbag67
(g88
g69
NtRp699
(dp700
g72
(dp701
g99
g100
ssg81
g691
sg74
(lp702
S':'
asbag67
(g88
g69
NtRp703
(dp704
g72
(dp705
sg81
g691
sg74
(lp706
g67
(g68
g69
NtRp707
(dp708
g72
(dp709
g80
I3
ssg81
g703
sg74
(lp710
S''
asbasbasbag67
(g83
g69
NtRp711
(dp712
g72
(dp713
sg81
g647
sg74
(lp714
g67
(g88
g69
NtRp715
(dp716
g72
(dp717
g92
g93
ssg81
g711
sg74
(lp718
g344
asbag67
(g88
g69
NtRp719
(dp720
g72
(dp721
g99
g100
ssg81
g711
sg74
(lp722
S':'
asbag67
(g88
g69
NtRp723
(dp724
g72
(dp725
sg81
g711
sg74
(lp726
g67
(g68
g69
NtRp727
(dp728
g72
(dp729
g80
I3
ssg81
g723
sg74
(lp730
S''
asbasbasbag67
(g83
g69
NtRp731
(dp732
g72
(dp733
sg81
g647
sg74
(lp734
g67
(g88
g69
NtRp735
(dp736
g72
(dp737
g92
g93
ssg81
g731
sg74
(lp738
g365
asbag67
(g88
g69
NtRp739
(dp740
g72
(dp741
g99
g100
ssg81
g731
sg74
(lp742
S':'
asbag67
(g88
g69
NtRp743
(dp744
g72
(dp745
sg81
g731
sg74
(lp746
g67
(g68
g69
NtRp747
(dp748
g72
(dp749
g80
I3
ssg81
g743
sg74
(lp750
S''
asbasbasbag67
(g83
g69
NtRp751
(dp752
g72
(dp753
sg81
g647
sg74
(lp754
g67
(g88
g69
NtRp755
(dp756
g72
(dp757
g92
g93
ssg81
g751
sg74
(lp758
g386
asbag67
(g88
g69
NtRp759
(dp760
g72
(dp761
g99
g100
ssg81
g751
sg74
(lp762
S':'
asbag67
(g88
g69
NtRp763
(dp764
g72
(dp765
sg81
g751
sg74
(lp766
g67
(g68
g69
NtRp767
(dp768
g72
(dp769
g80
I3
ssg81
g763
sg74
(lp770
S''
asbasbasbag67
(g83
g69
NtRp771
(dp772
g72
(dp773
sg81
g647
sg74
(lp774
g67
(g88
g69
NtRp775
(dp776
g72
(dp777
g92
g93
ssg81
g771
sg74
(lp778
g407
asbag67
(g88
g69
NtRp779
(dp780
g72
(dp781
g99
g100
ssg81
g771
sg74
(lp782
S':'
asbag67
(g88
g69
NtRp783
(dp784
g72
(dp785
sg81
g771
sg74
(lp786
g67
(g68
g69
NtRp787
(dp788
g72
(dp789
g80
I3
ssg81
g783
sg74
(lp790
S''
asbasbasbag67
(g83
g69
NtRp791
(dp792
g72
(dp793
sg81
g647
sg74
(lp794
g67
(g88
g69
NtRp795
(dp796
g72
(dp797
g92
g93
ssg81
g791
sg74
(lp798
g428
asbag67
(g88
g69
NtRp799
(dp800
g72
(dp801
g99
g100
ssg81
g791
sg74
(lp802
S':'
asbag67
(g88
g69
NtRp803
(dp804
g72
(dp805
sg81
g791
sg74
(lp806
g67
(g68
g69
NtRp807
(dp808
g72
(dp809
g80
I3
ssg81
g803
sg74
(lp810
S''
asbasbasbasbasbasbasbasbasbasbasbag67
(g83
g69
NtRp811
(dp812
g72
(dp813
sg81
g77
sg74
(lp814
g67
(g88
g69
NtRp815
(dp816
g72
(dp817
g92
g93
ssg81
g811
sg74
(lp818
S'env'
p819
asbag67
(g88
g69
NtRp820
(dp821
g72
(dp822
g99
g100
ssg81
g811
sg74
(lp823
S':'
asbag67
(g88
g69
NtRp824
(dp825
g72
(dp826
sg81
g811
sg74
(lp827
g67
(g68
g69
NtRp828
(dp829
g72
(dp830
g80
I5
ssg81
g824
sg74
(lp831
g67
(g76
g69
NtRp832
(dp833
g72
(dp834
g80
I4
ssg81
Nsg74
(lp835
g67
(g83
g69
NtRp836
(dp837
g72
(dp838
sg81
g832
sg74
(lp839
g67
(g88
g69
NtRp840
(dp841
g72
(dp842
g92
g93
ssg81
g836
sg74
(lp843
S'app_folders'
p844
asbag67
(g88
g69
NtRp845
(dp846
g72
(dp847
g99
g100
ssg81
g836
sg74
(lp848
S':'
asbag67
(g88
g69
NtRp849
(dp850
g72
(dp851
sg81
g836
sg74
(lp852
g67
(g68
g69
NtRp853
(dp854
g72
(dp855
g80
I4
ssg81
g849
sg74
(lp856
S"set(['/home/vsvah/Desktop/Coursework/Sem3/SSAD/web2py/applications/Music_Repo/', '/home/vsvah/Desktop/Coursework/Sem3/SSAD/web2py/applications/admin/', '/home/vsvah/Desktop/Coursework/Sem3/SSAD/web2py/applications/welcome/'])"
p857
asbasbasbag67
(g83
g69
NtRp858
(dp859
g72
(dp860
sg81
g832
sg74
(lp861
g67
(g88
g69
NtRp862
(dp863
g72
(dp864
g92
g93
ssg81
g858
sg74
(lp865
S'applications_parent'
p866
asbag67
(g88
g69
NtRp867
(dp868
g72
(dp869
g99
g100
ssg81
g858
sg74
(lp870
S':'
asbag67
(g88
g69
NtRp871
(dp872
g72
(dp873
sg81
g858
sg74
(lp874
g67
(g68
g69
NtRp875
(dp876
g72
(dp877
g80
I4
ssg81
g871
sg74
(lp878
S'/home/vsvah/Desktop/Coursework/Sem3/SSAD/web2py'
p879
asbasbasbag67
(g83
g69
NtRp880
(dp881
g72
(dp882
sg81
g832
sg74
(lp883
g67
(g88
g69
NtRp884
(dp885
g72
(dp886
g92
g93
ssg81
g880
sg74
(lp887
S'cmd_args'
p888
asbag67
(g88
g69
NtRp889
(dp890
g72
(dp891
g99
g100
ssg81
g880
sg74
(lp892
S':'
asbag67
(g88
g69
NtRp893
(dp894
g72
(dp895
sg81
g880
sg74
(lp896
g67
(g68
g69
NtRp897
(dp898
g72
(dp899
g80
I4
ssg81
g893
sg74
(lp900
g67
(g76
g69
NtRp901
(dp902
g72
(dp903
g80
I3
ssg81
Nsg74
(lp904
sbasbasbasbag67
(g83
g69
NtRp905
(dp906
g72
(dp907
sg81
g832
sg74
(lp908
g67
(g88
g69
NtRp909
(dp910
g72
(dp911
g92
g93
ssg81
g905
sg74
(lp912
S'cmd_options'
p913
asbag67
(g88
g69
NtRp914
(dp915
g72
(dp916
g99
g100
ssg81
g905
sg74
(lp917
S':'
asbag67
(g88
g69
NtRp918
(dp919
g72
(dp920
sg81
g905
sg74
(lp921
g67
(g68
g69
NtRp922
(dp923
g72
(dp924
g80
I4
ssg81
g918
sg74
(lp925
S"<Values at 0x892c04c: {'verbose': False, 'ip': '127.0.0.1', 'shutdown_timeout': 5, 'taskbar': False, 'port': 8000, 'maxthreads': None, 'softcron': False, 'server_name': 'vsvah-laptop', 'bpython': False, 'nogui': False, 'nocron': False, 'extcron': False, 'debuglevel': 30, 'test': None, 'folder': '/home/vsvah/Desktop/Coursework/Sem3/SSAD/web2py', 'config': '', 'import_models': False, 'winservice': '', 'shell': None, 'run': '', 'log_filename': 'httpserver.log', 'args': [''], 'profiler_filename': None, 'ssl_private_key': '', 'password': '<ask>', 'request_queue_size': 5, 'ssl_certificate': '', 'cronjob': False, 'plain': False, 'quiet': False, 'interfaces': None, 'minthreads': None, 'timeout': 10, 'numthreads': None, 'nobanner': False, 'pid_filename': 'httpserver.pid'}>"
p926
asbasbasbag67
(g83
g69
NtRp927
(dp928
g72
(dp929
sg81
g832
sg74
(lp930
g67
(g88
g69
NtRp931
(dp932
g72
(dp933
g92
g93
ssg81
g927
sg74
(lp934
S'db_sessions'
p935
asbag67
(g88
g69
NtRp936
(dp937
g72
(dp938
g99
g100
ssg81
g927
sg74
(lp939
S':'
asbag67
(g88
g69
NtRp940
(dp941
g72
(dp942
sg81
g927
sg74
(lp943
g67
(g68
g69
NtRp944
(dp945
g72
(dp946
g80
I4
ssg81
g940
sg74
(lp947
S'set([])'
p948
asbasbasbag67
(g83
g69
NtRp949
(dp950
g72
(dp951
sg81
g832
sg74
(lp952
g67
(g88
g69
NtRp953
(dp954
g72
(dp955
g92
g93
ssg81
g949
sg74
(lp956
S'debugging'
p957
asbag67
(g88
g69
NtRp958
(dp959
g72
(dp960
g99
g100
ssg81
g949
sg74
(lp961
S':'
asbag67
(g88
g69
NtRp962
(dp963
g72
(dp964
sg81
g949
sg74
(lp965
g67
(g68
g69
NtRp966
(dp967
g72
(dp968
g80
I4
ssg81
g962
sg74
(lp969
g110
asbasbasbag67
(g83
g69
NtRp970
(dp971
g72
(dp972
sg81
g832
sg74
(lp973
g67
(g88
g69
NtRp974
(dp975
g72
(dp976
g92
g93
ssg81
g970
sg74
(lp977
S'gluon_parent'
p978
asbag67
(g88
g69
NtRp979
(dp980
g72
(dp981
g99
g100
ssg81
g970
sg74
(lp982
S':'
asbag67
(g88
g69
NtRp983
(dp984
g72
(dp985
sg81
g970
sg74
(lp986
g67
(g68
g69
NtRp987
(dp988
g72
(dp989
g80
I4
ssg81
g983
sg74
(lp990
S'/home/vsvah/Desktop/Coursework/Sem3/SSAD/web2py'
p991
asbasbasbag67
(g83
g69
NtRp992
(dp993
g72
(dp994
sg81
g832
sg74
(lp995
g67
(g88
g69
NtRp996
(dp997
g72
(dp998
g92
g93
ssg81
g992
sg74
(lp999
S'http_accept'
p1000
asbag67
(g88
g69
NtRp1001
(dp1002
g72
(dp1003
g99
g100
ssg81
g992
sg74
(lp1004
S':'
asbag67
(g88
g69
NtRp1005
(dp1006
g72
(dp1007
sg81
g992
sg74
(lp1008
g67
(g68
g69
NtRp1009
(dp1010
g72
(dp1011
g80
I4
ssg81
g1005
sg74
(lp1012
S'text/html,application/xhtml+xml,application/xml;q=0.9,*/*;q=0.8'
p1013
asbasbasbag67
(g83
g69
NtRp1014
(dp1015
g72
(dp1016
sg81
g832
sg74
(lp1017
g67
(g88
g69
NtRp1018
(dp1019
g72
(dp1020
g92
g93
ssg81
g1014
sg74
(lp1021
S'http_accept_charset'
p1022
asbag67
(g88
g69
NtRp1023
(dp1024
g72
(dp1025
g99
g100
ssg81
g1014
sg74
(lp1026
S':'
asbag67
(g88
g69
NtRp1027
(dp1028
g72
(dp1029
sg81
g1014
sg74
(lp1030
g67
(g68
g69
NtRp1031
(dp1032
g72
(dp1033
g80
I4
ssg81
g1027
sg74
(lp1034
S'ISO-8859-1,utf-8;q=0.7,*;q=0.7'
p1035
asbasbasbag67
(g83
g69
NtRp1036
(dp1037
g72
(dp1038
sg81
g832
sg74
(lp1039
g67
(g88
g69
NtRp1040
(dp1041
g72
(dp1042
g92
g93
ssg81
g1036
sg74
(lp1043
S'http_accept_encoding'
p1044
asbag67
(g88
g69
NtRp1045
(dp1046
g72
(dp1047
g99
g100
ssg81
g1036
sg74
(lp1048
S':'
asbag67
(g88
g69
NtRp1049
(dp1050
g72
(dp1051
sg81
g1036
sg74
(lp1052
g67
(g68
g69
NtRp1053
(dp1054
g72
(dp1055
g80
I4
ssg81
g1049
sg74
(lp1056
S'gzip,deflate'
p1057
asbasbasbag67
(g83
g69
NtRp1058
(dp1059
g72
(dp1060
sg81
g832
sg74
(lp1061
g67
(g88
g69
NtRp1062
(dp1063
g72
(dp1064
g92
g93
ssg81
g1058
sg74
(lp1065
S'http_accept_language'
p1066
asbag67
(g88
g69
NtRp1067
(dp1068
g72
(dp1069
g99
g100
ssg81
g1058
sg74
(lp1070
S':'
asbag67
(g88
g69
NtRp1071
(dp1072
g72
(dp1073
sg81
g1058
sg74
(lp1074
g67
(g68
g69
NtRp1075
(dp1076
g72
(dp1077
g80
I4
ssg81
g1071
sg74
(lp1078
S'en-us,en;q=0.5'
p1079
asbasbasbag67
(g83
g69
NtRp1080
(dp1081
g72
(dp1082
sg81
g832
sg74
(lp1083
g67
(g88
g69
NtRp1084
(dp1085
g72
(dp1086
g92
g93
ssg81
g1080
sg74
(lp1087
S'http_cache_control'
p1088
asbag67
(g88
g69
NtRp1089
(dp1090
g72
(dp1091
g99
g100
ssg81
g1080
sg74
(lp1092
S':'
asbag67
(g88
g69
NtRp1093
(dp1094
g72
(dp1095
sg81
g1080
sg74
(lp1096
g67
(g68
g69
NtRp1097
(dp1098
g72
(dp1099
g80
I4
ssg81
g1093
sg74
(lp1100
S'max-age=0'
p1101
asbasbasbag67
(g83
g69
NtRp1102
(dp1103
g72
(dp1104
sg81
g832
sg74
(lp1105
g67
(g88
g69
NtRp1106
(dp1107
g72
(dp1108
g92
g93
ssg81
g1102
sg74
(lp1109
S'http_connection'
p1110
asbag67
(g88
g69
NtRp1111
(dp1112
g72
(dp1113
g99
g100
ssg81
g1102
sg74
(lp1114
S':'
asbag67
(g88
g69
NtRp1115
(dp1116
g72
(dp1117
sg81
g1102
sg74
(lp1118
g67
(g68
g69
NtRp1119
(dp1120
g72
(dp1121
g80
I4
ssg81
g1115
sg74
(lp1122
S'keep-alive'
p1123
asbasbasbag67
(g83
g69
NtRp1124
(dp1125
g72
(dp1126
sg81
g832
sg74
(lp1127
g67
(g88
g69
NtRp1128
(dp1129
g72
(dp1130
g92
g93
ssg81
g1124
sg74
(lp1131
S'http_cookie'
p1132
asbag67
(g88
g69
NtRp1133
(dp1134
g72
(dp1135
g99
g100
ssg81
g1124
sg74
(lp1136
S':'
asbag67
(g88
g69
NtRp1137
(dp1138
g72
(dp1139
sg81
g1124
sg74
(lp1140
g67
(g68
g69
NtRp1141
(dp1142
g72
(dp1143
g80
I4
ssg81
g1137
sg74
(lp1144
S'session_id_welcome=127.0.0.1-60017955-a100-4bab-803b-a00037f3e933; session_id_admin=127.0.0.1-6e08d662-4206-44e0-900a-81fd115e8515; session_id_music_repo=127.0.0.1-58c50a89-5c2c-4324-a6ea-b9e20c8d0725'
p1145
asbasbasbag67
(g83
g69
NtRp1146
(dp1147
g72
(dp1148
sg81
g832
sg74
(lp1149
g67
(g88
g69
NtRp1150
(dp1151
g72
(dp1152
g92
g93
ssg81
g1146
sg74
(lp1153
S'http_host'
p1154
asbag67
(g88
g69
NtRp1155
(dp1156
g72
(dp1157
g99
g100
ssg81
g1146
sg74
(lp1158
S':'
asbag67
(g88
g69
NtRp1159
(dp1160
g72
(dp1161
sg81
g1146
sg74
(lp1162
g67
(g68
g69
NtRp1163
(dp1164
g72
(dp1165
g80
I4
ssg81
g1159
sg74
(lp1166
S'127.0.0.1:8000'
p1167
asbasbasbag67
(g83
g69
NtRp1168
(dp1169
g72
(dp1170
sg81
g832
sg74
(lp1171
g67
(g88
g69
NtRp1172
(dp1173
g72
(dp1174
g92
g93
ssg81
g1168
sg74
(lp1175
S'http_keep_alive'
p1176
asbag67
(g88
g69
NtRp1177
(dp1178
g72
(dp1179
g99
g100
ssg81
g1168
sg74
(lp1180
S':'
asbag67
(g88
g69
NtRp1181
(dp1182
g72
(dp1183
sg81
g1168
sg74
(lp1184
g67
(g68
g69
NtRp1185
(dp1186
g72
(dp1187
g80
I4
ssg81
g1181
sg74
(lp1188
S'115'
p1189
asbasbasbag67
(g83
g69
NtRp1190
(dp1191
g72
(dp1192
sg81
g832
sg74
(lp1193
g67
(g88
g69
NtRp1194
(dp1195
g72
(dp1196
g92
g93
ssg81
g1190
sg74
(lp1197
S'http_referer'
p1198
asbag67
(g88
g69
NtRp1199
(dp1200
g72
(dp1201
g99
g100
ssg81
g1190
sg74
(lp1202
S':'
asbag67
(g88
g69
NtRp1203
(dp1204
g72
(dp1205
sg81
g1190
sg74
(lp1206
g67
(g68
g69
NtRp1207
(dp1208
g72
(dp1209
g80
I4
ssg81
g1203
sg74
(lp1210
S'http://127.0.0.1:8000/Music_Repo/default/reset_state'
p1211
asbasbasbag67
(g83
g69
NtRp1212
(dp1213
g72
(dp1214
sg81
g832
sg74
(lp1215
g67
(g88
g69
NtRp1216
(dp1217
g72
(dp1218
g92
g93
ssg81
g1212
sg74
(lp1219
S'http_user_agent'
p1220
asbag67
(g88
g69
NtRp1221
(dp1222
g72
(dp1223
g99
g100
ssg81
g1212
sg74
(lp1224
S':'
asbag67
(g88
g69
NtRp1225
(dp1226
g72
(dp1227
sg81
g1212
sg74
(lp1228
g67
(g68
g69
NtRp1229
(dp1230
g72
(dp1231
g80
I4
ssg81
g1225
sg74
(lp1232
S'Mozilla/5.0 (X11; U; Linux i686; en-US; rv:1.9.2.16) Gecko/20110323 Ubuntu/10.04 (lucid) Firefox/3.6.16'
p1233
asbasbasbag67
(g83
g69
NtRp1234
(dp1235
g72
(dp1236
sg81
g832
sg74
(lp1237
g67
(g88
g69
NtRp1238
(dp1239
g72
(dp1240
g92
g93
ssg81
g1234
sg74
(lp1241
S'is_jython'
p1242
asbag67
(g88
g69
NtRp1243
(dp1244
g72
(dp1245
g99
g100
ssg81
g1234
sg74
(lp1246
S':'
asbag67
(g88
g69
NtRp1247
(dp1248
g72
(dp1249
sg81
g1234
sg74
(lp1250
g67
(g68
g69
NtRp1251
(dp1252
g72
(dp1253
g80
I4
ssg81
g1247
sg74
(lp1254
g110
asbasbasbag67
(g83
g69
NtRp1255
(dp1256
g72
(dp1257
sg81
g832
sg74
(lp1258
g67
(g88
g69
NtRp1259
(dp1260
g72
(dp1261
g92
g93
ssg81
g1255
sg74
(lp1262
S'path_info'
p1263
asbag67
(g88
g69
NtRp1264
(dp1265
g72
(dp1266
g99
g100
ssg81
g1255
sg74
(lp1267
S':'
asbag67
(g88
g69
NtRp1268
(dp1269
g72
(dp1270
sg81
g1255
sg74
(lp1271
g67
(g68
g69
NtRp1272
(dp1273
g72
(dp1274
g80
I4
ssg81
g1268
sg74
(lp1275
S'/Music_Repo/default/index.html'
p1276
asbasbasbag67
(g83
g69
NtRp1277
(dp1278
g72
(dp1279
sg81
g832
sg74
(lp1280
g67
(g88
g69
NtRp1281
(dp1282
g72
(dp1283
g92
g93
ssg81
g1277
sg74
(lp1284
S'query_string'
p1285
asbag67
(g88
g69
NtRp1286
(dp1287
g72
(dp1288
g99
g100
ssg81
g1277
sg74
(lp1289
S':'
asbag67
(g88
g69
NtRp1290
(dp1291
g72
(dp1292
sg81
g1277
sg74
(lp1293
g67
(g68
g69
NtRp1294
(dp1295
g72
(dp1296
g80
I4
ssg81
g1290
sg74
(lp1297
S''
asbasbasbag67
(g83
g69
NtRp1298
(dp1299
g72
(dp1300
sg81
g832
sg74
(lp1301
g67
(g88
g69
NtRp1302
(dp1303
g72
(dp1304
g92
g93
ssg81
g1298
sg74
(lp1305
S'remote_addr'
p1306
asbag67
(g88
g69
NtRp1307
(dp1308
g72
(dp1309
g99
g100
ssg81
g1298
sg74
(lp1310
S':'
asbag67
(g88
g69
NtRp1311
(dp1312
g72
(dp1313
sg81
g1298
sg74
(lp1314
g67
(g68
g69
NtRp1315
(dp1316
g72
(dp1317
g80
I4
ssg81
g1311
sg74
(lp1318
g200
asbasbasbag67
(g83
g69
NtRp1319
(dp1320
g72
(dp1321
sg81
g832
sg74
(lp1322
g67
(g88
g69
NtRp1323
(dp1324
g72
(dp1325
g92
g93
ssg81
g1319
sg74
(lp1326
S'remote_port'
p1327
asbag67
(g88
g69
NtRp1328
(dp1329
g72
(dp1330
g99
g100
ssg81
g1319
sg74
(lp1331
S':'
asbag67
(g88
g69
NtRp1332
(dp1333
g72
(dp1334
sg81
g1319
sg74
(lp1335
g67
(g68
g69
NtRp1336
(dp1337
g72
(dp1338
g80
I4
ssg81
g1332
sg74
(lp1339
S'49742'
p1340
asbasbasbag67
(g83
g69
NtRp1341
(dp1342
g72
(dp1343
sg81
g832
sg74
(lp1344
g67
(g88
g69
NtRp1345
(dp1346
g72
(dp1347
g92
g93
ssg81
g1341
sg74
(lp1348
S'request_method'
p1349
asbag67
(g88
g69
NtRp1350
(dp1351
g72
(dp1352
g99
g100
ssg81
g1341
sg74
(lp1353
S':'
asbag67
(g88
g69
NtRp1354
(dp1355
g72
(dp1356
sg81
g1341
sg74
(lp1357
g67
(g68
g69
NtRp1358
(dp1359
g72
(dp1360
g80
I4
ssg81
g1354
sg74
(lp1361
S'GET'
p1362
asbasbasbag67
(g83
g69
NtRp1363
(dp1364
g72
(dp1365
sg81
g832
sg74
(lp1366
g67
(g88
g69
NtRp1367
(dp1368
g72
(dp1369
g92
g93
ssg81
g1363
sg74
(lp1370
S'script_name'
p1371
asbag67
(g88
g69
NtRp1372
(dp1373
g72
(dp1374
g99
g100
ssg81
g1363
sg74
(lp1375
S':'
asbag67
(g88
g69
NtRp1376
(dp1377
g72
(dp1378
sg81
g1363
sg74
(lp1379
g67
(g68
g69
NtRp1380
(dp1381
g72
(dp1382
g80
I4
ssg81
g1376
sg74
(lp1383
S''
asbasbasbag67
(g83
g69
NtRp1384
(dp1385
g72
(dp1386
sg81
g832
sg74
(lp1387
g67
(g88
g69
NtRp1388
(dp1389
g72
(dp1390
g92
g93
ssg81
g1384
sg74
(lp1391
S'server_name'
p1392
asbag67
(g88
g69
NtRp1393
(dp1394
g72
(dp1395
g99
g100
ssg81
g1384
sg74
(lp1396
S':'
asbag67
(g88
g69
NtRp1397
(dp1398
g72
(dp1399
sg81
g1384
sg74
(lp1400
g67
(g68
g69
NtRp1401
(dp1402
g72
(dp1403
g80
I4
ssg81
g1397
sg74
(lp1404
S'vsvah-laptop'
p1405
asbasbasbag67
(g83
g69
NtRp1406
(dp1407
g72
(dp1408
sg81
g832
sg74
(lp1409
g67
(g88
g69
NtRp1410
(dp1411
g72
(dp1412
g92
g93
ssg81
g1406
sg74
(lp1413
S'server_port'
p1414
asbag67
(g88
g69
NtRp1415
(dp1416
g72
(dp1417
g99
g100
ssg81
g1406
sg74
(lp1418
S':'
asbag67
(g88
g69
NtRp1419
(dp1420
g72
(dp1421
sg81
g1406
sg74
(lp1422
g67
(g68
g69
NtRp1423
(dp1424
g72
(dp1425
g80
I4
ssg81
g1419
sg74
(lp1426
S'8000'
p1427
asbasbasbag67
(g83
g69
NtRp1428
(dp1429
g72
(dp1430
sg81
g832
sg74
(lp1431
g67
(g88
g69
NtRp1432
(dp1433
g72
(dp1434
g92
g93
ssg81
g1428
sg74
(lp1435
S'server_protocol'
p1436
asbag67
(g88
g69
NtRp1437
(dp1438
g72
(dp1439
g99
g100
ssg81
g1428
sg74
(lp1440
S':'
asbag67
(g88
g69
NtRp1441
(dp1442
g72
(dp1443
sg81
g1428
sg74
(lp1444
g67
(g68
g69
NtRp1445
(dp1446
g72
(dp1447
g80
I4
ssg81
g1441
sg74
(lp1448
S'HTTP/1.1'
p1449
asbasbasbag67
(g83
g69
NtRp1450
(dp1451
g72
(dp1452
sg81
g832
sg74
(lp1453
g67
(g88
g69
NtRp1454
(dp1455
g72
(dp1456
g92
g93
ssg81
g1450
sg74
(lp1457
S'server_software'
p1458
asbag67
(g88
g69
NtRp1459
(dp1460
g72
(dp1461
g99
g100
ssg81
g1450
sg74
(lp1462
S':'
asbag67
(g88
g69
NtRp1463
(dp1464
g72
(dp1465
sg81
g1450
sg74
(lp1466
g67
(g68
g69
NtRp1467
(dp1468
g72
(dp1469
g80
I4
ssg81
g1463
sg74
(lp1470
S'Rocket 1.2.2'
p1471
asbasbasbag67
(g83
g69
NtRp1472
(dp1473
g72
(dp1474
sg81
g832
sg74
(lp1475
g67
(g88
g69
NtRp1476
(dp1477
g72
(dp1478
g92
g93
ssg81
g1472
sg74
(lp1479
S'web2py_crontype'
p1480
asbag67
(g88
g69
NtRp1481
(dp1482
g72
(dp1483
g99
g100
ssg81
g1472
sg74
(lp1484
S':'
asbag67
(g88
g69
NtRp1485
(dp1486
g72
(dp1487
sg81
g1472
sg74
(lp1488
g67
(g68
g69
NtRp1489
(dp1490
g72
(dp1491
g80
I4
ssg81
g1485
sg74
(lp1492
S'hard'
p1493
asbasbasbag67
(g83
g69
NtRp1494
(dp1495
g72
(dp1496
sg81
g832
sg74
(lp1497
g67
(g88
g69
NtRp1498
(dp1499
g72
(dp1500
g92
g93
ssg81
g1494
sg74
(lp1501
S'web2py_path'
p1502
asbag67
(g88
g69
NtRp1503
(dp1504
g72
(dp1505
g99
g100
ssg81
g1494
sg74
(lp1506
S':'
asbag67
(g88
g69
NtRp1507
(dp1508
g72
(dp1509
sg81
g1494
sg74
(lp1510
g67
(g68
g69
NtRp1511
(dp1512
g72
(dp1513
g80
I4
ssg81
g1507
sg74
(lp1514
g879
asbasbasbag67
(g83
g69
NtRp1515
(dp1516
g72
(dp1517
sg81
g832
sg74
(lp1518
g67
(g88
g69
NtRp1519
(dp1520
g72
(dp1521
g92
g93
ssg81
g1515
sg74
(lp1522
S'web2py_version'
p1523
asbag67
(g88
g69
NtRp1524
(dp1525
g72
(dp1526
g99
g100
ssg81
g1515
sg74
(lp1527
S':'
asbag67
(g88
g69
NtRp1528
(dp1529
g72
(dp1530
sg81
g1515
sg74
(lp1531
g67
(g68
g69
NtRp1532
(dp1533
g72
(dp1534
g80
I4
ssg81
g1528
sg74
(lp1535
S'Version 1.98.2 (2011-08-04 00:47:09)\n'
p1536
asbasbasbag67
(g83
g69
NtRp1537
(dp1538
g72
(dp1539
sg81
g832
sg74
(lp1540
g67
(g88
g69
NtRp1541
(dp1542
g72
(dp1543
g92
g93
ssg81
g1537
sg74
(lp1544
S'wsgi_errors'
p1545
asbag67
(g88
g69
NtRp1546
(dp1547
g72
(dp1548
g99
g100
ssg81
g1537
sg74
(lp1549
S':'
asbag67
(g88
g69
NtRp1550
(dp1551
g72
(dp1552
sg81
g1537
sg74
(lp1553
g67
(g68
g69
NtRp1554
(dp1555
g72
(dp1556
g80
I4
ssg81
g1550
sg74
(lp1557
S"<open file '<stderr>', mode 'w' at 0xb77850d0>"
p1558
asbasbasbag67
(g83
g69
NtRp1559
(dp1560
g72
(dp1561
sg81
g832
sg74
(lp1562
g67
(g88
g69
NtRp1563
(dp1564
g72
(dp1565
g92
g93
ssg81
g1559
sg74
(lp1566
S'wsgi_file_wrapper'
p1567
asbag67
(g88
g69
NtRp1568
(dp1569
g72
(dp1570
g99
g100
ssg81
g1559
sg74
(lp1571
S':'
asbag67
(g88
g69
NtRp1572
(dp1573
g72
(dp1574
sg81
g1559
sg74
(lp1575
g67
(g68
g69
NtRp1576
(dp1577
g72
(dp1578
g80
I4
ssg81
g1572
sg74
(lp1579
S'<class gluon.rocket.FileWrapper at 0x883408c>'
p1580
asbasbasbag67
(g83
g69
NtRp1581
(dp1582
g72
(dp1583
sg81
g832
sg74
(lp1584
g67
(g88
g69
NtRp1585
(dp1586
g72
(dp1587
g92
g93
ssg81
g1581
sg74
(lp1588
S'wsgi_input'
p1589
asbag67
(g88
g69
NtRp1590
(dp1591
g72
(dp1592
g99
g100
ssg81
g1581
sg74
(lp1593
S':'
asbag67
(g88
g69
NtRp1594
(dp1595
g72
(dp1596
sg81
g1581
sg74
(lp1597
g67
(g68
g69
NtRp1598
(dp1599
g72
(dp1600
g80
I4
ssg81
g1594
sg74
(lp1601
S'<socket._fileobject object at 0x8c6fdec>'
p1602
asbasbasbag67
(g83
g69
NtRp1603
(dp1604
g72
(dp1605
sg81
g832
sg74
(lp1606
g67
(g88
g69
NtRp1607
(dp1608
g72
(dp1609
g92
g93
ssg81
g1603
sg74
(lp1610
S'wsgi_multiprocess'
p1611
asbag67
(g88
g69
NtRp1612
(dp1613
g72
(dp1614
g99
g100
ssg81
g1603
sg74
(lp1615
S':'
asbag67
(g88
g69
NtRp1616
(dp1617
g72
(dp1618
sg81
g1603
sg74
(lp1619
g67
(g68
g69
NtRp1620
(dp1621
g72
(dp1622
g80
I4
ssg81
g1616
sg74
(lp1623
g110
asbasbasbag67
(g83
g69
NtRp1624
(dp1625
g72
(dp1626
sg81
g832
sg74
(lp1627
g67
(g88
g69
NtRp1628
(dp1629
g72
(dp1630
g92
g93
ssg81
g1624
sg74
(lp1631
S'wsgi_multithread'
p1632
asbag67
(g88
g69
NtRp1633
(dp1634
g72
(dp1635
g99
g100
ssg81
g1624
sg74
(lp1636
S':'
asbag67
(g88
g69
NtRp1637
(dp1638
g72
(dp1639
sg81
g1624
sg74
(lp1640
g67
(g68
g69
NtRp1641
(dp1642
g72
(dp1643
g80
I4
ssg81
g1637
sg74
(lp1644
S'True'
p1645
asbasbasbag67
(g83
g69
NtRp1646
(dp1647
g72
(dp1648
sg81
g832
sg74
(lp1649
g67
(g88
g69
NtRp1650
(dp1651
g72
(dp1652
g92
g93
ssg81
g1646
sg74
(lp1653
S'wsgi_run_once'
p1654
asbag67
(g88
g69
NtRp1655
(dp1656
g72
(dp1657
g99
g100
ssg81
g1646
sg74
(lp1658
S':'
asbag67
(g88
g69
NtRp1659
(dp1660
g72
(dp1661
sg81
g1646
sg74
(lp1662
g67
(g68
g69
NtRp1663
(dp1664
g72
(dp1665
g80
I4
ssg81
g1659
sg74
(lp1666
g110
asbasbasbag67
(g83
g69
NtRp1667
(dp1668
g72
(dp1669
sg81
g832
sg74
(lp1670
g67
(g88
g69
NtRp1671
(dp1672
g72
(dp1673
g92
g93
ssg81
g1667
sg74
(lp1674
S'wsgi_url_scheme'
p1675
asbag67
(g88
g69
NtRp1676
(dp1677
g72
(dp1678
g99
g100
ssg81
g1667
sg74
(lp1679
S':'
asbag67
(g88
g69
NtRp1680
(dp1681
g72
(dp1682
sg81
g1667
sg74
(lp1683
g67
(g68
g69
NtRp1684
(dp1685
g72
(dp1686
g80
I4
ssg81
g1680
sg74
(lp1687
S'http'
p1688
asbasbasbag67
(g83
g69
NtRp1689
(dp1690
g72
(dp1691
sg81
g832
sg74
(lp1692
g67
(g88
g69
NtRp1693
(dp1694
g72
(dp1695
g92
g93
ssg81
g1689
sg74
(lp1696
S'wsgi_version'
p1697
asbag67
(g88
g69
NtRp1698
(dp1699
g72
(dp1700
g99
g100
ssg81
g1689
sg74
(lp1701
S':'
asbag67
(g88
g69
NtRp1702
(dp1703
g72
(dp1704
sg81
g1689
sg74
(lp1705
g67
(g68
g69
NtRp1706
(dp1707
g72
(dp1708
g80
I4
ssg81
g1702
sg74
(lp1709
g67
(g76
g69
NtRp1710
(dp1711
g72
(dp1712
g80
I3
ssg81
Nsg74
(lp1713
g67
(g83
g69
NtRp1714
(dp1715
g72
(dp1716
sg81
g1710
sg74
(lp1717
g67
(g88
g69
NtRp1718
(dp1719
g72
(dp1720
sg81
g1714
sg74
(lp1721
g67
(g68
g69
NtRp1722
(dp1723
g72
(dp1724
g80
I3
ssg81
g1718
sg74
(lp1725
S'1'
asbasbasbag67
(g83
g69
NtRp1726
(dp1727
g72
(dp1728
sg81
g1710
sg74
(lp1729
g67
(g88
g69
NtRp1730
(dp1731
g72
(dp1732
sg81
g1726
sg74
(lp1733
g67
(g68
g69
NtRp1734
(dp1735
g72
(dp1736
g80
I3
ssg81
g1730
sg74
(lp1737
S'0'
asbasbasbasbasbasbasbasbasbasbasbag67
(g83
g69
NtRp1738
(dp1739
g72
(dp1740
sg81
g77
sg74
(lp1741
g67
(g88
g69
NtRp1742
(dp1743
g72
(dp1744
g92
g93
ssg81
g1738
sg74
(lp1745
S'extension'
p1746
asbag67
(g88
g69
NtRp1747
(dp1748
g72
(dp1749
g99
g100
ssg81
g1738
sg74
(lp1750
S':'
asbag67
(g88
g69
NtRp1751
(dp1752
g72
(dp1753
sg81
g1738
sg74
(lp1754
g67
(g68
g69
NtRp1755
(dp1756
g72
(dp1757
g80
I5
ssg81
g1751
sg74
(lp1758
S'html'
p1759
asbasbasbag67
(g83
g69
NtRp1760
(dp1761
g72
(dp1762
sg81
g77
sg74
(lp1763
g67
(g88
g69
NtRp1764
(dp1765
g72
(dp1766
g92
g93
ssg81
g1760
sg74
(lp1767
S'folder'
p1768
asbag67
(g88
g69
NtRp1769
(dp1770
g72
(dp1771
g99
g100
ssg81
g1760
sg74
(lp1772
S':'
asbag67
(g88
g69
NtRp1773
(dp1774
g72
(dp1775
sg81
g1760
sg74
(lp1776
g67
(g68
g69
NtRp1777
(dp1778
g72
(dp1779
g80
I5
ssg81
g1773
sg74
(lp1780
S'/home/vsvah/Desktop/Coursework/Sem3/SSAD/web2py/applications/Music_Repo/'
p1781
asbasbasbag67
(g83
g69
NtRp1782
(dp1783
g72
(dp1784
sg81
g77
sg74
(lp1785
g67
(g88
g69
NtRp1786
(dp1787
g72
(dp1788
g92
g93
ssg81
g1782
sg74
(lp1789
S'function'
p1790
asbag67
(g88
g69
NtRp1791
(dp1792
g72
(dp1793
g99
g100
ssg81
g1782
sg74
(lp1794
S':'
asbag67
(g88
g69
NtRp1795
(dp1796
g72
(dp1797
sg81
g1782
sg74
(lp1798
g67
(g68
g69
NtRp1799
(dp1800
g72
(dp1801
g80
I5
ssg81
g1795
sg74
(lp1802
S'index'
p1803
asbasbasbag67
(g83
g69
NtRp1804
(dp1805
g72
(dp1806
sg81
g77
sg74
(lp1807
g67
(g88
g69
NtRp1808
(dp1809
g72
(dp1810
g92
g93
ssg81
g1804
sg74
(lp1811
S'get_vars'
p1812
asbag67
(g88
g69
NtRp1813
(dp1814
g72
(dp1815
g99
g100
ssg81
g1804
sg74
(lp1816
S':'
asbag67
(g88
g69
NtRp1817
(dp1818
g72
(dp1819
sg81
g1804
sg74
(lp1820
g67
(g68
g69
NtRp1821
(dp1822
g72
(dp1823
g80
I5
ssg81
g1817
sg74
(lp1824
g67
(g76
g69
NtRp1825
(dp1826
g72
(dp1827
g80
I4
ssg81
Nsg74
(lp1828
sbasbasbasbag67
(g83
g69
NtRp1829
(dp1830
g72
(dp1831
sg81
g77
sg74
(lp1832
g67
(g88
g69
NtRp1833
(dp1834
g72
(dp1835
g92
g93
ssg81
g1829
sg74
(lp1836
S'is_https'
p1837
asbag67
(g88
g69
NtRp1838
(dp1839
g72
(dp1840
g99
g100
ssg81
g1829
sg74
(lp1841
S':'
asbag67
(g88
g69
NtRp1842
(dp1843
g72
(dp1844
sg81
g1829
sg74
(lp1845
g67
(g68
g69
NtRp1846
(dp1847
g72
(dp1848
g80
I5
ssg81
g1842
sg74
(lp1849
g110
asbasbasbag67
(g83
g69
NtRp1850
(dp1851
g72
(dp1852
sg81
g77
sg74
(lp1853
g67
(g88
g69
NtRp1854
(dp1855
g72
(dp1856
g92
g93
ssg81
g1850
sg74
(lp1857
S'is_local'
p1858
asbag67
(g88
g69
NtRp1859
(dp1860
g72
(dp1861
g99
g100
ssg81
g1850
sg74
(lp1862
S':'
asbag67
(g88
g69
NtRp1863
(dp1864
g72
(dp1865
sg81
g1850
sg74
(lp1866
g67
(g68
g69
NtRp1867
(dp1868
g72
(dp1869
g80
I5
ssg81
g1863
sg74
(lp1870
g1645
asbasbasbag67
(g83
g69
NtRp1871
(dp1872
g72
(dp1873
sg81
g77
sg74
(lp1874
g67
(g88
g69
NtRp1875
(dp1876
g72
(dp1877
g92
g93
ssg81
g1871
sg74
(lp1878
S'is_restful'
p1879
asbag67
(g88
g69
NtRp1880
(dp1881
g72
(dp1882
g99
g100
ssg81
g1871
sg74
(lp1883
S':'
asbag67
(g88
g69
NtRp1884
(dp1885
g72
(dp1886
sg81
g1871
sg74
(lp1887
g67
(g68
g69
NtRp1888
(dp1889
g72
(dp1890
g80
I5
ssg81
g1884
sg74
(lp1891
g110
asbasbasbag67
(g83
g69
NtRp1892
(dp1893
g72
(dp1894
sg81
g77
sg74
(lp1895
g67
(g88
g69
NtRp1896
(dp1897
g72
(dp1898
g92
g93
ssg81
g1892
sg74
(lp1899
S'now'
p1900
asbag67
(g88
g69
NtRp1901
(dp1902
g72
(dp1903
g99
g100
ssg81
g1892
sg74
(lp1904
S':'
asbag67
(g88
g69
NtRp1905
(dp1906
g72
(dp1907
sg81
g1892
sg74
(lp1908
g67
(g68
g69
NtRp1909
(dp1910
g72
(dp1911
g80
I5
ssg81
g1905
sg74
(lp1912
S'datetime.datetime(2011, 9, 5, 20, 37, 1, 325364)'
p1913
asbasbasbag67
(g83
g69
NtRp1914
(dp1915
g72
(dp1916
sg81
g77
sg74
(lp1917
g67
(g88
g69
NtRp1918
(dp1919
g72
(dp1920
g92
g93
ssg81
g1914
sg74
(lp1921
S'post_vars'
p1922
asbag67
(g88
g69
NtRp1923
(dp1924
g72
(dp1925
g99
g100
ssg81
g1914
sg74
(lp1926
S':'
asbag67
(g88
g69
NtRp1927
(dp1928
g72
(dp1929
sg81
g1914
sg74
(lp1930
g67
(g68
g69
NtRp1931
(dp1932
g72
(dp1933
g80
I5
ssg81
g1927
sg74
(lp1934
g67
(g76
g69
NtRp1935
(dp1936
g72
(dp1937
g80
I4
ssg81
Nsg74
(lp1938
sbasbasbasbag67
(g83
g69
NtRp1939
(dp1940
g72
(dp1941
sg81
g77
sg74
(lp1942
g67
(g88
g69
NtRp1943
(dp1944
g72
(dp1945
g92
g93
ssg81
g1939
sg74
(lp1946
S'raw_extension'
p1947
asbag67
(g88
g69
NtRp1948
(dp1949
g72
(dp1950
g99
g100
ssg81
g1939
sg74
(lp1951
S':'
asbag67
(g88
g69
NtRp1952
(dp1953
g72
(dp1954
sg81
g1939
sg74
(lp1955
g67
(g68
g69
NtRp1956
(dp1957
g72
(dp1958
g80
I5
ssg81
g1952
sg74
(lp1959
g1759
asbasbasbag67
(g83
g69
NtRp1960
(dp1961
g72
(dp1962
sg81
g77
sg74
(lp1963
g67
(g88
g69
NtRp1964
(dp1965
g72
(dp1966
g92
g93
ssg81
g1960
sg74
(lp1967
S'url'
p1968
asbag67
(g88
g69
NtRp1969
(dp1970
g72
(dp1971
g99
g100
ssg81
g1960
sg74
(lp1972
S':'
asbag67
(g88
g69
NtRp1973
(dp1974
g72
(dp1975
sg81
g1960
sg74
(lp1976
g67
(g68
g69
NtRp1977
(dp1978
g72
(dp1979
g80
I5
ssg81
g1973
sg74
(lp1980
S'/Music_Repo/default/index.html'
p1981
asbasbasbag67
(g83
g69
NtRp1982
(dp1983
g72
(dp1984
sg81
g77
sg74
(lp1985
g67
(g88
g69
NtRp1986
(dp1987
g72
(dp1988
g92
g93
ssg81
g1982
sg74
(lp1989
S'uuid'
p1990
asbag67
(g88
g69
NtRp1991
(dp1992
g72
(dp1993
g99
g100
ssg81
g1982
sg74
(lp1994
S':'
asbag67
(g88
g69
NtRp1995
(dp1996
g72
(dp1997
sg81
g1982
sg74
(lp1998
g67
(g68
g69
NtRp1999
(dp2000
g72
(dp2001
g80
I5
ssg81
g1995
sg74
(lp2002
S'Music_Repo/127.0.0.1.2011-09-05.20-37-01.2753f4c7-400e-4c94-a861-bb155fd8e362'
p2003
asbasbasbag67
(g83
g69
NtRp2004
(dp2005
g72
(dp2006
sg81
g77
sg74
(lp2007
g67
(g88
g69
NtRp2008
(dp2009
g72
(dp2010
g92
g93
ssg81
g2004
sg74
(lp2011
S'vars'
p2012
asbag67
(g88
g69
NtRp2013
(dp2014
g72
(dp2015
g99
g100
ssg81
g2004
sg74
(lp2016
S':'
asbag67
(g88
g69
NtRp2017
(dp2018
g72
(dp2019
sg81
g2004
sg74
(lp2020
g67
(g68
g69
NtRp2021
(dp2022
g72
(dp2023
g80
I5
ssg81
g2017
sg74
(lp2024
g67
(g76
g69
NtRp2025
(dp2026
g72
(dp2027
g80
I4
ssg81
Nsg74
(lp2028
sbasbasbasbag67
(g83
g69
NtRp2029
(dp2030
g72
(dp2031
sg81
g77
sg74
(lp2032
g67
(g88
g69
NtRp2033
(dp2034
g72
(dp2035
g92
g93
ssg81
g2029
sg74
(lp2036
S'wsgi'
p2037
asbag67
(g88
g69
NtRp2038
(dp2039
g72
(dp2040
g99
g100
ssg81
g2029
sg74
(lp2041
S':'
asbag67
(g88
g69
NtRp2042
(dp2043
g72
(dp2044
sg81
g2029
sg74
(lp2045
g67
(g68
g69
NtRp2046
(dp2047
g72
(dp2048
g80
I5
ssg81
g2042
sg74
(lp2049
g67
(g76
g69
NtRp2050
(dp2051
g72
(dp2052
g80
I4
ssg81
Nsg74
(lp2053
g67
(g83
g69
NtRp2054
(dp2055
g72
(dp2056
sg81
g2050
sg74
(lp2057
g67
(g88
g69
NtRp2058
(dp2059
g72
(dp2060
g92
g93
ssg81
g2054
sg74
(lp2061
S'environ'
p2062
asbag67
(g88
g69
NtRp2063
(dp2064
g72
(dp2065
g99
g100
ssg81
g2054
sg74
(lp2066
S':'
asbag67
(g88
g69
NtRp2067
(dp2068
g72
(dp2069
sg81
g2054
sg74
(lp2070
g67
(g68
g69
NtRp2071
(dp2072
g72
(dp2073
g80
I4
ssg81
g2067
sg74
(lp2074
g67
(g76
g69
NtRp2075
(dp2076
g72
(dp2077
g80
I3
ssg81
Nsg74
(lp2078
g67
(g83
g69
NtRp2079
(dp2080
g72
(dp2081
sg81
g2075
sg74
(lp2082
g67
(g88
g69
NtRp2083
(dp2084
g72
(dp2085
g92
g93
ssg81
g2079
sg74
(lp2086
S'HTTP_ACCEPT'
p2087
asbag67
(g88
g69
NtRp2088
(dp2089
g72
(dp2090
g99
g100
ssg81
g2079
sg74
(lp2091
S':'
asbag67
(g88
g69
NtRp2092
(dp2093
g72
(dp2094
sg81
g2079
sg74
(lp2095
g67
(g68
g69
NtRp2096
(dp2097
g72
(dp2098
g80
I3
ssg81
g2092
sg74
(lp2099
g1013
asbasbasbag67
(g83
g69
NtRp2100
(dp2101
g72
(dp2102
sg81
g2075
sg74
(lp2103
g67
(g88
g69
NtRp2104
(dp2105
g72
(dp2106
g92
g93
ssg81
g2100
sg74
(lp2107
S'HTTP_ACCEPT_CHARSET'
p2108
asbag67
(g88
g69
NtRp2109
(dp2110
g72
(dp2111
g99
g100
ssg81
g2100
sg74
(lp2112
S':'
asbag67
(g88
g69
NtRp2113
(dp2114
g72
(dp2115
sg81
g2100
sg74
(lp2116
g67
(g68
g69
NtRp2117
(dp2118
g72
(dp2119
g80
I3
ssg81
g2113
sg74
(lp2120
g1035
asbasbasbag67
(g83
g69
NtRp2121
(dp2122
g72
(dp2123
sg81
g2075
sg74
(lp2124
g67
(g88
g69
NtRp2125
(dp2126
g72
(dp2127
g92
g93
ssg81
g2121
sg74
(lp2128
S'HTTP_ACCEPT_ENCODING'
p2129
asbag67
(g88
g69
NtRp2130
(dp2131
g72
(dp2132
g99
g100
ssg81
g2121
sg74
(lp2133
S':'
asbag67
(g88
g69
NtRp2134
(dp2135
g72
(dp2136
sg81
g2121
sg74
(lp2137
g67
(g68
g69
NtRp2138
(dp2139
g72
(dp2140
g80
I3
ssg81
g2134
sg74
(lp2141
g1057
asbasbasbag67
(g83
g69
NtRp2142
(dp2143
g72
(dp2144
sg81
g2075
sg74
(lp2145
g67
(g88
g69
NtRp2146
(dp2147
g72
(dp2148
g92
g93
ssg81
g2142
sg74
(lp2149
S'HTTP_ACCEPT_LANGUAGE'
p2150
asbag67
(g88
g69
NtRp2151
(dp2152
g72
(dp2153
g99
g100
ssg81
g2142
sg74
(lp2154
S':'
asbag67
(g88
g69
NtRp2155
(dp2156
g72
(dp2157
sg81
g2142
sg74
(lp2158
g67
(g68
g69
NtRp2159
(dp2160
g72
(dp2161
g80
I3
ssg81
g2155
sg74
(lp2162
g1079
asbasbasbag67
(g83
g69
NtRp2163
(dp2164
g72
(dp2165
sg81
g2075
sg74
(lp2166
g67
(g88
g69
NtRp2167
(dp2168
g72
(dp2169
g92
g93
ssg81
g2163
sg74
(lp2170
S'HTTP_CACHE_CONTROL'
p2171
asbag67
(g88
g69
NtRp2172
(dp2173
g72
(dp2174
g99
g100
ssg81
g2163
sg74
(lp2175
S':'
asbag67
(g88
g69
NtRp2176
(dp2177
g72
(dp2178
sg81
g2163
sg74
(lp2179
g67
(g68
g69
NtRp2180
(dp2181
g72
(dp2182
g80
I3
ssg81
g2176
sg74
(lp2183
g1101
asbasbasbag67
(g83
g69
NtRp2184
(dp2185
g72
(dp2186
sg81
g2075
sg74
(lp2187
g67
(g88
g69
NtRp2188
(dp2189
g72
(dp2190
g92
g93
ssg81
g2184
sg74
(lp2191
S'HTTP_CONNECTION'
p2192
asbag67
(g88
g69
NtRp2193
(dp2194
g72
(dp2195
g99
g100
ssg81
g2184
sg74
(lp2196
S':'
asbag67
(g88
g69
NtRp2197
(dp2198
g72
(dp2199
sg81
g2184
sg74
(lp2200
g67
(g68
g69
NtRp2201
(dp2202
g72
(dp2203
g80
I3
ssg81
g2197
sg74
(lp2204
g1123
asbasbasbag67
(g83
g69
NtRp2205
(dp2206
g72
(dp2207
sg81
g2075
sg74
(lp2208
g67
(g88
g69
NtRp2209
(dp2210
g72
(dp2211
g92
g93
ssg81
g2205
sg74
(lp2212
S'HTTP_COOKIE'
p2213
asbag67
(g88
g69
NtRp2214
(dp2215
g72
(dp2216
g99
g100
ssg81
g2205
sg74
(lp2217
S':'
asbag67
(g88
g69
NtRp2218
(dp2219
g72
(dp2220
sg81
g2205
sg74
(lp2221
g67
(g68
g69
NtRp2222
(dp2223
g72
(dp2224
g80
I3
ssg81
g2218
sg74
(lp2225
g1145
asbasbasbag67
(g83
g69
NtRp2226
(dp2227
g72
(dp2228
sg81
g2075
sg74
(lp2229
g67
(g88
g69
NtRp2230
(dp2231
g72
(dp2232
g92
g93
ssg81
g2226
sg74
(lp2233
S'HTTP_HOST'
p2234
asbag67
(g88
g69
NtRp2235
(dp2236
g72
(dp2237
g99
g100
ssg81
g2226
sg74
(lp2238
S':'
asbag67
(g88
g69
NtRp2239
(dp2240
g72
(dp2241
sg81
g2226
sg74
(lp2242
g67
(g68
g69
NtRp2243
(dp2244
g72
(dp2245
g80
I3
ssg81
g2239
sg74
(lp2246
g1167
asbasbasbag67
(g83
g69
NtRp2247
(dp2248
g72
(dp2249
sg81
g2075
sg74
(lp2250
g67
(g88
g69
NtRp2251
(dp2252
g72
(dp2253
g92
g93
ssg81
g2247
sg74
(lp2254
S'HTTP_KEEP_ALIVE'
p2255
asbag67
(g88
g69
NtRp2256
(dp2257
g72
(dp2258
g99
g100
ssg81
g2247
sg74
(lp2259
S':'
asbag67
(g88
g69
NtRp2260
(dp2261
g72
(dp2262
sg81
g2247
sg74
(lp2263
g67
(g68
g69
NtRp2264
(dp2265
g72
(dp2266
g80
I3
ssg81
g2260
sg74
(lp2267
g1189
asbasbasbag67
(g83
g69
NtRp2268
(dp2269
g72
(dp2270
sg81
g2075
sg74
(lp2271
g67
(g88
g69
NtRp2272
(dp2273
g72
(dp2274
g92
g93
ssg81
g2268
sg74
(lp2275
S'HTTP_REFERER'
p2276
asbag67
(g88
g69
NtRp2277
(dp2278
g72
(dp2279
g99
g100
ssg81
g2268
sg74
(lp2280
S':'
asbag67
(g88
g69
NtRp2281
(dp2282
g72
(dp2283
sg81
g2268
sg74
(lp2284
g67
(g68
g69
NtRp2285
(dp2286
g72
(dp2287
g80
I3
ssg81
g2281
sg74
(lp2288
g1211
asbasbasbag67
(g83
g69
NtRp2289
(dp2290
g72
(dp2291
sg81
g2075
sg74
(lp2292
g67
(g88
g69
NtRp2293
(dp2294
g72
(dp2295
g92
g93
ssg81
g2289
sg74
(lp2296
S'HTTP_USER_AGENT'
p2297
asbag67
(g88
g69
NtRp2298
(dp2299
g72
(dp2300
g99
g100
ssg81
g2289
sg74
(lp2301
S':'
asbag67
(g88
g69
NtRp2302
(dp2303
g72
(dp2304
sg81
g2289
sg74
(lp2305
g67
(g68
g69
NtRp2306
(dp2307
g72
(dp2308
g80
I3
ssg81
g2302
sg74
(lp2309
g1233
asbasbasbag67
(g83
g69
NtRp2310
(dp2311
g72
(dp2312
sg81
g2075
sg74
(lp2313
g67
(g88
g69
NtRp2314
(dp2315
g72
(dp2316
g92
g93
ssg81
g2310
sg74
(lp2317
S'PATH_INFO'
p2318
asbag67
(g88
g69
NtRp2319
(dp2320
g72
(dp2321
g99
g100
ssg81
g2310
sg74
(lp2322
S':'
asbag67
(g88
g69
NtRp2323
(dp2324
g72
(dp2325
sg81
g2310
sg74
(lp2326
g67
(g68
g69
NtRp2327
(dp2328
g72
(dp2329
g80
I3
ssg81
g2323
sg74
(lp2330
g1276
asbasbasbag67
(g83
g69
NtRp2331
(dp2332
g72
(dp2333
sg81
g2075
sg74
(lp2334
g67
(g88
g69
NtRp2335
(dp2336
g72
(dp2337
g92
g93
ssg81
g2331
sg74
(lp2338
S'QUERY_STRING'
p2339
asbag67
(g88
g69
NtRp2340
(dp2341
g72
(dp2342
g99
g100
ssg81
g2331
sg74
(lp2343
S':'
asbag67
(g88
g69
NtRp2344
(dp2345
g72
(dp2346
sg81
g2331
sg74
(lp2347
g67
(g68
g69
NtRp2348
(dp2349
g72
(dp2350
g80
I3
ssg81
g2344
sg74
(lp2351
S''
asbasbasbag67
(g83
g69
NtRp2352
(dp2353
g72
(dp2354
sg81
g2075
sg74
(lp2355
g67
(g88
g69
NtRp2356
(dp2357
g72
(dp2358
g92
g93
ssg81
g2352
sg74
(lp2359
S'REMOTE_ADDR'
p2360
asbag67
(g88
g69
NtRp2361
(dp2362
g72
(dp2363
g99
g100
ssg81
g2352
sg74
(lp2364
S':'
asbag67
(g88
g69
NtRp2365
(dp2366
g72
(dp2367
sg81
g2352
sg74
(lp2368
g67
(g68
g69
NtRp2369
(dp2370
g72
(dp2371
g80
I3
ssg81
g2365
sg74
(lp2372
g200
asbasbasbag67
(g83
g69
NtRp2373
(dp2374
g72
(dp2375
sg81
g2075
sg74
(lp2376
g67
(g88
g69
NtRp2377
(dp2378
g72
(dp2379
g92
g93
ssg81
g2373
sg74
(lp2380
S'REMOTE_PORT'
p2381
asbag67
(g88
g69
NtRp2382
(dp2383
g72
(dp2384
g99
g100
ssg81
g2373
sg74
(lp2385
S':'
asbag67
(g88
g69
NtRp2386
(dp2387
g72
(dp2388
sg81
g2373
sg74
(lp2389
g67
(g68
g69
NtRp2390
(dp2391
g72
(dp2392
g80
I3
ssg81
g2386
sg74
(lp2393
g1340
asbasbasbag67
(g83
g69
NtRp2394
(dp2395
g72
(dp2396
sg81
g2075
sg74
(lp2397
g67
(g88
g69
NtRp2398
(dp2399
g72
(dp2400
g92
g93
ssg81
g2394
sg74
(lp2401
S'REQUEST_METHOD'
p2402
asbag67
(g88
g69
NtRp2403
(dp2404
g72
(dp2405
g99
g100
ssg81
g2394
sg74
(lp2406
S':'
asbag67
(g88
g69
NtRp2407
(dp2408
g72
(dp2409
sg81
g2394
sg74
(lp2410
g67
(g68
g69
NtRp2411
(dp2412
g72
(dp2413
g80
I3
ssg81
g2407
sg74
(lp2414
g1362
asbasbasbag67
(g83
g69
NtRp2415
(dp2416
g72
(dp2417
sg81
g2075
sg74
(lp2418
g67
(g88
g69
NtRp2419
(dp2420
g72
(dp2421
g92
g93
ssg81
g2415
sg74
(lp2422
S'SCRIPT_NAME'
p2423
asbag67
(g88
g69
NtRp2424
(dp2425
g72
(dp2426
g99
g100
ssg81
g2415
sg74
(lp2427
S':'
asbag67
(g88
g69
NtRp2428
(dp2429
g72
(dp2430
sg81
g2415
sg74
(lp2431
g67
(g68
g69
NtRp2432
(dp2433
g72
(dp2434
g80
I3
ssg81
g2428
sg74
(lp2435
S''
asbasbasbag67
(g83
g69
NtRp2436
(dp2437
g72
(dp2438
sg81
g2075
sg74
(lp2439
g67
(g88
g69
NtRp2440
(dp2441
g72
(dp2442
g92
g93
ssg81
g2436
sg74
(lp2443
S'SERVER_NAME'
p2444
asbag67
(g88
g69
NtRp2445
(dp2446
g72
(dp2447
g99
g100
ssg81
g2436
sg74
(lp2448
S':'
asbag67
(g88
g69
NtRp2449
(dp2450
g72
(dp2451
sg81
g2436
sg74
(lp2452
g67
(g68
g69
NtRp2453
(dp2454
g72
(dp2455
g80
I3
ssg81
g2449
sg74
(lp2456
g1405
asbasbasbag67
(g83
g69
NtRp2457
(dp2458
g72
(dp2459
sg81
g2075
sg74
(lp2460
g67
(g88
g69
NtRp2461
(dp2462
g72
(dp2463
g92
g93
ssg81
g2457
sg74
(lp2464
S'SERVER_PORT'
p2465
asbag67
(g88
g69
NtRp2466
(dp2467
g72
(dp2468
g99
g100
ssg81
g2457
sg74
(lp2469
S':'
asbag67
(g88
g69
NtRp2470
(dp2471
g72
(dp2472
sg81
g2457
sg74
(lp2473
g67
(g68
g69
NtRp2474
(dp2475
g72
(dp2476
g80
I3
ssg81
g2470
sg74
(lp2477
g1427
asbasbasbag67
(g83
g69
NtRp2478
(dp2479
g72
(dp2480
sg81
g2075
sg74
(lp2481
g67
(g88
g69
NtRp2482
(dp2483
g72
(dp2484
g92
g93
ssg81
g2478
sg74
(lp2485
S'SERVER_PROTOCOL'
p2486
asbag67
(g88
g69
NtRp2487
(dp2488
g72
(dp2489
g99
g100
ssg81
g2478
sg74
(lp2490
S':'
asbag67
(g88
g69
NtRp2491
(dp2492
g72
(dp2493
sg81
g2478
sg74
(lp2494
g67
(g68
g69
NtRp2495
(dp2496
g72
(dp2497
g80
I3
ssg81
g2491
sg74
(lp2498
g1449
asbasbasbag67
(g83
g69
NtRp2499
(dp2500
g72
(dp2501
sg81
g2075
sg74
(lp2502
g67
(g88
g69
NtRp2503
(dp2504
g72
(dp2505
g92
g93
ssg81
g2499
sg74
(lp2506
S'SERVER_SOFTWARE'
p2507
asbag67
(g88
g69
NtRp2508
(dp2509
g72
(dp2510
g99
g100
ssg81
g2499
sg74
(lp2511
S':'
asbag67
(g88
g69
NtRp2512
(dp2513
g72
(dp2514
sg81
g2499
sg74
(lp2515
g67
(g68
g69
NtRp2516
(dp2517
g72
(dp2518
g80
I3
ssg81
g2512
sg74
(lp2519
g1471
asbasbasbag67
(g83
g69
NtRp2520
(dp2521
g72
(dp2522
sg81
g2075
sg74
(lp2523
g67
(g88
g69
NtRp2524
(dp2525
g72
(dp2526
g92
g93
ssg81
g2520
sg74
(lp2527
S'wsgi.errors'
p2528
asbag67
(g88
g69
NtRp2529
(dp2530
g72
(dp2531
g99
g100
ssg81
g2520
sg74
(lp2532
S':'
asbag67
(g88
g69
NtRp2533
(dp2534
g72
(dp2535
sg81
g2520
sg74
(lp2536
g67
(g68
g69
NtRp2537
(dp2538
g72
(dp2539
g80
I3
ssg81
g2533
sg74
(lp2540
S"<open file '<stderr>', mode 'w' at 0xb77850d0>"
p2541
asbasbasbag67
(g83
g69
NtRp2542
(dp2543
g72
(dp2544
sg81
g2075
sg74
(lp2545
g67
(g88
g69
NtRp2546
(dp2547
g72
(dp2548
g92
g93
ssg81
g2542
sg74
(lp2549
S'wsgi.file_wrapper'
p2550
asbag67
(g88
g69
NtRp2551
(dp2552
g72
(dp2553
g99
g100
ssg81
g2542
sg74
(lp2554
S':'
asbag67
(g88
g69
NtRp2555
(dp2556
g72
(dp2557
sg81
g2542
sg74
(lp2558
g67
(g68
g69
NtRp2559
(dp2560
g72
(dp2561
g80
I3
ssg81
g2555
sg74
(lp2562
S'<class gluon.rocket.FileWrapper at 0x883408c>'
p2563
asbasbasbag67
(g83
g69
NtRp2564
(dp2565
g72
(dp2566
sg81
g2075
sg74
(lp2567
g67
(g88
g69
NtRp2568
(dp2569
g72
(dp2570
g92
g93
ssg81
g2564
sg74
(lp2571
S'wsgi.input'
p2572
asbag67
(g88
g69
NtRp2573
(dp2574
g72
(dp2575
g99
g100
ssg81
g2564
sg74
(lp2576
S':'
asbag67
(g88
g69
NtRp2577
(dp2578
g72
(dp2579
sg81
g2564
sg74
(lp2580
g67
(g68
g69
NtRp2581
(dp2582
g72
(dp2583
g80
I3
ssg81
g2577
sg74
(lp2584
S'<cStringIO.StringO object at 0x8e7bae0>'
p2585
asbasbasbag67
(g83
g69
NtRp2586
(dp2587
g72
(dp2588
sg81
g2075
sg74
(lp2589
g67
(g88
g69
NtRp2590
(dp2591
g72
(dp2592
g92
g93
ssg81
g2586
sg74
(lp2593
S'wsgi.multiprocess'
p2594
asbag67
(g88
g69
NtRp2595
(dp2596
g72
(dp2597
g99
g100
ssg81
g2586
sg74
(lp2598
S':'
asbag67
(g88
g69
NtRp2599
(dp2600
g72
(dp2601
sg81
g2586
sg74
(lp2602
g67
(g68
g69
NtRp2603
(dp2604
g72
(dp2605
g80
I3
ssg81
g2599
sg74
(lp2606
g110
asbasbasbag67
(g83
g69
NtRp2607
(dp2608
g72
(dp2609
sg81
g2075
sg74
(lp2610
g67
(g88
g69
NtRp2611
(dp2612
g72
(dp2613
g92
g93
ssg81
g2607
sg74
(lp2614
S'wsgi.multithread'
p2615
asbag67
(g88
g69
NtRp2616
(dp2617
g72
(dp2618
g99
g100
ssg81
g2607
sg74
(lp2619
S':'
asbag67
(g88
g69
NtRp2620
(dp2621
g72
(dp2622
sg81
g2607
sg74
(lp2623
g67
(g68
g69
NtRp2624
(dp2625
g72
(dp2626
g80
I3
ssg81
g2620
sg74
(lp2627
g1645
asbasbasbag67
(g83
g69
NtRp2628
(dp2629
g72
(dp2630
sg81
g2075
sg74
(lp2631
g67
(g88
g69
NtRp2632
(dp2633
g72
(dp2634
g92
g93
ssg81
g2628
sg74
(lp2635
S'wsgi.run_once'
p2636
asbag67
(g88
g69
NtRp2637
(dp2638
g72
(dp2639
g99
g100
ssg81
g2628
sg74
(lp2640
S':'
asbag67
(g88
g69
NtRp2641
(dp2642
g72
(dp2643
sg81
g2628
sg74
(lp2644
g67
(g68
g69
NtRp2645
(dp2646
g72
(dp2647
g80
I3
ssg81
g2641
sg74
(lp2648
g110
asbasbasbag67
(g83
g69
NtRp2649
(dp2650
g72
(dp2651
sg81
g2075
sg74
(lp2652
g67
(g88
g69
NtRp2653
(dp2654
g72
(dp2655
g92
g93
ssg81
g2649
sg74
(lp2656
S'wsgi.url_scheme'
p2657
asbag67
(g88
g69
NtRp2658
(dp2659
g72
(dp2660
g99
g100
ssg81
g2649
sg74
(lp2661
S':'
asbag67
(g88
g69
NtRp2662
(dp2663
g72
(dp2664
sg81
g2649
sg74
(lp2665
g67
(g68
g69
NtRp2666
(dp2667
g72
(dp2668
g80
I3
ssg81
g2662
sg74
(lp2669
g1688
asbasbasbag67
(g83
g69
NtRp2670
(dp2671
g72
(dp2672
sg81
g2075
sg74
(lp2673
g67
(g88
g69
NtRp2674
(dp2675
g72
(dp2676
g92
g93
ssg81
g2670
sg74
(lp2677
S'wsgi.version'
p2678
asbag67
(g88
g69
NtRp2679
(dp2680
g72
(dp2681
g99
g100
ssg81
g2670
sg74
(lp2682
S':'
asbag67
(g88
g69
NtRp2683
(dp2684
g72
(dp2685
sg81
g2670
sg74
(lp2686
g67
(g68
g69
NtRp2687
(dp2688
g72
(dp2689
g80
I3
ssg81
g2683
sg74
(lp2690
S'1'
asbasbasbasbasbasbasbasbasbasbasbasbasbsS'frames'
p2691
(lp2692
(dp2693
S'file'
p2694
S'/home/vsvah/Desktop/Coursework/Sem3/SSAD/web2py/gluon/restricted.py'
p2695
sS'dump'
p2696
(dp2697
S'code'
p2698
S'\'# -*- coding: utf-8 -*-\\n# this file is released ...d :D")\\n\\t\\n\\nresponse._vars=response._caller(index)\\n\''
p2699
sS'layer'
p2700
S"'/home/vsvah/Desktop/Coursework/Sem3/SSAD/web2py/applications/Music_Repo/controllers/default.py'"
p2701
sS'global compile2'
p2702
S'<function compile2>'
p2703
sS'ccode'
p2704
S'undefined'
p2705
ssS'lnum'
p2706
I191
sS'lines'
p2707
(dp2708
I192
S'        exec ccode in environment'
p2709
sI193
S'    except HTTP:'
p2710
sI194
S'        raise'
p2711
sI195
S'    except Exception, error:'
p2712
sI186
S"    environment['__file__'] = layer"
p2713
sI187
S'    try:'
p2714
sI188
S'        if type(code) == types.CodeType:'
p2715
sI189
S'            ccode = code'
p2716
sI190
S'        else:'
p2717
sI191
S'            ccode = compile2(code,layer)'
p2718
ssS'call'
p2719
S'(code=\'# -*- coding: utf-8 -*-\\n# this file is released ...d :D")\\n\\t\\n\\nresponse._vars=response._caller(index)\\n\', environment={\'A\': <class \'gluon.html.A\'>, \'Auth\': <class \'gluon.tools.Auth\'>, \'B\': <class \'gluon.html.B\'>, \'BEAUTIFY\': <class \'gluon.html.BEAUTIFY\'>, \'BODY\': <class \'gluon.html.BODY\'>, \'BR\': <class \'gluon.html.BR\'>, \'BUTTON\': <class \'gluon.html.BUTTON\'>, \'CAT\': <class \'gluon.html.CAT\'>, \'CENTER\': <class \'gluon.html.CENTER\'>, \'CLEANUP\': <class \'gluon.validators.CLEANUP\'>, ...}, layer=\'/home/vsvah/Desktop/Coursework/Sem3/SSAD/web2py/applications/Music_Repo/controllers/default.py\')'
p2720
sS'func'
p2721
S'restricted'
p2722
sa(dp2723
g2694
S'/home/vsvah/Desktop/Coursework/Sem3/SSAD/web2py/gluon/restricted.py'
p2724
sg2696
(dp2725
S'builtincompile'
p2726
S'<built-in function compile>'
p2727
sS'code'
p2728
S'\'# -*- coding: utf-8 -*-\\n# this file is released ...d :D")\\n\\t\\n\\nresponse._vars=response._caller(index)\\n\''
p2729
sS'code.rstrip'
p2730
S'<built-in method rstrip of str object>'
p2731
sS').replace'
p2732
g2705
sS'layer'
p2733
S"'/home/vsvah/Desktop/Coursework/Sem3/SSAD/web2py/applications/Music_Repo/controllers/default.py'"
p2734
ssg2706
I178
sg2707
(dp2735
I173
S''
sI174
S'def compile2(code,layer):'
p2736
sI175
S'    """'
p2737
sI176
S"    The +'\\n' is necessary else compile fails when code ends in a comment."
p2738
sI177
S'    """'
p2739
sI178
S"    return compile(code.rstrip().replace('\\r\\n','\\n')+'\\n', layer, 'exec')"
p2740
sI179
S''
sI180
S"def restricted(code, environment={}, layer='Unknown'):"
p2741
sI181
S'    """'
p2742
sI182
S'    runs code in environment and returns the output. if an exception occurs'
p2743
ssg2719
S'(code=\'# -*- coding: utf-8 -*-\\n# this file is released ...d :D")\\n\\t\\n\\nresponse._vars=response._caller(index)\\n\', layer=\'/home/vsvah/Desktop/Coursework/Sem3/SSAD/web2py/applications/Music_Repo/controllers/default.py\')'
p2744
sg2721
S'compile2'
p2745
sasS'pyver'
p2746
S'Python 2.6.5: /usr/bin/python'
p2747
sS'session'
p2748
g67
(g68
g69
NtRp2749
(dp2750
g72
(dp2751
sg74
(lp2752
g67
(g76
g69
NtRp2753
(dp2754
g72
(dp2755
g80
I5
ssg81
Nsg74
(lp2756
g67
(g83
g69
NtRp2757
(dp2758
g72
(dp2759
sg81
g2753
sg74
(lp2760
g67
(g88
g69
NtRp2761
(dp2762
g72
(dp2763
g92
g93
ssg81
g2757
sg74
(lp2764
S'k'
asbag67
(g88
g69
NtRp2765
(dp2766
g72
(dp2767
g99
g100
ssg81
g2757
sg74
(lp2768
S':'
asbag67
(g88
g69
NtRp2769
(dp2770
g72
(dp2771
sg81
g2757
sg74
(lp2772
g67
(g68
g69
NtRp2773
(dp2774
g72
(dp2775
g80
I5
ssg81
g2769
sg74
(lp2776
S'truc'
p2777
asbasbasbasbasbsS'etype'
p2778
S"<type 'exceptions.SyntaxError'>"
p2779
sS'date'
p2780
S'Mon Sep  5 20:37:01 2011'
p2781
sS'response'
p2782
g67
(g68
g69
NtRp2783
(dp2784
g72
(dp2785
sg74
(lp2786
g67
(g76
g69
NtRp2787
(dp2788
g72
(dp2789
g80
I5
ssg81
Nsg74
(lp2790
g67
(g83
g69
NtRp2791
(dp2792
g72
(dp2793
sg81
g2787
sg74
(lp2794
g67
(g88
g69
NtRp2795
(dp2796
g72
(dp2797
g92
g93
ssg81
g2791
sg74
(lp2798
g165
asbag67
(g88
g69
NtRp2799
(dp2800
g72
(dp2801
g99
g100
ssg81
g2791
sg74
(lp2802
S':'
asbag67
(g88
g69
NtRp2803
(dp2804
g72
(dp2805
sg81
g2791
sg74
(lp2806
g67
(g68
g69
NtRp2807
(dp2808
g72
(dp2809
g80
I5
ssg81
g2803
sg74
(lp2810
S'<cStringIO.StringO object at 0x8c4a460>'
p2811
asbasbasbag67
(g83
g69
NtRp2812
(dp2813
g72
(dp2814
sg81
g2787
sg74
(lp2815
g67
(g88
g69
NtRp2816
(dp2817
g72
(dp2818
g92
g93
ssg81
g2812
sg74
(lp2819
g231
asbag67
(g88
g69
NtRp2820
(dp2821
g72
(dp2822
g99
g100
ssg81
g2812
sg74
(lp2823
S':'
asbag67
(g88
g69
NtRp2824
(dp2825
g72
(dp2826
sg81
g2812
sg74
(lp2827
g67
(g68
g69
NtRp2828
(dp2829
g72
(dp2830
g80
I5
ssg81
g2824
sg74
(lp2831
g67
(g76
g69
NtRp2832
(dp2833
g72
(dp2834
g80
I4
ssg81
Nsg74
(lp2835
g67
(g83
g69
NtRp2836
(dp2837
g72
(dp2838
sg81
g2832
sg74
(lp2839
g67
(g88
g69
NtRp2840
(dp2841
g72
(dp2842
g92
g93
ssg81
g2836
sg74
(lp2843
S'session_id_music_repo'
p2844
asbag67
(g88
g69
NtRp2845
(dp2846
g72
(dp2847
g99
g100
ssg81
g2836
sg74
(lp2848
S':'
asbag67
(g88
g69
NtRp2849
(dp2850
g72
(dp2851
sg81
g2836
sg74
(lp2852
g67
(g68
g69
NtRp2853
(dp2854
g72
(dp2855
g80
I4
ssg81
g2849
sg74
(lp2856
g67
(g76
g69
NtRp2857
(dp2858
g72
(dp2859
g80
I3
ssg81
Nsg74
(lp2860
g67
(g83
g69
NtRp2861
(dp2862
g72
(dp2863
sg81
g2857
sg74
(lp2864
g67
(g88
g69
NtRp2865
(dp2866
g72
(dp2867
g92
g93
ssg81
g2861
sg74
(lp2868
g281
asbag67
(g88
g69
NtRp2869
(dp2870
g72
(dp2871
g99
g100
ssg81
g2861
sg74
(lp2872
S':'
asbag67
(g88
g69
NtRp2873
(dp2874
g72
(dp2875
sg81
g2861
sg74
(lp2876
g67
(g68
g69
NtRp2877
(dp2878
g72
(dp2879
g80
I3
ssg81
g2873
sg74
(lp2880
S''
asbasbasbag67
(g83
g69
NtRp2881
(dp2882
g72
(dp2883
sg81
g2857
sg74
(lp2884
g67
(g88
g69
NtRp2885
(dp2886
g72
(dp2887
g92
g93
ssg81
g2881
sg74
(lp2888
g302
asbag67
(g88
g69
NtRp2889
(dp2890
g72
(dp2891
g99
g100
ssg81
g2881
sg74
(lp2892
S':'
asbag67
(g88
g69
NtRp2893
(dp2894
g72
(dp2895
sg81
g2881
sg74
(lp2896
g67
(g68
g69
NtRp2897
(dp2898
g72
(dp2899
g80
I3
ssg81
g2893
sg74
(lp2900
S''
asbasbasbag67
(g83
g69
NtRp2901
(dp2902
g72
(dp2903
sg81
g2857
sg74
(lp2904
g67
(g88
g69
NtRp2905
(dp2906
g72
(dp2907
g92
g93
ssg81
g2901
sg74
(lp2908
g323
asbag67
(g88
g69
NtRp2909
(dp2910
g72
(dp2911
g99
g100
ssg81
g2901
sg74
(lp2912
S':'
asbag67
(g88
g69
NtRp2913
(dp2914
g72
(dp2915
sg81
g2901
sg74
(lp2916
g67
(g68
g69
NtRp2917
(dp2918
g72
(dp2919
g80
I3
ssg81
g2913
sg74
(lp2920
S''
asbasbasbag67
(g83
g69
NtRp2921
(dp2922
g72
(dp2923
sg81
g2857
sg74
(lp2924
g67
(g88
g69
NtRp2925
(dp2926
g72
(dp2927
g92
g93
ssg81
g2921
sg74
(lp2928
g344
asbag67
(g88
g69
NtRp2929
(dp2930
g72
(dp2931
g99
g100
ssg81
g2921
sg74
(lp2932
S':'
asbag67
(g88
g69
NtRp2933
(dp2934
g72
(dp2935
sg81
g2921
sg74
(lp2936
g67
(g68
g69
NtRp2937
(dp2938
g72
(dp2939
g80
I3
ssg81
g2933
sg74
(lp2940
S''
asbasbasbag67
(g83
g69
NtRp2941
(dp2942
g72
(dp2943
sg81
g2857
sg74
(lp2944
g67
(g88
g69
NtRp2945
(dp2946
g72
(dp2947
g92
g93
ssg81
g2941
sg74
(lp2948
g365
asbag67
(g88
g69
NtRp2949
(dp2950
g72
(dp2951
g99
g100
ssg81
g2941
sg74
(lp2952
S':'
asbag67
(g88
g69
NtRp2953
(dp2954
g72
(dp2955
sg81
g2941
sg74
(lp2956
g67
(g68
g69
NtRp2957
(dp2958
g72
(dp2959
g80
I3
ssg81
g2953
sg74
(lp2960
S''
asbasbasbag67
(g83
g69
NtRp2961
(dp2962
g72
(dp2963
sg81
g2857
sg74
(lp2964
g67
(g88
g69
NtRp2965
(dp2966
g72
(dp2967
g92
g93
ssg81
g2961
sg74
(lp2968
g386
asbag67
(g88
g69
NtRp2969
(dp2970
g72
(dp2971
g99
g100
ssg81
g2961
sg74
(lp2972
S':'
asbag67
(g88
g69
NtRp2973
(dp2974
g72
(dp2975
sg81
g2961
sg74
(lp2976
g67
(g68
g69
NtRp2977
(dp2978
g72
(dp2979
g80
I3
ssg81
g2973
sg74
(lp2980
S'/'
asbasbasbag67
(g83
g69
NtRp2981
(dp2982
g72
(dp2983
sg81
g2857
sg74
(lp2984
g67
(g88
g69
NtRp2985
(dp2986
g72
(dp2987
g92
g93
ssg81
g2981
sg74
(lp2988
g407
asbag67
(g88
g69
NtRp2989
(dp2990
g72
(dp2991
g99
g100
ssg81
g2981
sg74
(lp2992
S':'
asbag67
(g88
g69
NtRp2993
(dp2994
g72
(dp2995
sg81
g2981
sg74
(lp2996
g67
(g68
g69
NtRp2997
(dp2998
g72
(dp2999
g80
I3
ssg81
g2993
sg74
(lp3000
S''
asbasbasbag67
(g83
g69
NtRp3001
(dp3002
g72
(dp3003
sg81
g2857
sg74
(lp3004
g67
(g88
g69
NtRp3005
(dp3006
g72
(dp3007
g92
g93
ssg81
g3001
sg74
(lp3008
g428
asbag67
(g88
g69
NtRp3009
(dp3010
g72
(dp3011
g99
g100
ssg81
g3001
sg74
(lp3012
S':'
asbag67
(g88
g69
NtRp3013
(dp3014
g72
(dp3015
sg81
g3001
sg74
(lp3016
g67
(g68
g69
NtRp3017
(dp3018
g72
(dp3019
g80
I3
ssg81
g3013
sg74
(lp3020
S''
asbasbasbasbasbasbasbasbasbasbasbag67
(g83
g69
NtRp3021
(dp3022
g72
(dp3023
sg81
g2787
sg74
(lp3024
g67
(g88
g69
NtRp3025
(dp3026
g72
(dp3027
g92
g93
ssg81
g3021
sg74
(lp3028
S'files'
p3029
asbag67
(g88
g69
NtRp3030
(dp3031
g72
(dp3032
g99
g100
ssg81
g3021
sg74
(lp3033
S':'
asbag67
(g88
g69
NtRp3034
(dp3035
g72
(dp3036
sg81
g3021
sg74
(lp3037
g67
(g68
g69
NtRp3038
(dp3039
g72
(dp3040
g80
I5
ssg81
g3034
sg74
(lp3041
g67
(g76
g69
NtRp3042
(dp3043
g72
(dp3044
g80
I4
ssg81
Nsg74
(lp3045
sbasbasbasbag67
(g83
g69
NtRp3046
(dp3047
g72
(dp3048
sg81
g2787
sg74
(lp3049
g67
(g88
g69
NtRp3050
(dp3051
g72
(dp3052
g92
g93
ssg81
g3046
sg74
(lp3053
S'flash'
p3054
asbag67
(g88
g69
NtRp3055
(dp3056
g72
(dp3057
g99
g100
ssg81
g3046
sg74
(lp3058
S':'
asbag67
(g88
g69
NtRp3059
(dp3060
g72
(dp3061
sg81
g3046
sg74
(lp3062
g67
(g68
g69
NtRp3063
(dp3064
g72
(dp3065
g80
I5
ssg81
g3059
sg74
(lp3066
S''
asbasbasbag67
(g83
g69
NtRp3067
(dp3068
g72
(dp3069
sg81
g2787
sg74
(lp3070
g67
(g88
g69
NtRp3071
(dp3072
g72
(dp3073
g92
g93
ssg81
g3067
sg74
(lp3074
S'generic_patterns'
p3075
asbag67
(g88
g69
NtRp3076
(dp3077
g72
(dp3078
g99
g100
ssg81
g3067
sg74
(lp3079
S':'
asbag67
(g88
g69
NtRp3080
(dp3081
g72
(dp3082
sg81
g3067
sg74
(lp3083
g67
(g68
g69
NtRp3084
(dp3085
g72
(dp3086
g80
I5
ssg81
g3080
sg74
(lp3087
g67
(g76
g69
NtRp3088
(dp3089
g72
(dp3090
g80
I4
ssg81
Nsg74
(lp3091
g67
(g83
g69
NtRp3092
(dp3093
g72
(dp3094
sg81
g3088
sg74
(lp3095
g67
(g88
g69
NtRp3096
(dp3097
g72
(dp3098
sg81
g3092
sg74
(lp3099
g67
(g68
g69
NtRp3100
(dp3101
g72
(dp3102
g80
I4
ssg81
g3096
sg74
(lp3103
S'*'
asbasbasbasbasbasbasbag67
(g83
g69
NtRp3104
(dp3105
g72
(dp3106
sg81
g2787
sg74
(lp3107
g67
(g88
g69
NtRp3108
(dp3109
g72
(dp3110
g92
g93
ssg81
g3104
sg74
(lp3111
S'headers'
p3112
asbag67
(g88
g69
NtRp3113
(dp3114
g72
(dp3115
g99
g100
ssg81
g3104
sg74
(lp3116
S':'
asbag67
(g88
g69
NtRp3117
(dp3118
g72
(dp3119
sg81
g3104
sg74
(lp3120
g67
(g68
g69
NtRp3121
(dp3122
g72
(dp3123
g80
I5
ssg81
g3117
sg74
(lp3124
g67
(g76
g69
NtRp3125
(dp3126
g72
(dp3127
g80
I4
ssg81
Nsg74
(lp3128
g67
(g83
g69
NtRp3129
(dp3130
g72
(dp3131
sg81
g3125
sg74
(lp3132
g67
(g88
g69
NtRp3133
(dp3134
g72
(dp3135
g92
g93
ssg81
g3129
sg74
(lp3136
S'Cache-Control'
p3137
asbag67
(g88
g69
NtRp3138
(dp3139
g72
(dp3140
g99
g100
ssg81
g3129
sg74
(lp3141
S':'
asbag67
(g88
g69
NtRp3142
(dp3143
g72
(dp3144
sg81
g3129
sg74
(lp3145
g67
(g68
g69
NtRp3146
(dp3147
g72
(dp3148
g80
I4
ssg81
g3142
sg74
(lp3149
S'no-store, no-cache, must-revalidate, post-check=0, pre-check=0'
p3150
asbasbasbag67
(g83
g69
NtRp3151
(dp3152
g72
(dp3153
sg81
g3125
sg74
(lp3154
g67
(g88
g69
NtRp3155
(dp3156
g72
(dp3157
g92
g93
ssg81
g3151
sg74
(lp3158
S'Content-Type'
p3159
asbag67
(g88
g69
NtRp3160
(dp3161
g72
(dp3162
g99
g100
ssg81
g3151
sg74
(lp3163
S':'
asbag67
(g88
g69
NtRp3164
(dp3165
g72
(dp3166
sg81
g3151
sg74
(lp3167
g67
(g68
g69
NtRp3168
(dp3169
g72
(dp3170
g80
I4
ssg81
g3164
sg74
(lp3171
S'text/html; charset=utf-8'
p3172
asbasbasbag67
(g83
g69
NtRp3173
(dp3174
g72
(dp3175
sg81
g3125
sg74
(lp3176
g67
(g88
g69
NtRp3177
(dp3178
g72
(dp3179
g92
g93
ssg81
g3173
sg74
(lp3180
S'Expires'
p3181
asbag67
(g88
g69
NtRp3182
(dp3183
g72
(dp3184
g99
g100
ssg81
g3173
sg74
(lp3185
S':'
asbag67
(g88
g69
NtRp3186
(dp3187
g72
(dp3188
sg81
g3173
sg74
(lp3189
g67
(g68
g69
NtRp3190
(dp3191
g72
(dp3192
g80
I4
ssg81
g3186
sg74
(lp3193
S'Mon, 05 Sep 2011 15:07:01 GMT'
p3194
asbasbasbag67
(g83
g69
NtRp3195
(dp3196
g72
(dp3197
sg81
g3125
sg74
(lp3198
g67
(g88
g69
NtRp3199
(dp3200
g72
(dp3201
g92
g93
ssg81
g3195
sg74
(lp3202
S'Pragma'
p3203
asbag67
(g88
g69
NtRp3204
(dp3205
g72
(dp3206
g99
g100
ssg81
g3195
sg74
(lp3207
S':'
asbag67
(g88
g69
NtRp3208
(dp3209
g72
(dp3210
sg81
g3195
sg74
(lp3211
g67
(g68
g69
NtRp3212
(dp3213
g72
(dp3214
g80
I4
ssg81
g3208
sg74
(lp3215
S'no-cache'
p3216
asbasbasbag67
(g83
g69
NtRp3217
(dp3218
g72
(dp3219
sg81
g3125
sg74
(lp3220
g67
(g88
g69
NtRp3221
(dp3222
g72
(dp3223
g92
g93
ssg81
g3217
sg74
(lp3224
S'X-Powered-By'
p3225
asbag67
(g88
g69
NtRp3226
(dp3227
g72
(dp3228
g99
g100
ssg81
g3217
sg74
(lp3229
S':'
asbag67
(g88
g69
NtRp3230
(dp3231
g72
(dp3232
sg81
g3217
sg74
(lp3233
g67
(g68
g69
NtRp3234
(dp3235
g72
(dp3236
g80
I4
ssg81
g3230
sg74
(lp3237
S'web2py'
p3238
asbasbasbasbasbasbasbag67
(g83
g69
NtRp3239
(dp3240
g72
(dp3241
sg81
g2787
sg74
(lp3242
g67
(g88
g69
NtRp3243
(dp3244
g72
(dp3245
g92
g93
ssg81
g3239
sg74
(lp3246
S'menu'
p3247
asbag67
(g88
g69
NtRp3248
(dp3249
g72
(dp3250
g99
g100
ssg81
g3239
sg74
(lp3251
S':'
asbag67
(g88
g69
NtRp3252
(dp3253
g72
(dp3254
sg81
g3239
sg74
(lp3255
g67
(g68
g69
NtRp3256
(dp3257
g72
(dp3258
g80
I5
ssg81
g3252
sg74
(lp3259
g67
(g76
g69
NtRp3260
(dp3261
g72
(dp3262
g80
I4
ssg81
Nsg74
(lp3263
g67
(g83
g69
NtRp3264
(dp3265
g72
(dp3266
sg81
g3260
sg74
(lp3267
g67
(g88
g69
NtRp3268
(dp3269
g72
(dp3270
sg81
g3264
sg74
(lp3271
g67
(g68
g69
NtRp3272
(dp3273
g72
(dp3274
g80
I4
ssg81
g3268
sg74
(lp3275
g67
(g76
g69
NtRp3276
(dp3277
g72
(dp3278
g80
I3
ssg81
Nsg74
(lp3279
g67
(g83
g69
NtRp3280
(dp3281
g72
(dp3282
sg81
g3276
sg74
(lp3283
g67
(g88
g69
NtRp3284
(dp3285
g72
(dp3286
sg81
g3280
sg74
(lp3287
g67
(g68
g69
NtRp3288
(dp3289
g72
(dp3290
g80
I3
ssg81
g3284
sg74
(lp3291
cgluon.languages
lazyT_unpickle
p3292
(S's\x04\x00\x00\x00Home'
tRp3293
asbasbasbag67
(g83
g69
NtRp3294
(dp3295
g72
(dp3296
sg81
g3276
sg74
(lp3297
g67
(g88
g69
NtRp3298
(dp3299
g72
(dp3300
sg81
g3294
sg74
(lp3301
g67
(g68
g69
NtRp3302
(dp3303
g72
(dp3304
g80
I3
ssg81
g3298
sg74
(lp3305
g110
asbasbasbag67
(g83
g69
NtRp3306
(dp3307
g72
(dp3308
sg81
g3276
sg74
(lp3309
g67
(g88
g69
NtRp3310
(dp3311
g72
(dp3312
sg81
g3306
sg74
(lp3313
g67
(g68
g69
NtRp3314
(dp3315
g72
(dp3316
g80
I3
ssg81
g3310
sg74
(lp3317
S'/Music_Repo/default/index'
p3318
asbasbasbag67
(g83
g69
NtRp3319
(dp3320
g72
(dp3321
sg81
g3276
sg74
(lp3322
g67
(g88
g69
NtRp3323
(dp3324
g72
(dp3325
sg81
g3319
sg74
(lp3326
g67
(g68
g69
NtRp3327
(dp3328
g72
(dp3329
g80
I3
ssg81
g3323
sg74
(lp3330
g67
(g76
g69
NtRp3331
(dp3332
g72
(dp3333
g80
I2
ssg81
Nsg74
(lp3334
sbasbasbasbasbasbasbasbag67
(g83
g69
NtRp3335
(dp3336
g72
(dp3337
sg81
g3260
sg74
(lp3338
g67
(g88
g69
NtRp3339
(dp3340
g72
(dp3341
sg81
g3335
sg74
(lp3342
g67
(g68
g69
NtRp3343
(dp3344
g72
(dp3345
g80
I4
ssg81
g3339
sg74
(lp3346
g67
(g76
g69
NtRp3347
(dp3348
g72
(dp3349
g80
I3
ssg81
Nsg74
(lp3350
g67
(g83
g69
NtRp3351
(dp3352
g72
(dp3353
sg81
g3347
sg74
(lp3354
g67
(g88
g69
NtRp3355
(dp3356
g72
(dp3357
sg81
g3351
sg74
(lp3358
g67
(g68
g69
NtRp3359
(dp3360
g72
(dp3361
g80
I3
ssg81
g3355
sg74
(lp3362
g3292
(S's\x08\x00\x00\x00This App'
tRp3363
asbasbasbag67
(g83
g69
NtRp3364
(dp3365
g72
(dp3366
sg81
g3347
sg74
(lp3367
g67
(g88
g69
NtRp3368
(dp3369
g72
(dp3370
sg81
g3364
sg74
(lp3371
g67
(g68
g69
NtRp3372
(dp3373
g72
(dp3374
g80
I3
ssg81
g3368
sg74
(lp3375
g110
asbasbasbag67
(g83
g69
NtRp3376
(dp3377
g72
(dp3378
sg81
g3347
sg74
(lp3379
g67
(g88
g69
NtRp3380
(dp3381
g72
(dp3382
sg81
g3376
sg74
(lp3383
g67
(g68
g69
NtRp3384
(dp3385
g72
(dp3386
g80
I3
ssg81
g3380
sg74
(lp3387
S'/admin/default/design/Music_Repo'
p3388
asbasbasbag67
(g83
g69
NtRp3389
(dp3390
g72
(dp3391
sg81
g3347
sg74
(lp3392
g67
(g88
g69
NtRp3393
(dp3394
g72
(dp3395
sg81
g3389
sg74
(lp3396
g67
(g68
g69
NtRp3397
(dp3398
g72
(dp3399
g80
I3
ssg81
g3393
sg74
(lp3400
g67
(g76
g69
NtRp3401
(dp3402
g72
(dp3403
g80
I2
ssg81
Nsg74
(lp3404
g67
(g83
g69
NtRp3405
(dp3406
g72
(dp3407
sg81
g3401
sg74
(lp3408
g67
(g88
g69
NtRp3409
(dp3410
g72
(dp3411
sg81
g3405
sg74
(lp3412
g67
(g68
g69
NtRp3413
(dp3414
g72
(dp3415
g80
I2
ssg81
g3409
sg74
(lp3416
g67
(g76
g69
NtRp3417
(dp3418
g72
(dp3419
g80
I1
ssg81
Nsg74
(lp3420
g67
(g83
g69
NtRp3421
(dp3422
g72
(dp3423
sg81
g3417
sg74
(lp3424
g67
(g88
g69
NtRp3425
(dp3426
g72
(dp3427
sg81
g3421
sg74
(lp3428
g67
(g68
g69
NtRp3429
(dp3430
g72
(dp3431
g80
I1
ssg81
g3425
sg74
(lp3432
g3292
(S's\n\x00\x00\x00Controller'
tRp3433
asbasbasbag67
(g83
g69
NtRp3434
(dp3435
g72
(dp3436
sg81
g3417
sg74
(lp3437
g67
(g88
g69
NtRp3438
(dp3439
g72
(dp3440
sg81
g3434
sg74
(lp3441
g67
(g68
g69
NtRp3442
(dp3443
g72
(dp3444
g80
I1
ssg81
g3438
sg74
(lp3445
I00
asbasbasbag67
(g83
g69
NtRp3446
(dp3447
g72
(dp3448
sg81
g3417
sg74
(lp3449
g67
(g88
g69
NtRp3450
(dp3451
g72
(dp3452
sg81
g3446
sg74
(lp3453
g67
(g68
g69
NtRp3454
(dp3455
g72
(dp3456
g80
I1
ssg81
g3450
sg74
(lp3457
S'/admin/default/edit/Music_Repo/controllers/default.py'
p3458
asbasbasbasbasbasbasbag67
(g83
g69
NtRp3459
(dp3460
g72
(dp3461
sg81
g3401
sg74
(lp3462
g67
(g88
g69
NtRp3463
(dp3464
g72
(dp3465
sg81
g3459
sg74
(lp3466
g67
(g68
g69
NtRp3467
(dp3468
g72
(dp3469
g80
I2
ssg81
g3463
sg74
(lp3470
g67
(g76
g69
NtRp3471
(dp3472
g72
(dp3473
g80
I1
ssg81
Nsg74
(lp3474
g67
(g83
g69
NtRp3475
(dp3476
g72
(dp3477
sg81
g3471
sg74
(lp3478
g67
(g88
g69
NtRp3479
(dp3480
g72
(dp3481
sg81
g3475
sg74
(lp3482
g67
(g68
g69
NtRp3483
(dp3484
g72
(dp3485
g80
I1
ssg81
g3479
sg74
(lp3486
g3292
(S's\x04\x00\x00\x00View'
tRp3487
asbasbasbag67
(g83
g69
NtRp3488
(dp3489
g72
(dp3490
sg81
g3471
sg74
(lp3491
g67
(g88
g69
NtRp3492
(dp3493
g72
(dp3494
sg81
g3488
sg74
(lp3495
g67
(g68
g69
NtRp3496
(dp3497
g72
(dp3498
g80
I1
ssg81
g3492
sg74
(lp3499
I00
asbasbasbag67
(g83
g69
NtRp3500
(dp3501
g72
(dp3502
sg81
g3471
sg74
(lp3503
g67
(g88
g69
NtRp3504
(dp3505
g72
(dp3506
sg81
g3500
sg74
(lp3507
g67
(g68
g69
NtRp3508
(dp3509
g72
(dp3510
g80
I1
ssg81
g3504
sg74
(lp3511
S'/admin/default/edit/Music_Repo/views/default/index.html'
p3512
asbasbasbasbasbasbasbag67
(g83
g69
NtRp3513
(dp3514
g72
(dp3515
sg81
g3401
sg74
(lp3516
g67
(g88
g69
NtRp3517
(dp3518
g72
(dp3519
sg81
g3513
sg74
(lp3520
g67
(g68
g69
NtRp3521
(dp3522
g72
(dp3523
g80
I2
ssg81
g3517
sg74
(lp3524
g67
(g76
g69
NtRp3525
(dp3526
g72
(dp3527
g80
I1
ssg81
Nsg74
(lp3528
g67
(g83
g69
NtRp3529
(dp3530
g72
(dp3531
sg81
g3525
sg74
(lp3532
g67
(g88
g69
NtRp3533
(dp3534
g72
(dp3535
sg81
g3529
sg74
(lp3536
g67
(g68
g69
NtRp3537
(dp3538
g72
(dp3539
g80
I1
ssg81
g3533
sg74
(lp3540
g3292
(S's\x06\x00\x00\x00Layout'
tRp3541
asbasbasbag67
(g83
g69
NtRp3542
(dp3543
g72
(dp3544
sg81
g3525
sg74
(lp3545
g67
(g88
g69
NtRp3546
(dp3547
g72
(dp3548
sg81
g3542
sg74
(lp3549
g67
(g68
g69
NtRp3550
(dp3551
g72
(dp3552
g80
I1
ssg81
g3546
sg74
(lp3553
I00
asbasbasbag67
(g83
g69
NtRp3554
(dp3555
g72
(dp3556
sg81
g3525
sg74
(lp3557
g67
(g88
g69
NtRp3558
(dp3559
g72
(dp3560
sg81
g3554
sg74
(lp3561
g67
(g68
g69
NtRp3562
(dp3563
g72
(dp3564
g80
I1
ssg81
g3558
sg74
(lp3565
S'/admin/default/edit/Music_Repo/views/layout.html'
p3566
asbasbasbasbasbasbasbag67
(g83
g69
NtRp3567
(dp3568
g72
(dp3569
sg81
g3401
sg74
(lp3570
g67
(g88
g69
NtRp3571
(dp3572
g72
(dp3573
sg81
g3567
sg74
(lp3574
g67
(g68
g69
NtRp3575
(dp3576
g72
(dp3577
g80
I2
ssg81
g3571
sg74
(lp3578
g67
(g76
g69
NtRp3579
(dp3580
g72
(dp3581
g80
I1
ssg81
Nsg74
(lp3582
g67
(g83
g69
NtRp3583
(dp3584
g72
(dp3585
sg81
g3579
sg74
(lp3586
g67
(g88
g69
NtRp3587
(dp3588
g72
(dp3589
sg81
g3583
sg74
(lp3590
g67
(g68
g69
NtRp3591
(dp3592
g72
(dp3593
g80
I1
ssg81
g3587
sg74
(lp3594
g3292
(S's\n\x00\x00\x00Stylesheet'
tRp3595
asbasbasbag67
(g83
g69
NtRp3596
(dp3597
g72
(dp3598
sg81
g3579
sg74
(lp3599
g67
(g88
g69
NtRp3600
(dp3601
g72
(dp3602
sg81
g3596
sg74
(lp3603
g67
(g68
g69
NtRp3604
(dp3605
g72
(dp3606
g80
I1
ssg81
g3600
sg74
(lp3607
I00
asbasbasbag67
(g83
g69
NtRp3608
(dp3609
g72
(dp3610
sg81
g3579
sg74
(lp3611
g67
(g88
g69
NtRp3612
(dp3613
g72
(dp3614
sg81
g3608
sg74
(lp3615
g67
(g68
g69
NtRp3616
(dp3617
g72
(dp3618
g80
I1
ssg81
g3612
sg74
(lp3619
S'/admin/default/edit/Music_Repo/static/base.css'
p3620
asbasbasbasbasbasbasbag67
(g83
g69
NtRp3621
(dp3622
g72
(dp3623
sg81
g3401
sg74
(lp3624
g67
(g88
g69
NtRp3625
(dp3626
g72
(dp3627
sg81
g3621
sg74
(lp3628
g67
(g68
g69
NtRp3629
(dp3630
g72
(dp3631
g80
I2
ssg81
g3625
sg74
(lp3632
g67
(g76
g69
NtRp3633
(dp3634
g72
(dp3635
g80
I1
ssg81
Nsg74
(lp3636
g67
(g83
g69
NtRp3637
(dp3638
g72
(dp3639
sg81
g3633
sg74
(lp3640
g67
(g88
g69
NtRp3641
(dp3642
g72
(dp3643
sg81
g3637
sg74
(lp3644
g67
(g68
g69
NtRp3645
(dp3646
g72
(dp3647
g80
I1
ssg81
g3641
sg74
(lp3648
g3292
(S's\x08\x00\x00\x00DB Model'
tRp3649
asbasbasbag67
(g83
g69
NtRp3650
(dp3651
g72
(dp3652
sg81
g3633
sg74
(lp3653
g67
(g88
g69
NtRp3654
(dp3655
g72
(dp3656
sg81
g3650
sg74
(lp3657
g67
(g68
g69
NtRp3658
(dp3659
g72
(dp3660
g80
I1
ssg81
g3654
sg74
(lp3661
I00
asbasbasbag67
(g83
g69
NtRp3662
(dp3663
g72
(dp3664
sg81
g3633
sg74
(lp3665
g67
(g88
g69
NtRp3666
(dp3667
g72
(dp3668
sg81
g3662
sg74
(lp3669
g67
(g68
g69
NtRp3670
(dp3671
g72
(dp3672
g80
I1
ssg81
g3666
sg74
(lp3673
S'/admin/default/edit/Music_Repo/models/db.py'
p3674
asbasbasbasbasbasbasbag67
(g83
g69
NtRp3675
(dp3676
g72
(dp3677
sg81
g3401
sg74
(lp3678
g67
(g88
g69
NtRp3679
(dp3680
g72
(dp3681
sg81
g3675
sg74
(lp3682
g67
(g68
g69
NtRp3683
(dp3684
g72
(dp3685
g80
I2
ssg81
g3679
sg74
(lp3686
g67
(g76
g69
NtRp3687
(dp3688
g72
(dp3689
g80
I1
ssg81
Nsg74
(lp3690
g67
(g83
g69
NtRp3691
(dp3692
g72
(dp3693
sg81
g3687
sg74
(lp3694
g67
(g88
g69
NtRp3695
(dp3696
g72
(dp3697
sg81
g3691
sg74
(lp3698
g67
(g68
g69
NtRp3699
(dp3700
g72
(dp3701
g80
I1
ssg81
g3695
sg74
(lp3702
g3292
(S's\n\x00\x00\x00Menu Model'
tRp3703
asbasbasbag67
(g83
g69
NtRp3704
(dp3705
g72
(dp3706
sg81
g3687
sg74
(lp3707
g67
(g88
g69
NtRp3708
(dp3709
g72
(dp3710
sg81
g3704
sg74
(lp3711
g67
(g68
g69
NtRp3712
(dp3713
g72
(dp3714
g80
I1
ssg81
g3708
sg74
(lp3715
I00
asbasbasbag67
(g83
g69
NtRp3716
(dp3717
g72
(dp3718
sg81
g3687
sg74
(lp3719
g67
(g88
g69
NtRp3720
(dp3721
g72
(dp3722
sg81
g3716
sg74
(lp3723
g67
(g68
g69
NtRp3724
(dp3725
g72
(dp3726
g80
I1
ssg81
g3720
sg74
(lp3727
S'/admin/default/edit/Music_Repo/models/menu.py'
p3728
asbasbasbasbasbasbasbag67
(g83
g69
NtRp3729
(dp3730
g72
(dp3731
sg81
g3401
sg74
(lp3732
g67
(g88
g69
NtRp3733
(dp3734
g72
(dp3735
sg81
g3729
sg74
(lp3736
g67
(g68
g69
NtRp3737
(dp3738
g72
(dp3739
g80
I2
ssg81
g3733
sg74
(lp3740
g67
(g76
g69
NtRp3741
(dp3742
g72
(dp3743
g80
I1
ssg81
Nsg74
(lp3744
g67
(g83
g69
NtRp3745
(dp3746
g72
(dp3747
sg81
g3741
sg74
(lp3748
g67
(g88
g69
NtRp3749
(dp3750
g72
(dp3751
sg81
g3745
sg74
(lp3752
g67
(g68
g69
NtRp3753
(dp3754
g72
(dp3755
g80
I1
ssg81
g3749
sg74
(lp3756
g3292
(S's\x08\x00\x00\x00Database'
tRp3757
asbasbasbag67
(g83
g69
NtRp3758
(dp3759
g72
(dp3760
sg81
g3741
sg74
(lp3761
g67
(g88
g69
NtRp3762
(dp3763
g72
(dp3764
sg81
g3758
sg74
(lp3765
g67
(g68
g69
NtRp3766
(dp3767
g72
(dp3768
g80
I1
ssg81
g3762
sg74
(lp3769
I00
asbasbasbag67
(g83
g69
NtRp3770
(dp3771
g72
(dp3772
sg81
g3741
sg74
(lp3773
g67
(g88
g69
NtRp3774
(dp3775
g72
(dp3776
sg81
g3770
sg74
(lp3777
g67
(g68
g69
NtRp3778
(dp3779
g72
(dp3780
g80
I1
ssg81
g3774
sg74
(lp3781
S'/Music_Repo/appadmin/index'
p3782
asbasbasbasbasbasbasbag67
(g83
g69
NtRp3783
(dp3784
g72
(dp3785
sg81
g3401
sg74
(lp3786
g67
(g88
g69
NtRp3787
(dp3788
g72
(dp3789
sg81
g3783
sg74
(lp3790
g67
(g68
g69
NtRp3791
(dp3792
g72
(dp3793
g80
I2
ssg81
g3787
sg74
(lp3794
g67
(g76
g69
NtRp3795
(dp3796
g72
(dp3797
g80
I1
ssg81
Nsg74
(lp3798
g67
(g83
g69
NtRp3799
(dp3800
g72
(dp3801
sg81
g3795
sg74
(lp3802
g67
(g88
g69
NtRp3803
(dp3804
g72
(dp3805
sg81
g3799
sg74
(lp3806
g67
(g68
g69
NtRp3807
(dp3808
g72
(dp3809
g80
I1
ssg81
g3803
sg74
(lp3810
g3292
(S's\x06\x00\x00\x00Errors'
tRp3811
asbasbasbag67
(g83
g69
NtRp3812
(dp3813
g72
(dp3814
sg81
g3795
sg74
(lp3815
g67
(g88
g69
NtRp3816
(dp3817
g72
(dp3818
sg81
g3812
sg74
(lp3819
g67
(g68
g69
NtRp3820
(dp3821
g72
(dp3822
g80
I1
ssg81
g3816
sg74
(lp3823
I00
asbasbasbag67
(g83
g69
NtRp3824
(dp3825
g72
(dp3826
sg81
g3795
sg74
(lp3827
g67
(g88
g69
NtRp3828
(dp3829
g72
(dp3830
sg81
g3824
sg74
(lp3831
g67
(g68
g69
NtRp3832
(dp3833
g72
(dp3834
g80
I1
ssg81
g3828
sg74
(lp3835
S'/admin/default/errors/Music_Repo'
p3836
asbasbasbasbasbasbasbag67
(g83
g69
NtRp3837
(dp3838
g72
(dp3839
sg81
g3401
sg74
(lp3840
g67
(g88
g69
NtRp3841
(dp3842
g72
(dp3843
sg81
g3837
sg74
(lp3844
g67
(g68
g69
NtRp3845
(dp3846
g72
(dp3847
g80
I2
ssg81
g3841
sg74
(lp3848
g67
(g76
g69
NtRp3849
(dp3850
g72
(dp3851
g80
I1
ssg81
Nsg74
(lp3852
g67
(g83
g69
NtRp3853
(dp3854
g72
(dp3855
sg81
g3849
sg74
(lp3856
g67
(g88
g69
NtRp3857
(dp3858
g72
(dp3859
sg81
g3853
sg74
(lp3860
g67
(g68
g69
NtRp3861
(dp3862
g72
(dp3863
g80
I1
ssg81
g3857
sg74
(lp3864
g3292
(S's\x05\x00\x00\x00About'
tRp3865
asbasbasbag67
(g83
g69
NtRp3866
(dp3867
g72
(dp3868
sg81
g3849
sg74
(lp3869
g67
(g88
g69
NtRp3870
(dp3871
g72
(dp3872
sg81
g3866
sg74
(lp3873
g67
(g68
g69
NtRp3874
(dp3875
g72
(dp3876
g80
I1
ssg81
g3870
sg74
(lp3877
I00
asbasbasbag67
(g83
g69
NtRp3878
(dp3879
g72
(dp3880
sg81
g3849
sg74
(lp3881
g67
(g88
g69
NtRp3882
(dp3883
g72
(dp3884
sg81
g3878
sg74
(lp3885
g67
(g68
g69
NtRp3886
(dp3887
g72
(dp3888
g80
I1
ssg81
g3882
sg74
(lp3889
S'/admin/default/about/Music_Repo'
p3890
asbasbasbasbasbasbasbasbasbasbasbasbasbasbasbag67
(g83
g69
NtRp3891
(dp3892
g72
(dp3893
sg81
g3260
sg74
(lp3894
g67
(g88
g69
NtRp3895
(dp3896
g72
(dp3897
sg81
g3891
sg74
(lp3898
g67
(g68
g69
NtRp3899
(dp3900
g72
(dp3901
g80
I4
ssg81
g3895
sg74
(lp3902
g67
(g76
g69
NtRp3903
(dp3904
g72
(dp3905
g80
I3
ssg81
Nsg74
(lp3906
g67
(g83
g69
NtRp3907
(dp3908
g72
(dp3909
sg81
g3903
sg74
(lp3910
g67
(g88
g69
NtRp3911
(dp3912
g72
(dp3913
sg81
g3907
sg74
(lp3914
g67
(g68
g69
NtRp3915
(dp3916
g72
(dp3917
g80
I3
ssg81
g3911
sg74
(lp3918
g3292
(S's\t\x00\x00\x00Resources'
tRp3919
asbasbasbag67
(g83
g69
NtRp3920
(dp3921
g72
(dp3922
sg81
g3903
sg74
(lp3923
g67
(g88
g69
NtRp3924
(dp3925
g72
(dp3926
sg81
g3920
sg74
(lp3927
g67
(g68
g69
NtRp3928
(dp3929
g72
(dp3930
g80
I3
ssg81
g3924
sg74
(lp3931
g110
asbasbasbag67
(g83
g69
NtRp3932
(dp3933
g72
(dp3934
sg81
g3903
sg74
(lp3935
g67
(g88
g69
NtRp3936
(dp3937
g72
(dp3938
sg81
g3932
sg74
(lp3939
g67
(g68
g69
NtRp3940
(dp3941
g72
(dp3942
g80
I3
ssg81
g3936
sg74
(lp3943
S'None'
p3944
asbasbasbag67
(g83
g69
NtRp3945
(dp3946
g72
(dp3947
sg81
g3903
sg74
(lp3948
g67
(g88
g69
NtRp3949
(dp3950
g72
(dp3951
sg81
g3945
sg74
(lp3952
g67
(g68
g69
NtRp3953
(dp3954
g72
(dp3955
g80
I3
ssg81
g3949
sg74
(lp3956
g67
(g76
g69
NtRp3957
(dp3958
g72
(dp3959
g80
I2
ssg81
Nsg74
(lp3960
g67
(g83
g69
NtRp3961
(dp3962
g72
(dp3963
sg81
g3957
sg74
(lp3964
g67
(g88
g69
NtRp3965
(dp3966
g72
(dp3967
sg81
g3961
sg74
(lp3968
g67
(g68
g69
NtRp3969
(dp3970
g72
(dp3971
g80
I2
ssg81
g3965
sg74
(lp3972
g67
(g76
g69
NtRp3973
(dp3974
g72
(dp3975
g80
I1
ssg81
Nsg74
(lp3976
g67
(g83
g69
NtRp3977
(dp3978
g72
(dp3979
sg81
g3973
sg74
(lp3980
g67
(g88
g69
NtRp3981
(dp3982
g72
(dp3983
sg81
g3977
sg74
(lp3984
g67
(g68
g69
NtRp3985
(dp3986
g72
(dp3987
g80
I1
ssg81
g3981
sg74
(lp3988
g3292
(S's\r\x00\x00\x00Documentation'
tRp3989
asbasbasbag67
(g83
g69
NtRp3990
(dp3991
g72
(dp3992
sg81
g3973
sg74
(lp3993
g67
(g88
g69
NtRp3994
(dp3995
g72
(dp3996
sg81
g3990
sg74
(lp3997
g67
(g68
g69
NtRp3998
(dp3999
g72
(dp4000
g80
I1
ssg81
g3994
sg74
(lp4001
I00
asbasbasbag67
(g83
g69
NtRp4002
(dp4003
g72
(dp4004
sg81
g3973
sg74
(lp4005
g67
(g88
g69
NtRp4006
(dp4007
g72
(dp4008
sg81
g4002
sg74
(lp4009
g67
(g68
g69
NtRp4010
(dp4011
g72
(dp4012
g80
I1
ssg81
g4006
sg74
(lp4013
S'http://www.web2py.com/book'
p4014
asbasbasbag67
(g83
g69
NtRp4015
(dp4016
g72
(dp4017
sg81
g3973
sg74
(lp4018
g67
(g88
g69
NtRp4019
(dp4020
g72
(dp4021
sg81
g4015
sg74
(lp4022
g67
(g68
g69
NtRp4023
(dp4024
g72
(dp4025
g80
I1
ssg81
g4019
sg74
(lp4026
(lp4027
(g3292
(S's\x07\x00\x00\x00Preface'
tRp4028
I00
S'http://www.web2py.com/book/default/chapter/00'
tp4029
a(g3292
(S's\x0c\x00\x00\x00Introduction'
tRp4030
I00
S'http://www.web2py.com/book/default/chapter/01'
tp4031
a(g3292
(S's\x06\x00\x00\x00Python'
tRp4032
I00
S'http://www.web2py.com/book/default/chapter/02'
tp4033
a(g3292
(S's\x08\x00\x00\x00Overview'
tRp4034
I00
S'http://www.web2py.com/book/default/chapter/03'
tp4035
a(g3292
(S's\x08\x00\x00\x00The Core'
tRp4036
I00
S'http://www.web2py.com/book/default/chapter/04'
tp4037
a(g3292
(S's\t\x00\x00\x00The Views'
tRp4038
I00
S'http://www.web2py.com/book/default/chapter/05'
tp4039
a(g3292
(S's\x08\x00\x00\x00Database'
tRp4040
I00
S'http://www.web2py.com/book/default/chapter/06'
tp4041
a(g3292
(S's\x14\x00\x00\x00Forms and Validators'
tRp4042
I00
S'http://www.web2py.com/book/default/chapter/07'
tp4043
a(g3292
(S's\x0e\x00\x00\x00Access Control'
tRp4044
I00
S'http://www.web2py.com/book/default/chapter/08'
tp4045
a(g3292
(S's\x08\x00\x00\x00Services'
tRp4046
I00
S'http://www.web2py.com/book/default/chapter/09'
tp4047
a(g3292
(S's\x0c\x00\x00\x00Ajax Recipes'
tRp4048
I00
S'http://www.web2py.com/book/default/chapter/10'
tp4049
a(g3292
(S's\x12\x00\x00\x00Deployment Recipes'
tRp4050
I00
S'http://www.web2py.com/book/default/chapter/11'
tp4051
a(g3292
(S's\r\x00\x00\x00Other Recipes'
tRp4052
I00
S'http://www.web2py.com/book/default/chapter/12'
tp4053
a(g3292
(S's\r\x00\x00\x00Buy this book'
tRp4054
I00
S'http://stores.lulu.com/web2py'
tp4055
aasbasbasbasbasbasbasbag67
(g83
g69
NtRp4056
(dp4057
g72
(dp4058
sg81
g3957
sg74
(lp4059
g67
(g88
g69
NtRp4060
(dp4061
g72
(dp4062
sg81
g4056
sg74
(lp4063
g67
(g68
g69
NtRp4064
(dp4065
g72
(dp4066
g80
I2
ssg81
g4060
sg74
(lp4067
g67
(g76
g69
NtRp4068
(dp4069
g72
(dp4070
g80
I1
ssg81
Nsg74
(lp4071
g67
(g83
g69
NtRp4072
(dp4073
g72
(dp4074
sg81
g4068
sg74
(lp4075
g67
(g88
g69
NtRp4076
(dp4077
g72
(dp4078
sg81
g4072
sg74
(lp4079
g67
(g68
g69
NtRp4080
(dp4081
g72
(dp4082
g80
I1
ssg81
g4076
sg74
(lp4083
g3292
(S's\t\x00\x00\x00Community'
tRp4084
asbasbasbag67
(g83
g69
NtRp4085
(dp4086
g72
(dp4087
sg81
g4068
sg74
(lp4088
g67
(g88
g69
NtRp4089
(dp4090
g72
(dp4091
sg81
g4085
sg74
(lp4092
g67
(g68
g69
NtRp4093
(dp4094
g72
(dp4095
g80
I1
ssg81
g4089
sg74
(lp4096
I00
asbasbasbag67
(g83
g69
NtRp4097
(dp4098
g72
(dp4099
sg81
g4068
sg74
(lp4100
g67
(g88
g69
NtRp4101
(dp4102
g72
(dp4103
sg81
g4097
sg74
(lp4104
g67
(g68
g69
NtRp4105
(dp4106
g72
(dp4107
g80
I1
ssg81
g4101
sg74
(lp4108
Nasbasbasbag67
(g83
g69
NtRp4109
(dp4110
g72
(dp4111
sg81
g4068
sg74
(lp4112
g67
(g88
g69
NtRp4113
(dp4114
g72
(dp4115
sg81
g4109
sg74
(lp4116
g67
(g68
g69
NtRp4117
(dp4118
g72
(dp4119
g80
I1
ssg81
g4113
sg74
(lp4120
(lp4121
(g3292
(S's\x06\x00\x00\x00Groups'
tRp4122
I00
S'http://www.web2py.com/examples/default/usergroups'
tp4123
a(g3292
(S's\x07\x00\x00\x00Twitter'
tRp4124
I00
S'http://twitter.com/web2py'
tp4125
a(g3292
(S's\t\x00\x00\x00Live chat'
tRp4126
I00
S'http://mibbit.com/?channel=%23web2py&server=irc.mibbit.net'
tp4127
a(g3292
(S's\n\x00\x00\x00User Voice'
tRp4128
I00
S'http://web2py.uservoice.com/'
tp4129
aasbasbasbasbasbasbasbag67
(g83
g69
NtRp4130
(dp4131
g72
(dp4132
sg81
g3957
sg74
(lp4133
g67
(g88
g69
NtRp4134
(dp4135
g72
(dp4136
sg81
g4130
sg74
(lp4137
g67
(g68
g69
NtRp4138
(dp4139
g72
(dp4140
g80
I2
ssg81
g4134
sg74
(lp4141
g67
(g76
g69
NtRp4142
(dp4143
g72
(dp4144
g80
I1
ssg81
Nsg74
(lp4145
g67
(g83
g69
NtRp4146
(dp4147
g72
(dp4148
sg81
g4142
sg74
(lp4149
g67
(g88
g69
NtRp4150
(dp4151
g72
(dp4152
sg81
g4146
sg74
(lp4153
g67
(g68
g69
NtRp4154
(dp4155
g72
(dp4156
g80
I1
ssg81
g4150
sg74
(lp4157
g3292
(S's\x06\x00\x00\x00Web2py'
tRp4158
asbasbasbag67
(g83
g69
NtRp4159
(dp4160
g72
(dp4161
sg81
g4142
sg74
(lp4162
g67
(g88
g69
NtRp4163
(dp4164
g72
(dp4165
sg81
g4159
sg74
(lp4166
g67
(g68
g69
NtRp4167
(dp4168
g72
(dp4169
g80
I1
ssg81
g4163
sg74
(lp4170
I00
asbasbasbag67
(g83
g69
NtRp4171
(dp4172
g72
(dp4173
sg81
g4142
sg74
(lp4174
g67
(g88
g69
NtRp4175
(dp4176
g72
(dp4177
sg81
g4171
sg74
(lp4178
g67
(g68
g69
NtRp4179
(dp4180
g72
(dp4181
g80
I1
ssg81
g4175
sg74
(lp4182
S'http://www.web2py.com'
p4183
asbasbasbag67
(g83
g69
NtRp4184
(dp4185
g72
(dp4186
sg81
g4142
sg74
(lp4187
g67
(g88
g69
NtRp4188
(dp4189
g72
(dp4190
sg81
g4184
sg74
(lp4191
g67
(g68
g69
NtRp4192
(dp4193
g72
(dp4194
g80
I1
ssg81
g4188
sg74
(lp4195
(lp4196
(g3292
(S's\x08\x00\x00\x00Download'
tRp4197
I00
S'http://www.web2py.com/examples/default/download'
tp4198
a(g3292
(S's\x07\x00\x00\x00Support'
tRp4199
I00
S'http://www.web2py.com/examples/default/support'
tp4200
a(g3292
(S's\x0e\x00\x00\x00Quick Examples'
tRp4201
I00
S'http://web2py.com/examples/default/examples'
tp4202
a(g3292
(S's\x03\x00\x00\x00FAQ'
tRp4203
I00
S'http://web2py.com/AlterEgo'
tp4204
a(g3292
(S's\x11\x00\x00\x00Free Applications'
tRp4205
I00
S'http://web2py.com/appliances'
tp4206
a(g3292
(S's\x07\x00\x00\x00Plugins'
tRp4207
I00
S'http://web2py.com/plugins'
tp4208
a(g3292
(S's\x07\x00\x00\x00Recipes'
tRp4209
I00
S'http://web2pyslices.com/'
tp4210
a(g3292
(S's\x04\x00\x00\x00Demo'
tRp4211
I00
S'http://web2py.com/demo_admin'
tp4212
a(g3292
(S's\x08\x00\x00\x00Semantic'
tRp4213
I00
S'http://web2py.com/semantic'
tp4214
a(g3292
(S's\x07\x00\x00\x00Layouts'
tRp4215
I00
S'http://web2py.com/layouts'
tp4216
a(g3292
(S's\x06\x00\x00\x00Videos'
tRp4217
I00
S'http://www.web2py.com/examples/default/videos/'
tp4218
aasbasbasbasbasbasbasbasbasbasbasbasbasbasbasbasbasbasbasbag67
(g83
g69
NtRp4219
(dp4220
g72
(dp4221
sg81
g2787
sg74
(lp4222
g67
(g88
g69
NtRp4223
(dp4224
g72
(dp4225
g92
g93
ssg81
g4219
sg74
(lp4226
S'meta'
p4227
asbag67
(g88
g69
NtRp4228
(dp4229
g72
(dp4230
g99
g100
ssg81
g4219
sg74
(lp4231
S':'
asbag67
(g88
g69
NtRp4232
(dp4233
g72
(dp4234
sg81
g4219
sg74
(lp4235
g67
(g68
g69
NtRp4236
(dp4237
g72
(dp4238
g80
I5
ssg81
g4232
sg74
(lp4239
g67
(g76
g69
NtRp4240
(dp4241
g72
(dp4242
g80
I4
ssg81
Nsg74
(lp4243
g67
(g83
g69
NtRp4244
(dp4245
g72
(dp4246
sg81
g4240
sg74
(lp4247
g67
(g88
g69
NtRp4248
(dp4249
g72
(dp4250
g92
g93
ssg81
g4244
sg74
(lp4251
S'author'
p4252
asbag67
(g88
g69
NtRp4253
(dp4254
g72
(dp4255
g99
g100
ssg81
g4244
sg74
(lp4256
S':'
asbag67
(g88
g69
NtRp4257
(dp4258
g72
(dp4259
sg81
g4244
sg74
(lp4260
g67
(g68
g69
NtRp4261
(dp4262
g72
(dp4263
g80
I4
ssg81
g4257
sg74
(lp4264
S'you'
p4265
asbasbasbag67
(g83
g69
NtRp4266
(dp4267
g72
(dp4268
sg81
g4240
sg74
(lp4269
g67
(g88
g69
NtRp4270
(dp4271
g72
(dp4272
g92
g93
ssg81
g4266
sg74
(lp4273
S'copyright'
p4274
asbag67
(g88
g69
NtRp4275
(dp4276
g72
(dp4277
g99
g100
ssg81
g4266
sg74
(lp4278
S':'
asbag67
(g88
g69
NtRp4279
(dp4280
g72
(dp4281
sg81
g4266
sg74
(lp4282
g67
(g68
g69
NtRp4283
(dp4284
g72
(dp4285
g80
I4
ssg81
g4279
sg74
(lp4286
S'Copyright 2007-2010'
p4287
asbasbasbag67
(g83
g69
NtRp4288
(dp4289
g72
(dp4290
sg81
g4240
sg74
(lp4291
g67
(g88
g69
NtRp4292
(dp4293
g72
(dp4294
g92
g93
ssg81
g4288
sg74
(lp4295
S'description'
p4296
asbag67
(g88
g69
NtRp4297
(dp4298
g72
(dp4299
g99
g100
ssg81
g4288
sg74
(lp4300
S':'
asbag67
(g88
g69
NtRp4301
(dp4302
g72
(dp4303
sg81
g4288
sg74
(lp4304
g67
(g68
g69
NtRp4305
(dp4306
g72
(dp4307
g80
I4
ssg81
g4301
sg74
(lp4308
S'Free and open source full-stack enterprise framework for agile development of fast, scalable, secure and portable database-driven web-based applications. Written and programmable in Python'
p4309
asbasbasbag67
(g83
g69
NtRp4310
(dp4311
g72
(dp4312
sg81
g4240
sg74
(lp4313
g67
(g88
g69
NtRp4314
(dp4315
g72
(dp4316
g92
g93
ssg81
g4310
sg74
(lp4317
S'generator'
p4318
asbag67
(g88
g69
NtRp4319
(dp4320
g72
(dp4321
g99
g100
ssg81
g4310
sg74
(lp4322
S':'
asbag67
(g88
g69
NtRp4323
(dp4324
g72
(dp4325
sg81
g4310
sg74
(lp4326
g67
(g68
g69
NtRp4327
(dp4328
g72
(dp4329
g80
I4
ssg81
g4323
sg74
(lp4330
S'Web2py Enterprise Framework'
p4331
asbasbasbag67
(g83
g69
NtRp4332
(dp4333
g72
(dp4334
sg81
g4240
sg74
(lp4335
g67
(g88
g69
NtRp4336
(dp4337
g72
(dp4338
g92
g93
ssg81
g4332
sg74
(lp4339
S'keywords'
p4340
asbag67
(g88
g69
NtRp4341
(dp4342
g72
(dp4343
g99
g100
ssg81
g4332
sg74
(lp4344
S':'
asbag67
(g88
g69
NtRp4345
(dp4346
g72
(dp4347
sg81
g4332
sg74
(lp4348
g67
(g68
g69
NtRp4349
(dp4350
g72
(dp4351
g80
I4
ssg81
g4345
sg74
(lp4352
S'web2py, python, framework'
p4353
asbasbasbasbasbasbasbag67
(g83
g69
NtRp4354
(dp4355
g72
(dp4356
sg81
g2787
sg74
(lp4357
g67
(g88
g69
NtRp4358
(dp4359
g72
(dp4360
g92
g93
ssg81
g4354
sg74
(lp4361
S'postprocessing'
p4362
asbag67
(g88
g69
NtRp4363
(dp4364
g72
(dp4365
g99
g100
ssg81
g4354
sg74
(lp4366
S':'
asbag67
(g88
g69
NtRp4367
(dp4368
g72
(dp4369
sg81
g4354
sg74
(lp4370
g67
(g68
g69
NtRp4371
(dp4372
g72
(dp4373
g80
I5
ssg81
g4367
sg74
(lp4374
g67
(g76
g69
NtRp4375
(dp4376
g72
(dp4377
g80
I4
ssg81
Nsg74
(lp4378
sbasbasbasbag67
(g83
g69
NtRp4379
(dp4380
g72
(dp4381
sg81
g2787
sg74
(lp4382
g67
(g88
g69
NtRp4383
(dp4384
g72
(dp4385
g92
g93
ssg81
g4379
sg74
(lp4386
S'session_file'
p4387
asbag67
(g88
g69
NtRp4388
(dp4389
g72
(dp4390
g99
g100
ssg81
g4379
sg74
(lp4391
S':'
asbag67
(g88
g69
NtRp4392
(dp4393
g72
(dp4394
sg81
g4379
sg74
(lp4395
g67
(g68
g69
NtRp4396
(dp4397
g72
(dp4398
g80
I5
ssg81
g4392
sg74
(lp4399
S"<open file '/home/vsvah/Desktop/Coursework/Sem3/SSAD/web2py/applications/Music_Repo/sessions/127.0.0.1-58c50a89-5c2c-4324-a6ea-b9e20c8d0725', mode 'rb+' at 0x8bed020>"
p4400
asbasbasbag67
(g83
g69
NtRp4401
(dp4402
g72
(dp4403
sg81
g2787
sg74
(lp4404
g67
(g88
g69
NtRp4405
(dp4406
g72
(dp4407
g92
g93
ssg81
g4401
sg74
(lp4408
S'session_filename'
p4409
asbag67
(g88
g69
NtRp4410
(dp4411
g72
(dp4412
g99
g100
ssg81
g4401
sg74
(lp4413
S':'
asbag67
(g88
g69
NtRp4414
(dp4415
g72
(dp4416
sg81
g4401
sg74
(lp4417
g67
(g68
g69
NtRp4418
(dp4419
g72
(dp4420
g80
I5
ssg81
g4414
sg74
(lp4421
S'/home/vsvah/Desktop/Coursework/Sem3/SSAD/web2py/applications/Music_Repo/sessions/127.0.0.1-58c50a89-5c2c-4324-a6ea-b9e20c8d0725'
p4422
asbasbasbag67
(g83
g69
NtRp4423
(dp4424
g72
(dp4425
sg81
g2787
sg74
(lp4426
g67
(g88
g69
NtRp4427
(dp4428
g72
(dp4429
g92
g93
ssg81
g4423
sg74
(lp4430
S'session_id'
p4431
asbag67
(g88
g69
NtRp4432
(dp4433
g72
(dp4434
g99
g100
ssg81
g4423
sg74
(lp4435
S':'
asbag67
(g88
g69
NtRp4436
(dp4437
g72
(dp4438
sg81
g4423
sg74
(lp4439
g67
(g68
g69
NtRp4440
(dp4441
g72
(dp4442
g80
I5
ssg81
g4436
sg74
(lp4443
S'127.0.0.1-58c50a89-5c2c-4324-a6ea-b9e20c8d0725'
p4444
asbasbasbag67
(g83
g69
NtRp4445
(dp4446
g72
(dp4447
sg81
g2787
sg74
(lp4448
g67
(g88
g69
NtRp4449
(dp4450
g72
(dp4451
g92
g93
ssg81
g4445
sg74
(lp4452
S'session_id_name'
p4453
asbag67
(g88
g69
NtRp4454
(dp4455
g72
(dp4456
g99
g100
ssg81
g4445
sg74
(lp4457
S':'
asbag67
(g88
g69
NtRp4458
(dp4459
g72
(dp4460
sg81
g4445
sg74
(lp4461
g67
(g68
g69
NtRp4462
(dp4463
g72
(dp4464
g80
I5
ssg81
g4458
sg74
(lp4465
g2844
asbasbasbag67
(g83
g69
NtRp4466
(dp4467
g72
(dp4468
sg81
g2787
sg74
(lp4469
g67
(g88
g69
NtRp4470
(dp4471
g72
(dp4472
g92
g93
ssg81
g4466
sg74
(lp4473
S'session_locked'
p4474
asbag67
(g88
g69
NtRp4475
(dp4476
g72
(dp4477
g99
g100
ssg81
g4466
sg74
(lp4478
S':'
asbag67
(g88
g69
NtRp4479
(dp4480
g72
(dp4481
sg81
g4466
sg74
(lp4482
g67
(g68
g69
NtRp4483
(dp4484
g72
(dp4485
g80
I5
ssg81
g4479
sg74
(lp4486
g1645
asbasbasbag67
(g83
g69
NtRp4487
(dp4488
g72
(dp4489
sg81
g2787
sg74
(lp4490
g67
(g88
g69
NtRp4491
(dp4492
g72
(dp4493
g92
g93
ssg81
g4487
sg74
(lp4494
S'session_new'
p4495
asbag67
(g88
g69
NtRp4496
(dp4497
g72
(dp4498
g99
g100
ssg81
g4487
sg74
(lp4499
S':'
asbag67
(g88
g69
NtRp4500
(dp4501
g72
(dp4502
sg81
g4487
sg74
(lp4503
g67
(g68
g69
NtRp4504
(dp4505
g72
(dp4506
g80
I5
ssg81
g4500
sg74
(lp4507
g110
asbasbasbag67
(g83
g69
NtRp4508
(dp4509
g72
(dp4510
sg81
g2787
sg74
(lp4511
g67
(g88
g69
NtRp4512
(dp4513
g72
(dp4514
g92
g93
ssg81
g4508
sg74
(lp4515
S'status'
p4516
asbag67
(g88
g69
NtRp4517
(dp4518
g72
(dp4519
g99
g100
ssg81
g4508
sg74
(lp4520
S':'
asbag67
(g88
g69
NtRp4521
(dp4522
g72
(dp4523
sg81
g4508
sg74
(lp4524
g67
(g68
g69
NtRp4525
(dp4526
g72
(dp4527
g80
I5
ssg81
g4521
sg74
(lp4528
S'200'
p4529
asbasbasbag67
(g83
g69
NtRp4530
(dp4531
g72
(dp4532
sg81
g2787
sg74
(lp4533
g67
(g88
g69
NtRp4534
(dp4535
g72
(dp4536
g92
g93
ssg81
g4530
sg74
(lp4537
S'subtitle'
p4538
asbag67
(g88
g69
NtRp4539
(dp4540
g72
(dp4541
g99
g100
ssg81
g4530
sg74
(lp4542
S':'
asbag67
(g88
g69
NtRp4543
(dp4544
g72
(dp4545
sg81
g4530
sg74
(lp4546
g67
(g68
g69
NtRp4547
(dp4548
g72
(dp4549
g80
I5
ssg81
g4543
sg74
(lp4550
g3292
(S's\r\x00\x00\x00customize me!'
tRp4551
asbasbasbag67
(g83
g69
NtRp4552
(dp4553
g72
(dp4554
sg81
g2787
sg74
(lp4555
g67
(g88
g69
NtRp4556
(dp4557
g72
(dp4558
g92
g93
ssg81
g4552
sg74
(lp4559
S'title'
p4560
asbag67
(g88
g69
NtRp4561
(dp4562
g72
(dp4563
g99
g100
ssg81
g4552
sg74
(lp4564
S':'
asbag67
(g88
g69
NtRp4565
(dp4566
g72
(dp4567
sg81
g4552
sg74
(lp4568
g67
(g68
g69
NtRp4569
(dp4570
g72
(dp4571
g80
I5
ssg81
g4565
sg74
(lp4572
g132
asbasbasbag67
(g83
g69
NtRp4573
(dp4574
g72
(dp4575
sg81
g2787
sg74
(lp4576
g67
(g88
g69
NtRp4577
(dp4578
g72
(dp4579
g92
g93
ssg81
g4573
sg74
(lp4580
g1990
asbag67
(g88
g69
NtRp4581
(dp4582
g72
(dp4583
g99
g100
ssg81
g4573
sg74
(lp4584
S':'
asbag67
(g88
g69
NtRp4585
(dp4586
g72
(dp4587
sg81
g4573
sg74
(lp4588
g67
(g68
g69
NtRp4589
(dp4590
g72
(dp4591
g80
I5
ssg81
g4585
sg74
(lp4592
g2003
asbasbasbag67
(g83
g69
NtRp4593
(dp4594
g72
(dp4595
sg81
g2787
sg74
(lp4596
g67
(g88
g69
NtRp4597
(dp4598
g72
(dp4599
g92
g93
ssg81
g4593
sg74
(lp4600
S'view'
p4601
asbag67
(g88
g69
NtRp4602
(dp4603
g72
(dp4604
g99
g100
ssg81
g4593
sg74
(lp4605
S':'
asbag67
(g88
g69
NtRp4606
(dp4607
g72
(dp4608
sg81
g4593
sg74
(lp4609
g67
(g68
g69
NtRp4610
(dp4611
g72
(dp4612
g80
I5
ssg81
g4606
sg74
(lp4613
S'default/index.html'
p4614
asbasbasbasbasbsS'locals'
p4615
(dp4616
g3
S"'/home/vsvah/Desktop/Coursework/Sem3/SSAD/web2py/applications/Music_Repo/controllers/default.py'"
p4617
sg5
S'\'# -*- coding: utf-8 -*-\\n# this file is released ...d :D")\\n\\t\\n\\nresponse._vars=response._caller(index)\\n\''
p4618
sssS'traceback'
p4619
S'Traceback (most recent call last):\n  File "/home/vsvah/Desktop/Coursework/Sem3/SSAD/web2py/gluon/restricted.py", line 191, in restricted\n    ccode = compile2(code,layer)\n  File "/home/vsvah/Desktop/Coursework/Sem3/SSAD/web2py/gluon/restricted.py", line 178, in compile2\n    return compile(code.rstrip().replace(\'\\r\\n\',\'\\n\')+\'\\n\', layer, \'exec\')\n  File "/home/vsvah/Desktop/Coursework/Sem3/SSAD/web2py/applications/Music_Repo/controllers/default.py", line 146\n    Field(\'artist_name\',\'string\')\n        ^\nSyntaxError: invalid syntax\n'
p4620
s.