(dp1
S'output'
p2
S''
sS'layer'
p3
S'/home/vsvah/Desktop/Coursework/Sem3/SSAD/web2py/applications/Music_Repo/views/default/display_link.html'
p4
sS'code'
p5
S'left_sidebar_enabled=right_sidebar_enabled=False\nresponse.write(\'\\n\', escape=False)\nresponse.write(\'<!DOCTYPE html>\\n<html lang="\', escape=False)\nresponse.write(T.accepted_language or \'en\')\nresponse.write(\'" class="no-js"><!-- no-js need it for modernzr -->\\n  <head>\\n    \\n    <meta charset="utf-8" />\\t  \\t\\n    <!-- www.phpied.com/conditional-comments-block-downloads/ -->\\n    <!--[if IE]><![endif]-->    \\n    <!-- Always force latest IE rendering engine \\n\\t (even in intranet) & Chrome Frame \\n\\t Remove this if you use the .htaccess -->\\n    <meta http-equiv="X-UA-Compatible" content="IE=edge,chrome=1">\\n    \\n    <title>\', escape=False)\nresponse.write(response.title or request.application)\nresponse.write(\'</title>\\n    \\n    <!-- http://dev.w3.org/html5/markup/meta.name.html -->\\n    <meta name="application-name" content="\', escape=False)\nresponse.write(request.application)\nresponse.write(\'" />\\t\\n    \\n    <!-- Speaking of Google, don\\\'t forget to set your site up: \\n\\t http://google.com/webmasters -->\\n    <meta name="google-site-verification" content="" />\\n    \\n    <!--  Mobile Viewport Fix\\n\\t  j.mp/mobileviewport & davidbcalhoun.com/2010/viewport-metatag \\n\\t  device-width: Occupy full width of the screen in its current orientation\\n\\t  initial-scale = 1.0 retains dimensions instead of zooming out if page height > device height\\n\\t  maximum-scale = 1.0 retains dimensions instead of zooming in if page width < device width\\n      -->\\n    <meta name="viewport" content="width=device-width, initial-scale=1.0, maximum-scale=1.0">\\n    \\n    <!-- Place favicon.ico and apple-touch-icon.png in the root of your domain and delete these references -->\\n    <link rel="shortcut icon" href="\', escape=False)\nresponse.write(URL(\'static\',\'favicon.ico\'))\nresponse.write(\'" type="image/x-icon">\\n    <link rel="apple-touch-icon" href="\', escape=False)\nresponse.write(URL(\'static\',\'favicon.png\'))\nresponse.write(\'">\\n\\n    <!-- For the less-enabled mobile browsers like Opera Mini -->\\n    <link rel="stylesheet" media="handheld" href="\', escape=False)\nresponse.write(URL(\'static\',\'css/handheld.css\'))\nresponse.write(\'">\\n    \\n    <!-- All JavaScript at the bottom, except for Modernizr which enables HTML5 elements & feature detects -->\\n    <script src="\', escape=False)\nresponse.write(URL(\'static\',\'js/modernizr-1.7.min.js\'))\nresponse.write(\'"></script>\\n    \\n    \', escape=False)\n#------  require CSS and JS files for this page (read info in base.css) ------\nresponse.write(\'\\n    \', escape=False)\nresponse.files.append(URL(\'static\',\'css/base.css\'))\nresponse.write(\'\\n    \', escape=False)\nresponse.files.append(URL(\'static\',\'css/superfish.css\'))\nresponse.write(\'\\n    \', escape=False)\nresponse.files.append(URL(\'static\',\'js/superfish.js\'))\nresponse.write(\'\\n    \', escape=False)\n#------ include web2py specific js code (jquery, calendar, form stuff) ------\nresponse.write(\'\\n    \', escape=False)\nresponse.files.insert(0,URL(\'static\',\'js/jquery.js\'))\nresponse.files.insert(1,URL(\'static\',\'css/calendar.css\'))\nresponse.files.insert(2,URL(\'static\',\'js/calendar.js\'))\nfor _item in response.meta or []:\n    response.write(\'\\n     <meta name="\', escape=False)\n    response.write(_item)\n    response.write(\'" content="\', escape=False)\n    response.write(response.meta[_item])\n    response.write(\'" />\', escape=False)\n    pass\nfor _k,_file in enumerate(response.files or []):\n    if _file in response.files[:_k]:\n        continue\n    _file0=_file.lower().split(\'?\')[0]\n    if _file0.endswith(\'.css\'):\n        response.write(\'\\n     <link href="\', escape=False)\n        response.write(_file)\n        response.write(\'" rel="stylesheet" type="text/css" />\', escape=False)\n    elif _file0.endswith(\'.js\'):\n        response.write(\'\\n     <script src="\', escape=False)\n        response.write(_file)\n        response.write(\'" type="text/javascript"></script>\', escape=False)\n        pass\n    pass\nresponse.write(\'\\n    <script type="text/javascript"><!--\\n    // These variables are used by the web2py_ajax_init function in web2py_ajax.js (which is loaded below).\\n    var w2p_ajax_confirm_message = "\', escape=False)\nresponse.write(T(\'Are you sure you want to delete this object?\'))\nresponse.write(\'";\\n    var w2p_ajax_date_format = "\', escape=False)\nresponse.write(T(\'%Y-%m-%d\'))\nresponse.write(\'";\\n    var w2p_ajax_datetime_format = "\', escape=False)\nresponse.write(T(\'%Y-%m-%d %H:%M:%S\'))\nresponse.write(\'";\\n    //--></script>\\n    <script src="\', escape=False)\nresponse.write(URL(\'static\',\'js/web2py_ajax.js\'))\nresponse.write(\'" type="text/javascript"></script>\\n\', escape=False)\nresponse.write(\'\\n\\n    \', escape=False)\n#using sidebars need to know what sidebar you want to use\n#prior of using it, because of static width size of content, you can use\n#left_sidebar, right_sidebar, both or none (False left and right)\nleft_sidebar_enabled = globals().get(\'left_sidebar_enabled\',False)\nright_sidebar_enabled = globals().get(\'right_sidebar_enabled\',False)\nif left_sidebar_enabled and right_sidebar_enabled: width_content=\'63%\'\nelif left_sidebar_enabled != right_sidebar_enabled: width_content=\'740px\'\nelse: width_content=\'100%\'\nif left_sidebar_enabled: left_sidebar_style = \'style="display: block;"\'\nelse: left_sidebar_style = \'style="display: none;"\'\nif right_sidebar_enabled: right_sidebar_style = \'style="display: block;"\'\nelse: right_sidebar_style = \'style="display: none;"\'\nstyle_content = \'style="width: %s"\' % width_content\nresponse.write(\'\\n  </head>\\n  \\n  <!-- paulirish.com/2008/conditional-stylesheets-vs-css-hacks-answer-neither/ -->\\t\\n  <!--[if lt IE 7 ]> <body class="ie6"> <![endif]-->\\n  <!--[if IE 7 ]>    <body class="ie7"> <![endif]-->\\n  <!--[if IE 8 ]>    <body class="ie8"> <![endif]-->\\n  <!--[if IE 9 ]>    <body class="ie9"> <![endif]-->\\n  <!--[if (gt IE 9)|!(IE)]><!--> <body> <!--<![endif]-->\\n    \\n    <div class="flash">\', escape=False)\nresponse.write(response.flash or \'\')\nresponse.write(\'</div> <!-- notification div -->\\n    \\n    <div id="container">\\t      \\t\\t      \\t\\n      \\n      <div id="wrapper">\\t\\t\\n\\t\\n\\t<div id="header"> <!-- header and login nav -->\\n\\t  \', escape=False)\nresponse.write(\' <!-- this is default header -->\\n\\t  \', escape=False)\ntry:\n    response.write(auth.navbar(action=URL(\'default\',\'user\')))\nexcept:pass\nresponse.write(\'\\t\\t          \\n\\t  <h1><span id="appname">\', escape=False)\nresponse.write(request.application.capitalize())\nresponse.write(\'</span>App</h1>\\n\\t  <div style="clear: both;"></div><!-- Clear the divs -->\\n\\t  \', escape=False)\nresponse.write(\'\\t\\t\\t\\t  \\t\\t\\t\\t\\t  \\n\\t</div><!-- header  -->\\n\\t\\n\\t<div id="statusbar"><!-- statusbar is menu zone -->\\n\\t  \', escape=False)\nresponse.write(\' <!-- this is default statusbar -->\\n\\t  \', escape=False)\n#------ superfish menu ------\nresponse.write(\'\\n\\t  \', escape=False)\nresponse.write(MENU(response.menu,_class=\'sf-menu\'))\nresponse.write(\'\\n\\t  <script type="text/javascript">\\n\\t    jQuery(document).ready(function(){\\n\\t    jQuery(\\\'ul.sf-menu\\\').superfish();});\\n\\t  </script>\\n\\t  <div style="clear: both;"></div><!-- Clear the divs -->\\t\\n\\t  \', escape=False)\nresponse.write(\'\\t\\t\\t\\t\\n\\t</div><!-- statusbar -->\\n\\t\\n\\t<div id="page"> <!-- Here my central body -->\\t  \\n\\n\\t  \', escape=False)\nif left_sidebar_enabled:\n    response.write(\'\\n          <div id="left_sidebar" \', escape=False)\n    response.write(XML(left_sidebar_style))\n    response.write(\' >\\n            <div style="padding: 4px;">\\n\\t      \', escape=False)\n    response.write(\'Content Left Sidebar\', escape=False)\n    response.write(\'\\t\\t  \\n            </div>\\n          </div><!-- left_sidebar -->\\n\\t  \', escape=False)\n    pass\nresponse.write(\'\\n\\n\\t  <!-- content -->\\n\\t  <div id="content" \', escape=False)\nresponse.write(XML(style_content))\nresponse.write(\' >\\n\\t    \', escape=False)\nresponse.write(\'\\n<h3>Matching Songs (Click on the name for more details)</h3>\\n\', escape=False)\nfor i in r:\n    response.write(\'\\n   <a href = "/Music_Repo/default/display_details?idno=\', escape=False)\n    response.write(i.song.id)\n    response.write(\'">\', escape=False)\n    response.write(i.song.name)\n    response.write(\'</a>\\n   \', escape=False)\n    response.write()\n    response.write(\'\\n\\n\\n\', escape=False)\n    pass\nresponse.write(\'\\n\', escape=False)\nresponse.write(\'\\t\\n\\t  </div>\\n\\t  <!-- content -->\\n\\n\\t  \', escape=False)\nif right_sidebar_enabled:\n    response.write(\'\\n          <div id="right_sidebar" \', escape=False)\n    response.write(XML(right_sidebar_style))\n    response.write(\' >\\n            <div style="padding: 4px;">\\n              \', escape=False)\n    response.write(\'Content Right Sidebar\', escape=False)\n    response.write(\'\\n            </div>\\n\\t  </div><!-- right_sidebar -->\\n          \', escape=False)\n    pass\nresponse.write(\'\\n\\n\\n\\t  <div style="clear: both;"></div><!-- Clear the divs -->\\n\\t  \\n\\t</div><!-- page -->\\t\\t\\t\\t\\t\\t\\t\\n\\t\\n\\t<div id="footer">\\n\\t  \', escape=False)\nresponse.write(\' <!-- this is default footer -->\\n\\t  <a href="http://www.web2py.com/" style="float: left; padding-right: 6px;">\\n\\t    <img src="\', escape=False)\nresponse.write(URL(\'static\',\'images/poweredby.png\'))\nresponse.write(\'"/>\\n\\t  </a>\\n\\t  \', escape=False)\nresponse.write(T(\'Copyright\'))\nresponse.write(\' &#169; 2010\\t\\t\\t\\t\\n\\t  <div style="clear: both;"></div><!-- Clear the divs -->\\n\\t  \', escape=False)\nresponse.write(\'\\n\\n\\t</div><!-- footer -->\\t\\t\\t\\n      </div><!-- wrapper -->\\n    </div><!-- container -->\\t\\t\\n    \\n    <!--[if lt IE 7 ]>\\n\\t<script src="\', escape=False)\nresponse.write(URL(\'static\',\'js/dd_belatedpng.js\'))\nresponse.write(\'"></script>\\n\\t<script> DD_belatedPNG.fix(\\\'img, .png_bg\\\'); //fix any <img> or .png_bg background-images </script>\\n\\t<![endif]-->\\n    \\n    <!-- asynchronous google analytics: mathiasbynens.be/notes/async-analytics-snippet \\n\\t change the UA-XXXXX-X to be your site\\\'s ID -->\\n    <!--   \\n\\t   <script>\\n\\t     var _gaq = [[\\\'_setAccount\\\', \\\'UA-XXXXX-X\\\'], [\\\'_trackPageview\\\']];\\n\\t     (function(d, t) {\\n\\t     var g = d.createElement(t),\\n\\t     s = d.getElementsByTagName(t)[0];\\n\\t     g.async = true;\\n\\t     g.src = \\\'//www.google-analytics.com/ga.js\\\';\\n\\t     s.parentNode.insertBefore(g, s);\\n\\t     })(document, \\\'script\\\');\\n\\t   </script>\\n\\t   -->    \\n  </body>\\n</html>\\n\', escape=False)'
p6
sS'snapshot'
p7
(dp8
S'exception'
p9
(dp10
S'__hash__'
p11
S"<method-wrapper '__hash__' of exceptions.TypeError object>"
p12
sS'__setattr__'
p13
S"<method-wrapper '__setattr__' of exceptions.TypeError object>"
p14
sS'__reduce_ex__'
p15
S'<built-in method __reduce_ex__ of exceptions.TypeError object>'
p16
sS'__getslice__'
p17
S"<method-wrapper '__getslice__' of exceptions.TypeError object>"
p18
sS'__getitem__'
p19
S"<method-wrapper '__getitem__' of exceptions.TypeError object>"
p20
sS'__setstate__'
p21
S'<built-in method __setstate__ of exceptions.TypeError object>'
p22
sS'__reduce__'
p23
S'<built-in method __reduce__ of exceptions.TypeError object>'
p24
sS'__str__'
p25
S"<method-wrapper '__str__' of exceptions.TypeError object>"
p26
sS'__format__'
p27
S'<built-in method __format__ of exceptions.TypeError object>'
p28
sS'__getattribute__'
p29
S"<method-wrapper '__getattribute__' of exceptions.TypeError object>"
p30
sS'__class__'
p31
S"<type 'exceptions.TypeError'>"
p32
sS'__unicode__'
p33
S'<built-in method __unicode__ of exceptions.TypeError object>'
p34
sS'__delattr__'
p35
S"<method-wrapper '__delattr__' of exceptions.TypeError object>"
p36
sS'__subclasshook__'
p37
S'<built-in method __subclasshook__ of type object>'
p38
sS'__repr__'
p39
S"<method-wrapper '__repr__' of exceptions.TypeError object>"
p40
sS'args'
p41
S"('write() takes at least 2 arguments (1 given)',)"
p42
sS'__dict__'
p43
S'{}'
p44
sS'__sizeof__'
p45
S'<built-in method __sizeof__ of exceptions.TypeError object>'
p46
sS'__doc__'
p47
S"'Inappropriate argument type.'"
p48
sS'__init__'
p49
S"<method-wrapper '__init__' of exceptions.TypeError object>"
p50
sS'__new__'
p51
S'<built-in method __new__ of type object>'
p52
ssS'evalue'
p53
S'write() takes at least 2 arguments (1 given)'
p54
sS'request'
p55
ccopy_reg
_reconstructor
p56
(cgluon.html
BEAUTIFY
p57
c__builtin__
object
p58
NtRp59
(dp60
S'attributes'
p61
(dp62
sS'components'
p63
(lp64
g56
(cgluon.html
TABLE
p65
g58
NtRp66
(dp67
g61
(dp68
S'level'
p69
I5
ssS'parent'
p70
Nsg63
(lp71
g56
(cgluon.html
TR
p72
g58
NtRp73
(dp74
g61
(dp75
sg70
g66
sg63
(lp76
g56
(cgluon.html
TD
p77
g58
NtRp78
(dp79
g61
(dp80
S'_style'
p81
S'font-weight:bold;'
p82
ssg70
g73
sg63
(lp83
S'ajax'
p84
asbag56
(g77
g58
NtRp85
(dp86
g61
(dp87
S'_valign'
p88
S'top'
p89
ssg70
g73
sg63
(lp90
S':'
asbag56
(g77
g58
NtRp91
(dp92
g61
(dp93
sg70
g73
sg63
(lp94
g56
(g57
g58
NtRp95
(dp96
g61
(dp97
g69
I5
ssg70
g91
sg63
(lp98
S'False'
p99
asbasbasbag56
(g72
g58
NtRp100
(dp101
g61
(dp102
sg70
g66
sg63
(lp103
g56
(g77
g58
NtRp104
(dp105
g61
(dp106
g81
g82
ssg70
g100
sg63
(lp107
S'application'
p108
asbag56
(g77
g58
NtRp109
(dp110
g61
(dp111
g88
g89
ssg70
g100
sg63
(lp112
S':'
asbag56
(g77
g58
NtRp113
(dp114
g61
(dp115
sg70
g100
sg63
(lp116
g56
(g57
g58
NtRp117
(dp118
g61
(dp119
g69
I5
ssg70
g113
sg63
(lp120
S'Music_Repo'
p121
asbasbasbag56
(g72
g58
NtRp122
(dp123
g61
(dp124
sg70
g66
sg63
(lp125
g56
(g77
g58
NtRp126
(dp127
g61
(dp128
g81
g82
ssg70
g122
sg63
(lp129
g41
asbag56
(g77
g58
NtRp130
(dp131
g61
(dp132
g88
g89
ssg70
g122
sg63
(lp133
S':'
asbag56
(g77
g58
NtRp134
(dp135
g61
(dp136
sg70
g122
sg63
(lp137
g56
(g57
g58
NtRp138
(dp139
g61
(dp140
g69
I5
ssg70
g134
sg63
(lp141
g56
(g65
g58
NtRp142
(dp143
g61
(dp144
g69
I4
ssg70
Nsg63
(lp145
sbasbasbasbag56
(g72
g58
NtRp146
(dp147
g61
(dp148
sg70
g66
sg63
(lp149
g56
(g77
g58
NtRp150
(dp151
g61
(dp152
g81
g82
ssg70
g146
sg63
(lp153
S'body'
p154
asbag56
(g77
g58
NtRp155
(dp156
g61
(dp157
g88
g89
ssg70
g146
sg63
(lp158
S':'
asbag56
(g77
g58
NtRp159
(dp160
g61
(dp161
sg70
g146
sg63
(lp162
g56
(g57
g58
NtRp163
(dp164
g61
(dp165
g69
I5
ssg70
g159
sg63
(lp166
S'<cStringIO.StringO object at 0xad8ef20>'
p167
asbasbasbag56
(g72
g58
NtRp168
(dp169
g61
(dp170
sg70
g66
sg63
(lp171
g56
(g77
g58
NtRp172
(dp173
g61
(dp174
g81
g82
ssg70
g168
sg63
(lp175
S'client'
p176
asbag56
(g77
g58
NtRp177
(dp178
g61
(dp179
g88
g89
ssg70
g168
sg63
(lp180
S':'
asbag56
(g77
g58
NtRp181
(dp182
g61
(dp183
sg70
g168
sg63
(lp184
g56
(g57
g58
NtRp185
(dp186
g61
(dp187
g69
I5
ssg70
g181
sg63
(lp188
S'127.0.0.1'
p189
asbasbasbag56
(g72
g58
NtRp190
(dp191
g61
(dp192
sg70
g66
sg63
(lp193
g56
(g77
g58
NtRp194
(dp195
g61
(dp196
g81
g82
ssg70
g190
sg63
(lp197
S'controller'
p198
asbag56
(g77
g58
NtRp199
(dp200
g61
(dp201
g88
g89
ssg70
g190
sg63
(lp202
S':'
asbag56
(g77
g58
NtRp203
(dp204
g61
(dp205
sg70
g190
sg63
(lp206
g56
(g57
g58
NtRp207
(dp208
g61
(dp209
g69
I5
ssg70
g203
sg63
(lp210
S'default'
p211
asbasbasbag56
(g72
g58
NtRp212
(dp213
g61
(dp214
sg70
g66
sg63
(lp215
g56
(g77
g58
NtRp216
(dp217
g61
(dp218
g81
g82
ssg70
g212
sg63
(lp219
S'cookies'
p220
asbag56
(g77
g58
NtRp221
(dp222
g61
(dp223
g88
g89
ssg70
g212
sg63
(lp224
S':'
asbag56
(g77
g58
NtRp225
(dp226
g61
(dp227
sg70
g212
sg63
(lp228
g56
(g57
g58
NtRp229
(dp230
g61
(dp231
g69
I5
ssg70
g225
sg63
(lp232
g56
(g65
g58
NtRp233
(dp234
g61
(dp235
g69
I4
ssg70
Nsg63
(lp236
g56
(g72
g58
NtRp237
(dp238
g61
(dp239
sg70
g233
sg63
(lp240
g56
(g77
g58
NtRp241
(dp242
g61
(dp243
g81
g82
ssg70
g237
sg63
(lp244
S'session_id_admin'
p245
asbag56
(g77
g58
NtRp246
(dp247
g61
(dp248
g88
g89
ssg70
g237
sg63
(lp249
S':'
asbag56
(g77
g58
NtRp250
(dp251
g61
(dp252
sg70
g237
sg63
(lp253
g56
(g57
g58
NtRp254
(dp255
g61
(dp256
g69
I4
ssg70
g250
sg63
(lp257
g56
(g65
g58
NtRp258
(dp259
g61
(dp260
g69
I3
ssg70
Nsg63
(lp261
g56
(g72
g58
NtRp262
(dp263
g61
(dp264
sg70
g258
sg63
(lp265
g56
(g77
g58
NtRp266
(dp267
g61
(dp268
g81
g82
ssg70
g262
sg63
(lp269
S'comment'
p270
asbag56
(g77
g58
NtRp271
(dp272
g61
(dp273
g88
g89
ssg70
g262
sg63
(lp274
S':'
asbag56
(g77
g58
NtRp275
(dp276
g61
(dp277
sg70
g262
sg63
(lp278
g56
(g57
g58
NtRp279
(dp280
g61
(dp281
g69
I3
ssg70
g275
sg63
(lp282
S''
asbasbasbag56
(g72
g58
NtRp283
(dp284
g61
(dp285
sg70
g258
sg63
(lp286
g56
(g77
g58
NtRp287
(dp288
g61
(dp289
g81
g82
ssg70
g283
sg63
(lp290
S'domain'
p291
asbag56
(g77
g58
NtRp292
(dp293
g61
(dp294
g88
g89
ssg70
g283
sg63
(lp295
S':'
asbag56
(g77
g58
NtRp296
(dp297
g61
(dp298
sg70
g283
sg63
(lp299
g56
(g57
g58
NtRp300
(dp301
g61
(dp302
g69
I3
ssg70
g296
sg63
(lp303
S''
asbasbasbag56
(g72
g58
NtRp304
(dp305
g61
(dp306
sg70
g258
sg63
(lp307
g56
(g77
g58
NtRp308
(dp309
g61
(dp310
g81
g82
ssg70
g304
sg63
(lp311
S'expires'
p312
asbag56
(g77
g58
NtRp313
(dp314
g61
(dp315
g88
g89
ssg70
g304
sg63
(lp316
S':'
asbag56
(g77
g58
NtRp317
(dp318
g61
(dp319
sg70
g304
sg63
(lp320
g56
(g57
g58
NtRp321
(dp322
g61
(dp323
g69
I3
ssg70
g317
sg63
(lp324
S''
asbasbasbag56
(g72
g58
NtRp325
(dp326
g61
(dp327
sg70
g258
sg63
(lp328
g56
(g77
g58
NtRp329
(dp330
g61
(dp331
g81
g82
ssg70
g325
sg63
(lp332
S'httponly'
p333
asbag56
(g77
g58
NtRp334
(dp335
g61
(dp336
g88
g89
ssg70
g325
sg63
(lp337
S':'
asbag56
(g77
g58
NtRp338
(dp339
g61
(dp340
sg70
g325
sg63
(lp341
g56
(g57
g58
NtRp342
(dp343
g61
(dp344
g69
I3
ssg70
g338
sg63
(lp345
S''
asbasbasbag56
(g72
g58
NtRp346
(dp347
g61
(dp348
sg70
g258
sg63
(lp349
g56
(g77
g58
NtRp350
(dp351
g61
(dp352
g81
g82
ssg70
g346
sg63
(lp353
S'max-age'
p354
asbag56
(g77
g58
NtRp355
(dp356
g61
(dp357
g88
g89
ssg70
g346
sg63
(lp358
S':'
asbag56
(g77
g58
NtRp359
(dp360
g61
(dp361
sg70
g346
sg63
(lp362
g56
(g57
g58
NtRp363
(dp364
g61
(dp365
g69
I3
ssg70
g359
sg63
(lp366
S''
asbasbasbag56
(g72
g58
NtRp367
(dp368
g61
(dp369
sg70
g258
sg63
(lp370
g56
(g77
g58
NtRp371
(dp372
g61
(dp373
g81
g82
ssg70
g367
sg63
(lp374
S'path'
p375
asbag56
(g77
g58
NtRp376
(dp377
g61
(dp378
g88
g89
ssg70
g367
sg63
(lp379
S':'
asbag56
(g77
g58
NtRp380
(dp381
g61
(dp382
sg70
g367
sg63
(lp383
g56
(g57
g58
NtRp384
(dp385
g61
(dp386
g69
I3
ssg70
g380
sg63
(lp387
S''
asbasbasbag56
(g72
g58
NtRp388
(dp389
g61
(dp390
sg70
g258
sg63
(lp391
g56
(g77
g58
NtRp392
(dp393
g61
(dp394
g81
g82
ssg70
g388
sg63
(lp395
S'secure'
p396
asbag56
(g77
g58
NtRp397
(dp398
g61
(dp399
g88
g89
ssg70
g388
sg63
(lp400
S':'
asbag56
(g77
g58
NtRp401
(dp402
g61
(dp403
sg70
g388
sg63
(lp404
g56
(g57
g58
NtRp405
(dp406
g61
(dp407
g69
I3
ssg70
g401
sg63
(lp408
S''
asbasbasbag56
(g72
g58
NtRp409
(dp410
g61
(dp411
sg70
g258
sg63
(lp412
g56
(g77
g58
NtRp413
(dp414
g61
(dp415
g81
g82
ssg70
g409
sg63
(lp416
S'version'
p417
asbag56
(g77
g58
NtRp418
(dp419
g61
(dp420
g88
g89
ssg70
g409
sg63
(lp421
S':'
asbag56
(g77
g58
NtRp422
(dp423
g61
(dp424
sg70
g409
sg63
(lp425
g56
(g57
g58
NtRp426
(dp427
g61
(dp428
g69
I3
ssg70
g422
sg63
(lp429
S''
asbasbasbasbasbasbasbag56
(g72
g58
NtRp430
(dp431
g61
(dp432
sg70
g233
sg63
(lp433
g56
(g77
g58
NtRp434
(dp435
g61
(dp436
g81
g82
ssg70
g430
sg63
(lp437
S'session_id_music_repo'
p438
asbag56
(g77
g58
NtRp439
(dp440
g61
(dp441
g88
g89
ssg70
g430
sg63
(lp442
S':'
asbag56
(g77
g58
NtRp443
(dp444
g61
(dp445
sg70
g430
sg63
(lp446
g56
(g57
g58
NtRp447
(dp448
g61
(dp449
g69
I4
ssg70
g443
sg63
(lp450
g56
(g65
g58
NtRp451
(dp452
g61
(dp453
g69
I3
ssg70
Nsg63
(lp454
g56
(g72
g58
NtRp455
(dp456
g61
(dp457
sg70
g451
sg63
(lp458
g56
(g77
g58
NtRp459
(dp460
g61
(dp461
g81
g82
ssg70
g455
sg63
(lp462
g270
asbag56
(g77
g58
NtRp463
(dp464
g61
(dp465
g88
g89
ssg70
g455
sg63
(lp466
S':'
asbag56
(g77
g58
NtRp467
(dp468
g61
(dp469
sg70
g455
sg63
(lp470
g56
(g57
g58
NtRp471
(dp472
g61
(dp473
g69
I3
ssg70
g467
sg63
(lp474
S''
asbasbasbag56
(g72
g58
NtRp475
(dp476
g61
(dp477
sg70
g451
sg63
(lp478
g56
(g77
g58
NtRp479
(dp480
g61
(dp481
g81
g82
ssg70
g475
sg63
(lp482
g291
asbag56
(g77
g58
NtRp483
(dp484
g61
(dp485
g88
g89
ssg70
g475
sg63
(lp486
S':'
asbag56
(g77
g58
NtRp487
(dp488
g61
(dp489
sg70
g475
sg63
(lp490
g56
(g57
g58
NtRp491
(dp492
g61
(dp493
g69
I3
ssg70
g487
sg63
(lp494
S''
asbasbasbag56
(g72
g58
NtRp495
(dp496
g61
(dp497
sg70
g451
sg63
(lp498
g56
(g77
g58
NtRp499
(dp500
g61
(dp501
g81
g82
ssg70
g495
sg63
(lp502
g312
asbag56
(g77
g58
NtRp503
(dp504
g61
(dp505
g88
g89
ssg70
g495
sg63
(lp506
S':'
asbag56
(g77
g58
NtRp507
(dp508
g61
(dp509
sg70
g495
sg63
(lp510
g56
(g57
g58
NtRp511
(dp512
g61
(dp513
g69
I3
ssg70
g507
sg63
(lp514
S''
asbasbasbag56
(g72
g58
NtRp515
(dp516
g61
(dp517
sg70
g451
sg63
(lp518
g56
(g77
g58
NtRp519
(dp520
g61
(dp521
g81
g82
ssg70
g515
sg63
(lp522
g333
asbag56
(g77
g58
NtRp523
(dp524
g61
(dp525
g88
g89
ssg70
g515
sg63
(lp526
S':'
asbag56
(g77
g58
NtRp527
(dp528
g61
(dp529
sg70
g515
sg63
(lp530
g56
(g57
g58
NtRp531
(dp532
g61
(dp533
g69
I3
ssg70
g527
sg63
(lp534
S''
asbasbasbag56
(g72
g58
NtRp535
(dp536
g61
(dp537
sg70
g451
sg63
(lp538
g56
(g77
g58
NtRp539
(dp540
g61
(dp541
g81
g82
ssg70
g535
sg63
(lp542
g354
asbag56
(g77
g58
NtRp543
(dp544
g61
(dp545
g88
g89
ssg70
g535
sg63
(lp546
S':'
asbag56
(g77
g58
NtRp547
(dp548
g61
(dp549
sg70
g535
sg63
(lp550
g56
(g57
g58
NtRp551
(dp552
g61
(dp553
g69
I3
ssg70
g547
sg63
(lp554
S''
asbasbasbag56
(g72
g58
NtRp555
(dp556
g61
(dp557
sg70
g451
sg63
(lp558
g56
(g77
g58
NtRp559
(dp560
g61
(dp561
g81
g82
ssg70
g555
sg63
(lp562
g375
asbag56
(g77
g58
NtRp563
(dp564
g61
(dp565
g88
g89
ssg70
g555
sg63
(lp566
S':'
asbag56
(g77
g58
NtRp567
(dp568
g61
(dp569
sg70
g555
sg63
(lp570
g56
(g57
g58
NtRp571
(dp572
g61
(dp573
g69
I3
ssg70
g567
sg63
(lp574
S''
asbasbasbag56
(g72
g58
NtRp575
(dp576
g61
(dp577
sg70
g451
sg63
(lp578
g56
(g77
g58
NtRp579
(dp580
g61
(dp581
g81
g82
ssg70
g575
sg63
(lp582
g396
asbag56
(g77
g58
NtRp583
(dp584
g61
(dp585
g88
g89
ssg70
g575
sg63
(lp586
S':'
asbag56
(g77
g58
NtRp587
(dp588
g61
(dp589
sg70
g575
sg63
(lp590
g56
(g57
g58
NtRp591
(dp592
g61
(dp593
g69
I3
ssg70
g587
sg63
(lp594
S''
asbasbasbag56
(g72
g58
NtRp595
(dp596
g61
(dp597
sg70
g451
sg63
(lp598
g56
(g77
g58
NtRp599
(dp600
g61
(dp601
g81
g82
ssg70
g595
sg63
(lp602
g417
asbag56
(g77
g58
NtRp603
(dp604
g61
(dp605
g88
g89
ssg70
g595
sg63
(lp606
S':'
asbag56
(g77
g58
NtRp607
(dp608
g61
(dp609
sg70
g595
sg63
(lp610
g56
(g57
g58
NtRp611
(dp612
g61
(dp613
g69
I3
ssg70
g607
sg63
(lp614
S''
asbasbasbasbasbasbasbag56
(g72
g58
NtRp615
(dp616
g61
(dp617
sg70
g233
sg63
(lp618
g56
(g77
g58
NtRp619
(dp620
g61
(dp621
g81
g82
ssg70
g615
sg63
(lp622
S'session_id_welcome'
p623
asbag56
(g77
g58
NtRp624
(dp625
g61
(dp626
g88
g89
ssg70
g615
sg63
(lp627
S':'
asbag56
(g77
g58
NtRp628
(dp629
g61
(dp630
sg70
g615
sg63
(lp631
g56
(g57
g58
NtRp632
(dp633
g61
(dp634
g69
I4
ssg70
g628
sg63
(lp635
g56
(g65
g58
NtRp636
(dp637
g61
(dp638
g69
I3
ssg70
Nsg63
(lp639
g56
(g72
g58
NtRp640
(dp641
g61
(dp642
sg70
g636
sg63
(lp643
g56
(g77
g58
NtRp644
(dp645
g61
(dp646
g81
g82
ssg70
g640
sg63
(lp647
g270
asbag56
(g77
g58
NtRp648
(dp649
g61
(dp650
g88
g89
ssg70
g640
sg63
(lp651
S':'
asbag56
(g77
g58
NtRp652
(dp653
g61
(dp654
sg70
g640
sg63
(lp655
g56
(g57
g58
NtRp656
(dp657
g61
(dp658
g69
I3
ssg70
g652
sg63
(lp659
S''
asbasbasbag56
(g72
g58
NtRp660
(dp661
g61
(dp662
sg70
g636
sg63
(lp663
g56
(g77
g58
NtRp664
(dp665
g61
(dp666
g81
g82
ssg70
g660
sg63
(lp667
g291
asbag56
(g77
g58
NtRp668
(dp669
g61
(dp670
g88
g89
ssg70
g660
sg63
(lp671
S':'
asbag56
(g77
g58
NtRp672
(dp673
g61
(dp674
sg70
g660
sg63
(lp675
g56
(g57
g58
NtRp676
(dp677
g61
(dp678
g69
I3
ssg70
g672
sg63
(lp679
S''
asbasbasbag56
(g72
g58
NtRp680
(dp681
g61
(dp682
sg70
g636
sg63
(lp683
g56
(g77
g58
NtRp684
(dp685
g61
(dp686
g81
g82
ssg70
g680
sg63
(lp687
g312
asbag56
(g77
g58
NtRp688
(dp689
g61
(dp690
g88
g89
ssg70
g680
sg63
(lp691
S':'
asbag56
(g77
g58
NtRp692
(dp693
g61
(dp694
sg70
g680
sg63
(lp695
g56
(g57
g58
NtRp696
(dp697
g61
(dp698
g69
I3
ssg70
g692
sg63
(lp699
S''
asbasbasbag56
(g72
g58
NtRp700
(dp701
g61
(dp702
sg70
g636
sg63
(lp703
g56
(g77
g58
NtRp704
(dp705
g61
(dp706
g81
g82
ssg70
g700
sg63
(lp707
g333
asbag56
(g77
g58
NtRp708
(dp709
g61
(dp710
g88
g89
ssg70
g700
sg63
(lp711
S':'
asbag56
(g77
g58
NtRp712
(dp713
g61
(dp714
sg70
g700
sg63
(lp715
g56
(g57
g58
NtRp716
(dp717
g61
(dp718
g69
I3
ssg70
g712
sg63
(lp719
S''
asbasbasbag56
(g72
g58
NtRp720
(dp721
g61
(dp722
sg70
g636
sg63
(lp723
g56
(g77
g58
NtRp724
(dp725
g61
(dp726
g81
g82
ssg70
g720
sg63
(lp727
g354
asbag56
(g77
g58
NtRp728
(dp729
g61
(dp730
g88
g89
ssg70
g720
sg63
(lp731
S':'
asbag56
(g77
g58
NtRp732
(dp733
g61
(dp734
sg70
g720
sg63
(lp735
g56
(g57
g58
NtRp736
(dp737
g61
(dp738
g69
I3
ssg70
g732
sg63
(lp739
S''
asbasbasbag56
(g72
g58
NtRp740
(dp741
g61
(dp742
sg70
g636
sg63
(lp743
g56
(g77
g58
NtRp744
(dp745
g61
(dp746
g81
g82
ssg70
g740
sg63
(lp747
g375
asbag56
(g77
g58
NtRp748
(dp749
g61
(dp750
g88
g89
ssg70
g740
sg63
(lp751
S':'
asbag56
(g77
g58
NtRp752
(dp753
g61
(dp754
sg70
g740
sg63
(lp755
g56
(g57
g58
NtRp756
(dp757
g61
(dp758
g69
I3
ssg70
g752
sg63
(lp759
S''
asbasbasbag56
(g72
g58
NtRp760
(dp761
g61
(dp762
sg70
g636
sg63
(lp763
g56
(g77
g58
NtRp764
(dp765
g61
(dp766
g81
g82
ssg70
g760
sg63
(lp767
g396
asbag56
(g77
g58
NtRp768
(dp769
g61
(dp770
g88
g89
ssg70
g760
sg63
(lp771
S':'
asbag56
(g77
g58
NtRp772
(dp773
g61
(dp774
sg70
g760
sg63
(lp775
g56
(g57
g58
NtRp776
(dp777
g61
(dp778
g69
I3
ssg70
g772
sg63
(lp779
S''
asbasbasbag56
(g72
g58
NtRp780
(dp781
g61
(dp782
sg70
g636
sg63
(lp783
g56
(g77
g58
NtRp784
(dp785
g61
(dp786
g81
g82
ssg70
g780
sg63
(lp787
g417
asbag56
(g77
g58
NtRp788
(dp789
g61
(dp790
g88
g89
ssg70
g780
sg63
(lp791
S':'
asbag56
(g77
g58
NtRp792
(dp793
g61
(dp794
sg70
g780
sg63
(lp795
g56
(g57
g58
NtRp796
(dp797
g61
(dp798
g69
I3
ssg70
g792
sg63
(lp799
S''
asbasbasbasbasbasbasbasbasbasbasbag56
(g72
g58
NtRp800
(dp801
g61
(dp802
sg70
g66
sg63
(lp803
g56
(g77
g58
NtRp804
(dp805
g61
(dp806
g81
g82
ssg70
g800
sg63
(lp807
S'env'
p808
asbag56
(g77
g58
NtRp809
(dp810
g61
(dp811
g88
g89
ssg70
g800
sg63
(lp812
S':'
asbag56
(g77
g58
NtRp813
(dp814
g61
(dp815
sg70
g800
sg63
(lp816
g56
(g57
g58
NtRp817
(dp818
g61
(dp819
g69
I5
ssg70
g813
sg63
(lp820
g56
(g65
g58
NtRp821
(dp822
g61
(dp823
g69
I4
ssg70
Nsg63
(lp824
g56
(g72
g58
NtRp825
(dp826
g61
(dp827
sg70
g821
sg63
(lp828
g56
(g77
g58
NtRp829
(dp830
g61
(dp831
g81
g82
ssg70
g825
sg63
(lp832
S'app_folders'
p833
asbag56
(g77
g58
NtRp834
(dp835
g61
(dp836
g88
g89
ssg70
g825
sg63
(lp837
S':'
asbag56
(g77
g58
NtRp838
(dp839
g61
(dp840
sg70
g825
sg63
(lp841
g56
(g57
g58
NtRp842
(dp843
g61
(dp844
g69
I4
ssg70
g838
sg63
(lp845
S"set(['/home/vsvah/Desktop/Coursework/Sem3/SSAD/web2py/applications/Music_Repo/', '/home/vsvah/Desktop/Coursework/Sem3/SSAD/web2py/applications/admin/', '/home/vsvah/Desktop/Coursework/Sem3/SSAD/web2py/applications/welcome/'])"
p846
asbasbasbag56
(g72
g58
NtRp847
(dp848
g61
(dp849
sg70
g821
sg63
(lp850
g56
(g77
g58
NtRp851
(dp852
g61
(dp853
g81
g82
ssg70
g847
sg63
(lp854
S'applications_parent'
p855
asbag56
(g77
g58
NtRp856
(dp857
g61
(dp858
g88
g89
ssg70
g847
sg63
(lp859
S':'
asbag56
(g77
g58
NtRp860
(dp861
g61
(dp862
sg70
g847
sg63
(lp863
g56
(g57
g58
NtRp864
(dp865
g61
(dp866
g69
I4
ssg70
g860
sg63
(lp867
S'/home/vsvah/Desktop/Coursework/Sem3/SSAD/web2py'
p868
asbasbasbag56
(g72
g58
NtRp869
(dp870
g61
(dp871
sg70
g821
sg63
(lp872
g56
(g77
g58
NtRp873
(dp874
g61
(dp875
g81
g82
ssg70
g869
sg63
(lp876
S'cmd_args'
p877
asbag56
(g77
g58
NtRp878
(dp879
g61
(dp880
g88
g89
ssg70
g869
sg63
(lp881
S':'
asbag56
(g77
g58
NtRp882
(dp883
g61
(dp884
sg70
g869
sg63
(lp885
g56
(g57
g58
NtRp886
(dp887
g61
(dp888
g69
I4
ssg70
g882
sg63
(lp889
g56
(g65
g58
NtRp890
(dp891
g61
(dp892
g69
I3
ssg70
Nsg63
(lp893
sbasbasbasbag56
(g72
g58
NtRp894
(dp895
g61
(dp896
sg70
g821
sg63
(lp897
g56
(g77
g58
NtRp898
(dp899
g61
(dp900
g81
g82
ssg70
g894
sg63
(lp901
S'cmd_options'
p902
asbag56
(g77
g58
NtRp903
(dp904
g61
(dp905
g88
g89
ssg70
g894
sg63
(lp906
S':'
asbag56
(g77
g58
NtRp907
(dp908
g61
(dp909
sg70
g894
sg63
(lp910
g56
(g57
g58
NtRp911
(dp912
g61
(dp913
g69
I4
ssg70
g907
sg63
(lp914
S"<Values at 0xa17704c: {'verbose': False, 'ip': '127.0.0.1', 'shutdown_timeout': 5, 'taskbar': False, 'port': 8000, 'maxthreads': None, 'softcron': False, 'server_name': 'vsvah-laptop', 'bpython': False, 'nogui': False, 'nocron': False, 'extcron': False, 'debuglevel': 30, 'test': None, 'folder': '/home/vsvah/Desktop/Coursework/Sem3/SSAD/web2py', 'config': '', 'import_models': False, 'winservice': '', 'shell': None, 'run': '', 'log_filename': 'httpserver.log', 'args': [''], 'profiler_filename': None, 'ssl_private_key': '', 'password': '<ask>', 'request_queue_size': 5, 'ssl_certificate': '', 'cronjob': False, 'plain': False, 'quiet': False, 'interfaces': None, 'minthreads': None, 'timeout': 10, 'numthreads': None, 'nobanner': False, 'pid_filename': 'httpserver.pid'}>"
p915
asbasbasbag56
(g72
g58
NtRp916
(dp917
g61
(dp918
sg70
g821
sg63
(lp919
g56
(g77
g58
NtRp920
(dp921
g61
(dp922
g81
g82
ssg70
g916
sg63
(lp923
S'db_sessions'
p924
asbag56
(g77
g58
NtRp925
(dp926
g61
(dp927
g88
g89
ssg70
g916
sg63
(lp928
S':'
asbag56
(g77
g58
NtRp929
(dp930
g61
(dp931
sg70
g916
sg63
(lp932
g56
(g57
g58
NtRp933
(dp934
g61
(dp935
g69
I4
ssg70
g929
sg63
(lp936
S'set([])'
p937
asbasbasbag56
(g72
g58
NtRp938
(dp939
g61
(dp940
sg70
g821
sg63
(lp941
g56
(g77
g58
NtRp942
(dp943
g61
(dp944
g81
g82
ssg70
g938
sg63
(lp945
S'debugging'
p946
asbag56
(g77
g58
NtRp947
(dp948
g61
(dp949
g88
g89
ssg70
g938
sg63
(lp950
S':'
asbag56
(g77
g58
NtRp951
(dp952
g61
(dp953
sg70
g938
sg63
(lp954
g56
(g57
g58
NtRp955
(dp956
g61
(dp957
g69
I4
ssg70
g951
sg63
(lp958
g99
asbasbasbag56
(g72
g58
NtRp959
(dp960
g61
(dp961
sg70
g821
sg63
(lp962
g56
(g77
g58
NtRp963
(dp964
g61
(dp965
g81
g82
ssg70
g959
sg63
(lp966
S'gluon_parent'
p967
asbag56
(g77
g58
NtRp968
(dp969
g61
(dp970
g88
g89
ssg70
g959
sg63
(lp971
S':'
asbag56
(g77
g58
NtRp972
(dp973
g61
(dp974
sg70
g959
sg63
(lp975
g56
(g57
g58
NtRp976
(dp977
g61
(dp978
g69
I4
ssg70
g972
sg63
(lp979
S'/home/vsvah/Desktop/Coursework/Sem3/SSAD/web2py'
p980
asbasbasbag56
(g72
g58
NtRp981
(dp982
g61
(dp983
sg70
g821
sg63
(lp984
g56
(g77
g58
NtRp985
(dp986
g61
(dp987
g81
g82
ssg70
g981
sg63
(lp988
S'http_accept'
p989
asbag56
(g77
g58
NtRp990
(dp991
g61
(dp992
g88
g89
ssg70
g981
sg63
(lp993
S':'
asbag56
(g77
g58
NtRp994
(dp995
g61
(dp996
sg70
g981
sg63
(lp997
g56
(g57
g58
NtRp998
(dp999
g61
(dp1000
g69
I4
ssg70
g994
sg63
(lp1001
S'text/html,application/xhtml+xml,application/xml;q=0.9,*/*;q=0.8'
p1002
asbasbasbag56
(g72
g58
NtRp1003
(dp1004
g61
(dp1005
sg70
g821
sg63
(lp1006
g56
(g77
g58
NtRp1007
(dp1008
g61
(dp1009
g81
g82
ssg70
g1003
sg63
(lp1010
S'http_accept_charset'
p1011
asbag56
(g77
g58
NtRp1012
(dp1013
g61
(dp1014
g88
g89
ssg70
g1003
sg63
(lp1015
S':'
asbag56
(g77
g58
NtRp1016
(dp1017
g61
(dp1018
sg70
g1003
sg63
(lp1019
g56
(g57
g58
NtRp1020
(dp1021
g61
(dp1022
g69
I4
ssg70
g1016
sg63
(lp1023
S'ISO-8859-1,utf-8;q=0.7,*;q=0.7'
p1024
asbasbasbag56
(g72
g58
NtRp1025
(dp1026
g61
(dp1027
sg70
g821
sg63
(lp1028
g56
(g77
g58
NtRp1029
(dp1030
g61
(dp1031
g81
g82
ssg70
g1025
sg63
(lp1032
S'http_accept_encoding'
p1033
asbag56
(g77
g58
NtRp1034
(dp1035
g61
(dp1036
g88
g89
ssg70
g1025
sg63
(lp1037
S':'
asbag56
(g77
g58
NtRp1038
(dp1039
g61
(dp1040
sg70
g1025
sg63
(lp1041
g56
(g57
g58
NtRp1042
(dp1043
g61
(dp1044
g69
I4
ssg70
g1038
sg63
(lp1045
S'gzip,deflate'
p1046
asbasbasbag56
(g72
g58
NtRp1047
(dp1048
g61
(dp1049
sg70
g821
sg63
(lp1050
g56
(g77
g58
NtRp1051
(dp1052
g61
(dp1053
g81
g82
ssg70
g1047
sg63
(lp1054
S'http_accept_language'
p1055
asbag56
(g77
g58
NtRp1056
(dp1057
g61
(dp1058
g88
g89
ssg70
g1047
sg63
(lp1059
S':'
asbag56
(g77
g58
NtRp1060
(dp1061
g61
(dp1062
sg70
g1047
sg63
(lp1063
g56
(g57
g58
NtRp1064
(dp1065
g61
(dp1066
g69
I4
ssg70
g1060
sg63
(lp1067
S'en-us,en;q=0.5'
p1068
asbasbasbag56
(g72
g58
NtRp1069
(dp1070
g61
(dp1071
sg70
g821
sg63
(lp1072
g56
(g77
g58
NtRp1073
(dp1074
g61
(dp1075
g81
g82
ssg70
g1069
sg63
(lp1076
S'http_cache_control'
p1077
asbag56
(g77
g58
NtRp1078
(dp1079
g61
(dp1080
g88
g89
ssg70
g1069
sg63
(lp1081
S':'
asbag56
(g77
g58
NtRp1082
(dp1083
g61
(dp1084
sg70
g1069
sg63
(lp1085
g56
(g57
g58
NtRp1086
(dp1087
g61
(dp1088
g69
I4
ssg70
g1082
sg63
(lp1089
S'max-age=0'
p1090
asbasbasbag56
(g72
g58
NtRp1091
(dp1092
g61
(dp1093
sg70
g821
sg63
(lp1094
g56
(g77
g58
NtRp1095
(dp1096
g61
(dp1097
g81
g82
ssg70
g1091
sg63
(lp1098
S'http_connection'
p1099
asbag56
(g77
g58
NtRp1100
(dp1101
g61
(dp1102
g88
g89
ssg70
g1091
sg63
(lp1103
S':'
asbag56
(g77
g58
NtRp1104
(dp1105
g61
(dp1106
sg70
g1091
sg63
(lp1107
g56
(g57
g58
NtRp1108
(dp1109
g61
(dp1110
g69
I4
ssg70
g1104
sg63
(lp1111
S'keep-alive'
p1112
asbasbasbag56
(g72
g58
NtRp1113
(dp1114
g61
(dp1115
sg70
g821
sg63
(lp1116
g56
(g77
g58
NtRp1117
(dp1118
g61
(dp1119
g81
g82
ssg70
g1113
sg63
(lp1120
S'http_cookie'
p1121
asbag56
(g77
g58
NtRp1122
(dp1123
g61
(dp1124
g88
g89
ssg70
g1113
sg63
(lp1125
S':'
asbag56
(g77
g58
NtRp1126
(dp1127
g61
(dp1128
sg70
g1113
sg63
(lp1129
g56
(g57
g58
NtRp1130
(dp1131
g61
(dp1132
g69
I4
ssg70
g1126
sg63
(lp1133
S'session_id_welcome=127.0.0.1-4768e59f-be37-4bf8-bfff-bc793ba4c0eb; session_id_admin=127.0.0.1-e201a2ca-01a5-46de-bfba-f3c3291e2f67; session_id_music_repo=127.0.0.1-0cc5ad7f-61ca-479a-933d-b13352216d24'
p1134
asbasbasbag56
(g72
g58
NtRp1135
(dp1136
g61
(dp1137
sg70
g821
sg63
(lp1138
g56
(g77
g58
NtRp1139
(dp1140
g61
(dp1141
g81
g82
ssg70
g1135
sg63
(lp1142
S'http_host'
p1143
asbag56
(g77
g58
NtRp1144
(dp1145
g61
(dp1146
g88
g89
ssg70
g1135
sg63
(lp1147
S':'
asbag56
(g77
g58
NtRp1148
(dp1149
g61
(dp1150
sg70
g1135
sg63
(lp1151
g56
(g57
g58
NtRp1152
(dp1153
g61
(dp1154
g69
I4
ssg70
g1148
sg63
(lp1155
S'127.0.0.1:8000'
p1156
asbasbasbag56
(g72
g58
NtRp1157
(dp1158
g61
(dp1159
sg70
g821
sg63
(lp1160
g56
(g77
g58
NtRp1161
(dp1162
g61
(dp1163
g81
g82
ssg70
g1157
sg63
(lp1164
S'http_keep_alive'
p1165
asbag56
(g77
g58
NtRp1166
(dp1167
g61
(dp1168
g88
g89
ssg70
g1157
sg63
(lp1169
S':'
asbag56
(g77
g58
NtRp1170
(dp1171
g61
(dp1172
sg70
g1157
sg63
(lp1173
g56
(g57
g58
NtRp1174
(dp1175
g61
(dp1176
g69
I4
ssg70
g1170
sg63
(lp1177
S'115'
p1178
asbasbasbag56
(g72
g58
NtRp1179
(dp1180
g61
(dp1181
sg70
g821
sg63
(lp1182
g56
(g77
g58
NtRp1183
(dp1184
g61
(dp1185
g81
g82
ssg70
g1179
sg63
(lp1186
S'http_referer'
p1187
asbag56
(g77
g58
NtRp1188
(dp1189
g61
(dp1190
g88
g89
ssg70
g1179
sg63
(lp1191
S':'
asbag56
(g77
g58
NtRp1192
(dp1193
g61
(dp1194
sg70
g1179
sg63
(lp1195
g56
(g57
g58
NtRp1196
(dp1197
g61
(dp1198
g69
I4
ssg70
g1192
sg63
(lp1199
S'http://127.0.0.1:8000/Music_Repo/default/movie_artist_query'
p1200
asbasbasbag56
(g72
g58
NtRp1201
(dp1202
g61
(dp1203
sg70
g821
sg63
(lp1204
g56
(g77
g58
NtRp1205
(dp1206
g61
(dp1207
g81
g82
ssg70
g1201
sg63
(lp1208
S'http_user_agent'
p1209
asbag56
(g77
g58
NtRp1210
(dp1211
g61
(dp1212
g88
g89
ssg70
g1201
sg63
(lp1213
S':'
asbag56
(g77
g58
NtRp1214
(dp1215
g61
(dp1216
sg70
g1201
sg63
(lp1217
g56
(g57
g58
NtRp1218
(dp1219
g61
(dp1220
g69
I4
ssg70
g1214
sg63
(lp1221
S'Mozilla/5.0 (X11; U; Linux i686; en-US; rv:1.9.2.16) Gecko/20110323 Ubuntu/10.04 (lucid) Firefox/3.6.16'
p1222
asbasbasbag56
(g72
g58
NtRp1223
(dp1224
g61
(dp1225
sg70
g821
sg63
(lp1226
g56
(g77
g58
NtRp1227
(dp1228
g61
(dp1229
g81
g82
ssg70
g1223
sg63
(lp1230
S'is_jython'
p1231
asbag56
(g77
g58
NtRp1232
(dp1233
g61
(dp1234
g88
g89
ssg70
g1223
sg63
(lp1235
S':'
asbag56
(g77
g58
NtRp1236
(dp1237
g61
(dp1238
sg70
g1223
sg63
(lp1239
g56
(g57
g58
NtRp1240
(dp1241
g61
(dp1242
g69
I4
ssg70
g1236
sg63
(lp1243
g99
asbasbasbag56
(g72
g58
NtRp1244
(dp1245
g61
(dp1246
sg70
g821
sg63
(lp1247
g56
(g77
g58
NtRp1248
(dp1249
g61
(dp1250
g81
g82
ssg70
g1244
sg63
(lp1251
S'path_info'
p1252
asbag56
(g77
g58
NtRp1253
(dp1254
g61
(dp1255
g88
g89
ssg70
g1244
sg63
(lp1256
S':'
asbag56
(g77
g58
NtRp1257
(dp1258
g61
(dp1259
sg70
g1244
sg63
(lp1260
g56
(g57
g58
NtRp1261
(dp1262
g61
(dp1263
g69
I4
ssg70
g1257
sg63
(lp1264
S'/Music_Repo/default/display_link'
p1265
asbasbasbag56
(g72
g58
NtRp1266
(dp1267
g61
(dp1268
sg70
g821
sg63
(lp1269
g56
(g77
g58
NtRp1270
(dp1271
g61
(dp1272
g81
g82
ssg70
g1266
sg63
(lp1273
S'query_string'
p1274
asbag56
(g77
g58
NtRp1275
(dp1276
g61
(dp1277
g88
g89
ssg70
g1266
sg63
(lp1278
S':'
asbag56
(g77
g58
NtRp1279
(dp1280
g61
(dp1281
sg70
g1266
sg63
(lp1282
g56
(g57
g58
NtRp1283
(dp1284
g61
(dp1285
g69
I4
ssg70
g1279
sg63
(lp1286
S''
asbasbasbag56
(g72
g58
NtRp1287
(dp1288
g61
(dp1289
sg70
g821
sg63
(lp1290
g56
(g77
g58
NtRp1291
(dp1292
g61
(dp1293
g81
g82
ssg70
g1287
sg63
(lp1294
S'remote_addr'
p1295
asbag56
(g77
g58
NtRp1296
(dp1297
g61
(dp1298
g88
g89
ssg70
g1287
sg63
(lp1299
S':'
asbag56
(g77
g58
NtRp1300
(dp1301
g61
(dp1302
sg70
g1287
sg63
(lp1303
g56
(g57
g58
NtRp1304
(dp1305
g61
(dp1306
g69
I4
ssg70
g1300
sg63
(lp1307
g189
asbasbasbag56
(g72
g58
NtRp1308
(dp1309
g61
(dp1310
sg70
g821
sg63
(lp1311
g56
(g77
g58
NtRp1312
(dp1313
g61
(dp1314
g81
g82
ssg70
g1308
sg63
(lp1315
S'remote_port'
p1316
asbag56
(g77
g58
NtRp1317
(dp1318
g61
(dp1319
g88
g89
ssg70
g1308
sg63
(lp1320
S':'
asbag56
(g77
g58
NtRp1321
(dp1322
g61
(dp1323
sg70
g1308
sg63
(lp1324
g56
(g57
g58
NtRp1325
(dp1326
g61
(dp1327
g69
I4
ssg70
g1321
sg63
(lp1328
S'54433'
p1329
asbasbasbag56
(g72
g58
NtRp1330
(dp1331
g61
(dp1332
sg70
g821
sg63
(lp1333
g56
(g77
g58
NtRp1334
(dp1335
g61
(dp1336
g81
g82
ssg70
g1330
sg63
(lp1337
S'request_method'
p1338
asbag56
(g77
g58
NtRp1339
(dp1340
g61
(dp1341
g88
g89
ssg70
g1330
sg63
(lp1342
S':'
asbag56
(g77
g58
NtRp1343
(dp1344
g61
(dp1345
sg70
g1330
sg63
(lp1346
g56
(g57
g58
NtRp1347
(dp1348
g61
(dp1349
g69
I4
ssg70
g1343
sg63
(lp1350
S'GET'
p1351
asbasbasbag56
(g72
g58
NtRp1352
(dp1353
g61
(dp1354
sg70
g821
sg63
(lp1355
g56
(g77
g58
NtRp1356
(dp1357
g61
(dp1358
g81
g82
ssg70
g1352
sg63
(lp1359
S'script_name'
p1360
asbag56
(g77
g58
NtRp1361
(dp1362
g61
(dp1363
g88
g89
ssg70
g1352
sg63
(lp1364
S':'
asbag56
(g77
g58
NtRp1365
(dp1366
g61
(dp1367
sg70
g1352
sg63
(lp1368
g56
(g57
g58
NtRp1369
(dp1370
g61
(dp1371
g69
I4
ssg70
g1365
sg63
(lp1372
S''
asbasbasbag56
(g72
g58
NtRp1373
(dp1374
g61
(dp1375
sg70
g821
sg63
(lp1376
g56
(g77
g58
NtRp1377
(dp1378
g61
(dp1379
g81
g82
ssg70
g1373
sg63
(lp1380
S'server_name'
p1381
asbag56
(g77
g58
NtRp1382
(dp1383
g61
(dp1384
g88
g89
ssg70
g1373
sg63
(lp1385
S':'
asbag56
(g77
g58
NtRp1386
(dp1387
g61
(dp1388
sg70
g1373
sg63
(lp1389
g56
(g57
g58
NtRp1390
(dp1391
g61
(dp1392
g69
I4
ssg70
g1386
sg63
(lp1393
S'vsvah-laptop'
p1394
asbasbasbag56
(g72
g58
NtRp1395
(dp1396
g61
(dp1397
sg70
g821
sg63
(lp1398
g56
(g77
g58
NtRp1399
(dp1400
g61
(dp1401
g81
g82
ssg70
g1395
sg63
(lp1402
S'server_port'
p1403
asbag56
(g77
g58
NtRp1404
(dp1405
g61
(dp1406
g88
g89
ssg70
g1395
sg63
(lp1407
S':'
asbag56
(g77
g58
NtRp1408
(dp1409
g61
(dp1410
sg70
g1395
sg63
(lp1411
g56
(g57
g58
NtRp1412
(dp1413
g61
(dp1414
g69
I4
ssg70
g1408
sg63
(lp1415
S'8000'
p1416
asbasbasbag56
(g72
g58
NtRp1417
(dp1418
g61
(dp1419
sg70
g821
sg63
(lp1420
g56
(g77
g58
NtRp1421
(dp1422
g61
(dp1423
g81
g82
ssg70
g1417
sg63
(lp1424
S'server_protocol'
p1425
asbag56
(g77
g58
NtRp1426
(dp1427
g61
(dp1428
g88
g89
ssg70
g1417
sg63
(lp1429
S':'
asbag56
(g77
g58
NtRp1430
(dp1431
g61
(dp1432
sg70
g1417
sg63
(lp1433
g56
(g57
g58
NtRp1434
(dp1435
g61
(dp1436
g69
I4
ssg70
g1430
sg63
(lp1437
S'HTTP/1.1'
p1438
asbasbasbag56
(g72
g58
NtRp1439
(dp1440
g61
(dp1441
sg70
g821
sg63
(lp1442
g56
(g77
g58
NtRp1443
(dp1444
g61
(dp1445
g81
g82
ssg70
g1439
sg63
(lp1446
S'server_software'
p1447
asbag56
(g77
g58
NtRp1448
(dp1449
g61
(dp1450
g88
g89
ssg70
g1439
sg63
(lp1451
S':'
asbag56
(g77
g58
NtRp1452
(dp1453
g61
(dp1454
sg70
g1439
sg63
(lp1455
g56
(g57
g58
NtRp1456
(dp1457
g61
(dp1458
g69
I4
ssg70
g1452
sg63
(lp1459
S'Rocket 1.2.2'
p1460
asbasbasbag56
(g72
g58
NtRp1461
(dp1462
g61
(dp1463
sg70
g821
sg63
(lp1464
g56
(g77
g58
NtRp1465
(dp1466
g61
(dp1467
g81
g82
ssg70
g1461
sg63
(lp1468
S'web2py_crontype'
p1469
asbag56
(g77
g58
NtRp1470
(dp1471
g61
(dp1472
g88
g89
ssg70
g1461
sg63
(lp1473
S':'
asbag56
(g77
g58
NtRp1474
(dp1475
g61
(dp1476
sg70
g1461
sg63
(lp1477
g56
(g57
g58
NtRp1478
(dp1479
g61
(dp1480
g69
I4
ssg70
g1474
sg63
(lp1481
S'hard'
p1482
asbasbasbag56
(g72
g58
NtRp1483
(dp1484
g61
(dp1485
sg70
g821
sg63
(lp1486
g56
(g77
g58
NtRp1487
(dp1488
g61
(dp1489
g81
g82
ssg70
g1483
sg63
(lp1490
S'web2py_path'
p1491
asbag56
(g77
g58
NtRp1492
(dp1493
g61
(dp1494
g88
g89
ssg70
g1483
sg63
(lp1495
S':'
asbag56
(g77
g58
NtRp1496
(dp1497
g61
(dp1498
sg70
g1483
sg63
(lp1499
g56
(g57
g58
NtRp1500
(dp1501
g61
(dp1502
g69
I4
ssg70
g1496
sg63
(lp1503
g868
asbasbasbag56
(g72
g58
NtRp1504
(dp1505
g61
(dp1506
sg70
g821
sg63
(lp1507
g56
(g77
g58
NtRp1508
(dp1509
g61
(dp1510
g81
g82
ssg70
g1504
sg63
(lp1511
S'web2py_version'
p1512
asbag56
(g77
g58
NtRp1513
(dp1514
g61
(dp1515
g88
g89
ssg70
g1504
sg63
(lp1516
S':'
asbag56
(g77
g58
NtRp1517
(dp1518
g61
(dp1519
sg70
g1504
sg63
(lp1520
g56
(g57
g58
NtRp1521
(dp1522
g61
(dp1523
g69
I4
ssg70
g1517
sg63
(lp1524
S'Version 1.98.2 (2011-08-04 00:47:09)\n'
p1525
asbasbasbag56
(g72
g58
NtRp1526
(dp1527
g61
(dp1528
sg70
g821
sg63
(lp1529
g56
(g77
g58
NtRp1530
(dp1531
g61
(dp1532
g81
g82
ssg70
g1526
sg63
(lp1533
S'wsgi_errors'
p1534
asbag56
(g77
g58
NtRp1535
(dp1536
g61
(dp1537
g88
g89
ssg70
g1526
sg63
(lp1538
S':'
asbag56
(g77
g58
NtRp1539
(dp1540
g61
(dp1541
sg70
g1526
sg63
(lp1542
g56
(g57
g58
NtRp1543
(dp1544
g61
(dp1545
g69
I4
ssg70
g1539
sg63
(lp1546
S"<open file '<stderr>', mode 'w' at 0xb78110d0>"
p1547
asbasbasbag56
(g72
g58
NtRp1548
(dp1549
g61
(dp1550
sg70
g821
sg63
(lp1551
g56
(g77
g58
NtRp1552
(dp1553
g61
(dp1554
g81
g82
ssg70
g1548
sg63
(lp1555
S'wsgi_file_wrapper'
p1556
asbag56
(g77
g58
NtRp1557
(dp1558
g61
(dp1559
g88
g89
ssg70
g1548
sg63
(lp1560
S':'
asbag56
(g77
g58
NtRp1561
(dp1562
g61
(dp1563
sg70
g1548
sg63
(lp1564
g56
(g57
g58
NtRp1565
(dp1566
g61
(dp1567
g69
I4
ssg70
g1561
sg63
(lp1568
S'<class gluon.rocket.FileWrapper at 0xa07f08c>'
p1569
asbasbasbag56
(g72
g58
NtRp1570
(dp1571
g61
(dp1572
sg70
g821
sg63
(lp1573
g56
(g77
g58
NtRp1574
(dp1575
g61
(dp1576
g81
g82
ssg70
g1570
sg63
(lp1577
S'wsgi_input'
p1578
asbag56
(g77
g58
NtRp1579
(dp1580
g61
(dp1581
g88
g89
ssg70
g1570
sg63
(lp1582
S':'
asbag56
(g77
g58
NtRp1583
(dp1584
g61
(dp1585
sg70
g1570
sg63
(lp1586
g56
(g57
g58
NtRp1587
(dp1588
g61
(dp1589
g69
I4
ssg70
g1583
sg63
(lp1590
S'<socket._fileobject object at 0xa6e556c>'
p1591
asbasbasbag56
(g72
g58
NtRp1592
(dp1593
g61
(dp1594
sg70
g821
sg63
(lp1595
g56
(g77
g58
NtRp1596
(dp1597
g61
(dp1598
g81
g82
ssg70
g1592
sg63
(lp1599
S'wsgi_multiprocess'
p1600
asbag56
(g77
g58
NtRp1601
(dp1602
g61
(dp1603
g88
g89
ssg70
g1592
sg63
(lp1604
S':'
asbag56
(g77
g58
NtRp1605
(dp1606
g61
(dp1607
sg70
g1592
sg63
(lp1608
g56
(g57
g58
NtRp1609
(dp1610
g61
(dp1611
g69
I4
ssg70
g1605
sg63
(lp1612
g99
asbasbasbag56
(g72
g58
NtRp1613
(dp1614
g61
(dp1615
sg70
g821
sg63
(lp1616
g56
(g77
g58
NtRp1617
(dp1618
g61
(dp1619
g81
g82
ssg70
g1613
sg63
(lp1620
S'wsgi_multithread'
p1621
asbag56
(g77
g58
NtRp1622
(dp1623
g61
(dp1624
g88
g89
ssg70
g1613
sg63
(lp1625
S':'
asbag56
(g77
g58
NtRp1626
(dp1627
g61
(dp1628
sg70
g1613
sg63
(lp1629
g56
(g57
g58
NtRp1630
(dp1631
g61
(dp1632
g69
I4
ssg70
g1626
sg63
(lp1633
S'True'
p1634
asbasbasbag56
(g72
g58
NtRp1635
(dp1636
g61
(dp1637
sg70
g821
sg63
(lp1638
g56
(g77
g58
NtRp1639
(dp1640
g61
(dp1641
g81
g82
ssg70
g1635
sg63
(lp1642
S'wsgi_run_once'
p1643
asbag56
(g77
g58
NtRp1644
(dp1645
g61
(dp1646
g88
g89
ssg70
g1635
sg63
(lp1647
S':'
asbag56
(g77
g58
NtRp1648
(dp1649
g61
(dp1650
sg70
g1635
sg63
(lp1651
g56
(g57
g58
NtRp1652
(dp1653
g61
(dp1654
g69
I4
ssg70
g1648
sg63
(lp1655
g99
asbasbasbag56
(g72
g58
NtRp1656
(dp1657
g61
(dp1658
sg70
g821
sg63
(lp1659
g56
(g77
g58
NtRp1660
(dp1661
g61
(dp1662
g81
g82
ssg70
g1656
sg63
(lp1663
S'wsgi_url_scheme'
p1664
asbag56
(g77
g58
NtRp1665
(dp1666
g61
(dp1667
g88
g89
ssg70
g1656
sg63
(lp1668
S':'
asbag56
(g77
g58
NtRp1669
(dp1670
g61
(dp1671
sg70
g1656
sg63
(lp1672
g56
(g57
g58
NtRp1673
(dp1674
g61
(dp1675
g69
I4
ssg70
g1669
sg63
(lp1676
S'http'
p1677
asbasbasbag56
(g72
g58
NtRp1678
(dp1679
g61
(dp1680
sg70
g821
sg63
(lp1681
g56
(g77
g58
NtRp1682
(dp1683
g61
(dp1684
g81
g82
ssg70
g1678
sg63
(lp1685
S'wsgi_version'
p1686
asbag56
(g77
g58
NtRp1687
(dp1688
g61
(dp1689
g88
g89
ssg70
g1678
sg63
(lp1690
S':'
asbag56
(g77
g58
NtRp1691
(dp1692
g61
(dp1693
sg70
g1678
sg63
(lp1694
g56
(g57
g58
NtRp1695
(dp1696
g61
(dp1697
g69
I4
ssg70
g1691
sg63
(lp1698
g56
(g65
g58
NtRp1699
(dp1700
g61
(dp1701
g69
I3
ssg70
Nsg63
(lp1702
g56
(g72
g58
NtRp1703
(dp1704
g61
(dp1705
sg70
g1699
sg63
(lp1706
g56
(g77
g58
NtRp1707
(dp1708
g61
(dp1709
sg70
g1703
sg63
(lp1710
g56
(g57
g58
NtRp1711
(dp1712
g61
(dp1713
g69
I3
ssg70
g1707
sg63
(lp1714
S'1'
asbasbasbag56
(g72
g58
NtRp1715
(dp1716
g61
(dp1717
sg70
g1699
sg63
(lp1718
g56
(g77
g58
NtRp1719
(dp1720
g61
(dp1721
sg70
g1715
sg63
(lp1722
g56
(g57
g58
NtRp1723
(dp1724
g61
(dp1725
g69
I3
ssg70
g1719
sg63
(lp1726
S'0'
asbasbasbasbasbasbasbasbasbasbasbag56
(g72
g58
NtRp1727
(dp1728
g61
(dp1729
sg70
g66
sg63
(lp1730
g56
(g77
g58
NtRp1731
(dp1732
g61
(dp1733
g81
g82
ssg70
g1727
sg63
(lp1734
S'extension'
p1735
asbag56
(g77
g58
NtRp1736
(dp1737
g61
(dp1738
g88
g89
ssg70
g1727
sg63
(lp1739
S':'
asbag56
(g77
g58
NtRp1740
(dp1741
g61
(dp1742
sg70
g1727
sg63
(lp1743
g56
(g57
g58
NtRp1744
(dp1745
g61
(dp1746
g69
I5
ssg70
g1740
sg63
(lp1747
S'html'
p1748
asbasbasbag56
(g72
g58
NtRp1749
(dp1750
g61
(dp1751
sg70
g66
sg63
(lp1752
g56
(g77
g58
NtRp1753
(dp1754
g61
(dp1755
g81
g82
ssg70
g1749
sg63
(lp1756
S'folder'
p1757
asbag56
(g77
g58
NtRp1758
(dp1759
g61
(dp1760
g88
g89
ssg70
g1749
sg63
(lp1761
S':'
asbag56
(g77
g58
NtRp1762
(dp1763
g61
(dp1764
sg70
g1749
sg63
(lp1765
g56
(g57
g58
NtRp1766
(dp1767
g61
(dp1768
g69
I5
ssg70
g1762
sg63
(lp1769
S'/home/vsvah/Desktop/Coursework/Sem3/SSAD/web2py/applications/Music_Repo/'
p1770
asbasbasbag56
(g72
g58
NtRp1771
(dp1772
g61
(dp1773
sg70
g66
sg63
(lp1774
g56
(g77
g58
NtRp1775
(dp1776
g61
(dp1777
g81
g82
ssg70
g1771
sg63
(lp1778
S'function'
p1779
asbag56
(g77
g58
NtRp1780
(dp1781
g61
(dp1782
g88
g89
ssg70
g1771
sg63
(lp1783
S':'
asbag56
(g77
g58
NtRp1784
(dp1785
g61
(dp1786
sg70
g1771
sg63
(lp1787
g56
(g57
g58
NtRp1788
(dp1789
g61
(dp1790
g69
I5
ssg70
g1784
sg63
(lp1791
S'display_link'
p1792
asbasbasbag56
(g72
g58
NtRp1793
(dp1794
g61
(dp1795
sg70
g66
sg63
(lp1796
g56
(g77
g58
NtRp1797
(dp1798
g61
(dp1799
g81
g82
ssg70
g1793
sg63
(lp1800
S'get_vars'
p1801
asbag56
(g77
g58
NtRp1802
(dp1803
g61
(dp1804
g88
g89
ssg70
g1793
sg63
(lp1805
S':'
asbag56
(g77
g58
NtRp1806
(dp1807
g61
(dp1808
sg70
g1793
sg63
(lp1809
g56
(g57
g58
NtRp1810
(dp1811
g61
(dp1812
g69
I5
ssg70
g1806
sg63
(lp1813
g56
(g65
g58
NtRp1814
(dp1815
g61
(dp1816
g69
I4
ssg70
Nsg63
(lp1817
sbasbasbasbag56
(g72
g58
NtRp1818
(dp1819
g61
(dp1820
sg70
g66
sg63
(lp1821
g56
(g77
g58
NtRp1822
(dp1823
g61
(dp1824
g81
g82
ssg70
g1818
sg63
(lp1825
S'is_https'
p1826
asbag56
(g77
g58
NtRp1827
(dp1828
g61
(dp1829
g88
g89
ssg70
g1818
sg63
(lp1830
S':'
asbag56
(g77
g58
NtRp1831
(dp1832
g61
(dp1833
sg70
g1818
sg63
(lp1834
g56
(g57
g58
NtRp1835
(dp1836
g61
(dp1837
g69
I5
ssg70
g1831
sg63
(lp1838
g99
asbasbasbag56
(g72
g58
NtRp1839
(dp1840
g61
(dp1841
sg70
g66
sg63
(lp1842
g56
(g77
g58
NtRp1843
(dp1844
g61
(dp1845
g81
g82
ssg70
g1839
sg63
(lp1846
S'is_local'
p1847
asbag56
(g77
g58
NtRp1848
(dp1849
g61
(dp1850
g88
g89
ssg70
g1839
sg63
(lp1851
S':'
asbag56
(g77
g58
NtRp1852
(dp1853
g61
(dp1854
sg70
g1839
sg63
(lp1855
g56
(g57
g58
NtRp1856
(dp1857
g61
(dp1858
g69
I5
ssg70
g1852
sg63
(lp1859
g1634
asbasbasbag56
(g72
g58
NtRp1860
(dp1861
g61
(dp1862
sg70
g66
sg63
(lp1863
g56
(g77
g58
NtRp1864
(dp1865
g61
(dp1866
g81
g82
ssg70
g1860
sg63
(lp1867
S'is_restful'
p1868
asbag56
(g77
g58
NtRp1869
(dp1870
g61
(dp1871
g88
g89
ssg70
g1860
sg63
(lp1872
S':'
asbag56
(g77
g58
NtRp1873
(dp1874
g61
(dp1875
sg70
g1860
sg63
(lp1876
g56
(g57
g58
NtRp1877
(dp1878
g61
(dp1879
g69
I5
ssg70
g1873
sg63
(lp1880
g99
asbasbasbag56
(g72
g58
NtRp1881
(dp1882
g61
(dp1883
sg70
g66
sg63
(lp1884
g56
(g77
g58
NtRp1885
(dp1886
g61
(dp1887
g81
g82
ssg70
g1881
sg63
(lp1888
S'now'
p1889
asbag56
(g77
g58
NtRp1890
(dp1891
g61
(dp1892
g88
g89
ssg70
g1881
sg63
(lp1893
S':'
asbag56
(g77
g58
NtRp1894
(dp1895
g61
(dp1896
sg70
g1881
sg63
(lp1897
g56
(g57
g58
NtRp1898
(dp1899
g61
(dp1900
g69
I5
ssg70
g1894
sg63
(lp1901
S'datetime.datetime(2011, 9, 7, 16, 35, 26, 671842)'
p1902
asbasbasbag56
(g72
g58
NtRp1903
(dp1904
g61
(dp1905
sg70
g66
sg63
(lp1906
g56
(g77
g58
NtRp1907
(dp1908
g61
(dp1909
g81
g82
ssg70
g1903
sg63
(lp1910
S'post_vars'
p1911
asbag56
(g77
g58
NtRp1912
(dp1913
g61
(dp1914
g88
g89
ssg70
g1903
sg63
(lp1915
S':'
asbag56
(g77
g58
NtRp1916
(dp1917
g61
(dp1918
sg70
g1903
sg63
(lp1919
g56
(g57
g58
NtRp1920
(dp1921
g61
(dp1922
g69
I5
ssg70
g1916
sg63
(lp1923
g56
(g65
g58
NtRp1924
(dp1925
g61
(dp1926
g69
I4
ssg70
Nsg63
(lp1927
sbasbasbasbag56
(g72
g58
NtRp1928
(dp1929
g61
(dp1930
sg70
g66
sg63
(lp1931
g56
(g77
g58
NtRp1932
(dp1933
g61
(dp1934
g81
g82
ssg70
g1928
sg63
(lp1935
S'url'
p1936
asbag56
(g77
g58
NtRp1937
(dp1938
g61
(dp1939
g88
g89
ssg70
g1928
sg63
(lp1940
S':'
asbag56
(g77
g58
NtRp1941
(dp1942
g61
(dp1943
sg70
g1928
sg63
(lp1944
g56
(g57
g58
NtRp1945
(dp1946
g61
(dp1947
g69
I5
ssg70
g1941
sg63
(lp1948
S'/Music_Repo/default/display_link'
p1949
asbasbasbag56
(g72
g58
NtRp1950
(dp1951
g61
(dp1952
sg70
g66
sg63
(lp1953
g56
(g77
g58
NtRp1954
(dp1955
g61
(dp1956
g81
g82
ssg70
g1950
sg63
(lp1957
S'uuid'
p1958
asbag56
(g77
g58
NtRp1959
(dp1960
g61
(dp1961
g88
g89
ssg70
g1950
sg63
(lp1962
S':'
asbag56
(g77
g58
NtRp1963
(dp1964
g61
(dp1965
sg70
g1950
sg63
(lp1966
g56
(g57
g58
NtRp1967
(dp1968
g61
(dp1969
g69
I5
ssg70
g1963
sg63
(lp1970
S'Music_Repo/127.0.0.1.2011-09-07.16-35-26.ae562f2b-d7c2-4a69-bdad-e9d75c6e039c'
p1971
asbasbasbag56
(g72
g58
NtRp1972
(dp1973
g61
(dp1974
sg70
g66
sg63
(lp1975
g56
(g77
g58
NtRp1976
(dp1977
g61
(dp1978
g81
g82
ssg70
g1972
sg63
(lp1979
S'vars'
p1980
asbag56
(g77
g58
NtRp1981
(dp1982
g61
(dp1983
g88
g89
ssg70
g1972
sg63
(lp1984
S':'
asbag56
(g77
g58
NtRp1985
(dp1986
g61
(dp1987
sg70
g1972
sg63
(lp1988
g56
(g57
g58
NtRp1989
(dp1990
g61
(dp1991
g69
I5
ssg70
g1985
sg63
(lp1992
g56
(g65
g58
NtRp1993
(dp1994
g61
(dp1995
g69
I4
ssg70
Nsg63
(lp1996
sbasbasbasbag56
(g72
g58
NtRp1997
(dp1998
g61
(dp1999
sg70
g66
sg63
(lp2000
g56
(g77
g58
NtRp2001
(dp2002
g61
(dp2003
g81
g82
ssg70
g1997
sg63
(lp2004
S'wsgi'
p2005
asbag56
(g77
g58
NtRp2006
(dp2007
g61
(dp2008
g88
g89
ssg70
g1997
sg63
(lp2009
S':'
asbag56
(g77
g58
NtRp2010
(dp2011
g61
(dp2012
sg70
g1997
sg63
(lp2013
g56
(g57
g58
NtRp2014
(dp2015
g61
(dp2016
g69
I5
ssg70
g2010
sg63
(lp2017
g56
(g65
g58
NtRp2018
(dp2019
g61
(dp2020
g69
I4
ssg70
Nsg63
(lp2021
g56
(g72
g58
NtRp2022
(dp2023
g61
(dp2024
sg70
g2018
sg63
(lp2025
g56
(g77
g58
NtRp2026
(dp2027
g61
(dp2028
g81
g82
ssg70
g2022
sg63
(lp2029
S'environ'
p2030
asbag56
(g77
g58
NtRp2031
(dp2032
g61
(dp2033
g88
g89
ssg70
g2022
sg63
(lp2034
S':'
asbag56
(g77
g58
NtRp2035
(dp2036
g61
(dp2037
sg70
g2022
sg63
(lp2038
g56
(g57
g58
NtRp2039
(dp2040
g61
(dp2041
g69
I4
ssg70
g2035
sg63
(lp2042
g56
(g65
g58
NtRp2043
(dp2044
g61
(dp2045
g69
I3
ssg70
Nsg63
(lp2046
g56
(g72
g58
NtRp2047
(dp2048
g61
(dp2049
sg70
g2043
sg63
(lp2050
g56
(g77
g58
NtRp2051
(dp2052
g61
(dp2053
g81
g82
ssg70
g2047
sg63
(lp2054
S'HTTP_ACCEPT'
p2055
asbag56
(g77
g58
NtRp2056
(dp2057
g61
(dp2058
g88
g89
ssg70
g2047
sg63
(lp2059
S':'
asbag56
(g77
g58
NtRp2060
(dp2061
g61
(dp2062
sg70
g2047
sg63
(lp2063
g56
(g57
g58
NtRp2064
(dp2065
g61
(dp2066
g69
I3
ssg70
g2060
sg63
(lp2067
g1002
asbasbasbag56
(g72
g58
NtRp2068
(dp2069
g61
(dp2070
sg70
g2043
sg63
(lp2071
g56
(g77
g58
NtRp2072
(dp2073
g61
(dp2074
g81
g82
ssg70
g2068
sg63
(lp2075
S'HTTP_ACCEPT_CHARSET'
p2076
asbag56
(g77
g58
NtRp2077
(dp2078
g61
(dp2079
g88
g89
ssg70
g2068
sg63
(lp2080
S':'
asbag56
(g77
g58
NtRp2081
(dp2082
g61
(dp2083
sg70
g2068
sg63
(lp2084
g56
(g57
g58
NtRp2085
(dp2086
g61
(dp2087
g69
I3
ssg70
g2081
sg63
(lp2088
g1024
asbasbasbag56
(g72
g58
NtRp2089
(dp2090
g61
(dp2091
sg70
g2043
sg63
(lp2092
g56
(g77
g58
NtRp2093
(dp2094
g61
(dp2095
g81
g82
ssg70
g2089
sg63
(lp2096
S'HTTP_ACCEPT_ENCODING'
p2097
asbag56
(g77
g58
NtRp2098
(dp2099
g61
(dp2100
g88
g89
ssg70
g2089
sg63
(lp2101
S':'
asbag56
(g77
g58
NtRp2102
(dp2103
g61
(dp2104
sg70
g2089
sg63
(lp2105
g56
(g57
g58
NtRp2106
(dp2107
g61
(dp2108
g69
I3
ssg70
g2102
sg63
(lp2109
g1046
asbasbasbag56
(g72
g58
NtRp2110
(dp2111
g61
(dp2112
sg70
g2043
sg63
(lp2113
g56
(g77
g58
NtRp2114
(dp2115
g61
(dp2116
g81
g82
ssg70
g2110
sg63
(lp2117
S'HTTP_ACCEPT_LANGUAGE'
p2118
asbag56
(g77
g58
NtRp2119
(dp2120
g61
(dp2121
g88
g89
ssg70
g2110
sg63
(lp2122
S':'
asbag56
(g77
g58
NtRp2123
(dp2124
g61
(dp2125
sg70
g2110
sg63
(lp2126
g56
(g57
g58
NtRp2127
(dp2128
g61
(dp2129
g69
I3
ssg70
g2123
sg63
(lp2130
g1068
asbasbasbag56
(g72
g58
NtRp2131
(dp2132
g61
(dp2133
sg70
g2043
sg63
(lp2134
g56
(g77
g58
NtRp2135
(dp2136
g61
(dp2137
g81
g82
ssg70
g2131
sg63
(lp2138
S'HTTP_CACHE_CONTROL'
p2139
asbag56
(g77
g58
NtRp2140
(dp2141
g61
(dp2142
g88
g89
ssg70
g2131
sg63
(lp2143
S':'
asbag56
(g77
g58
NtRp2144
(dp2145
g61
(dp2146
sg70
g2131
sg63
(lp2147
g56
(g57
g58
NtRp2148
(dp2149
g61
(dp2150
g69
I3
ssg70
g2144
sg63
(lp2151
g1090
asbasbasbag56
(g72
g58
NtRp2152
(dp2153
g61
(dp2154
sg70
g2043
sg63
(lp2155
g56
(g77
g58
NtRp2156
(dp2157
g61
(dp2158
g81
g82
ssg70
g2152
sg63
(lp2159
S'HTTP_CONNECTION'
p2160
asbag56
(g77
g58
NtRp2161
(dp2162
g61
(dp2163
g88
g89
ssg70
g2152
sg63
(lp2164
S':'
asbag56
(g77
g58
NtRp2165
(dp2166
g61
(dp2167
sg70
g2152
sg63
(lp2168
g56
(g57
g58
NtRp2169
(dp2170
g61
(dp2171
g69
I3
ssg70
g2165
sg63
(lp2172
g1112
asbasbasbag56
(g72
g58
NtRp2173
(dp2174
g61
(dp2175
sg70
g2043
sg63
(lp2176
g56
(g77
g58
NtRp2177
(dp2178
g61
(dp2179
g81
g82
ssg70
g2173
sg63
(lp2180
S'HTTP_COOKIE'
p2181
asbag56
(g77
g58
NtRp2182
(dp2183
g61
(dp2184
g88
g89
ssg70
g2173
sg63
(lp2185
S':'
asbag56
(g77
g58
NtRp2186
(dp2187
g61
(dp2188
sg70
g2173
sg63
(lp2189
g56
(g57
g58
NtRp2190
(dp2191
g61
(dp2192
g69
I3
ssg70
g2186
sg63
(lp2193
g1134
asbasbasbag56
(g72
g58
NtRp2194
(dp2195
g61
(dp2196
sg70
g2043
sg63
(lp2197
g56
(g77
g58
NtRp2198
(dp2199
g61
(dp2200
g81
g82
ssg70
g2194
sg63
(lp2201
S'HTTP_HOST'
p2202
asbag56
(g77
g58
NtRp2203
(dp2204
g61
(dp2205
g88
g89
ssg70
g2194
sg63
(lp2206
S':'
asbag56
(g77
g58
NtRp2207
(dp2208
g61
(dp2209
sg70
g2194
sg63
(lp2210
g56
(g57
g58
NtRp2211
(dp2212
g61
(dp2213
g69
I3
ssg70
g2207
sg63
(lp2214
g1156
asbasbasbag56
(g72
g58
NtRp2215
(dp2216
g61
(dp2217
sg70
g2043
sg63
(lp2218
g56
(g77
g58
NtRp2219
(dp2220
g61
(dp2221
g81
g82
ssg70
g2215
sg63
(lp2222
S'HTTP_KEEP_ALIVE'
p2223
asbag56
(g77
g58
NtRp2224
(dp2225
g61
(dp2226
g88
g89
ssg70
g2215
sg63
(lp2227
S':'
asbag56
(g77
g58
NtRp2228
(dp2229
g61
(dp2230
sg70
g2215
sg63
(lp2231
g56
(g57
g58
NtRp2232
(dp2233
g61
(dp2234
g69
I3
ssg70
g2228
sg63
(lp2235
g1178
asbasbasbag56
(g72
g58
NtRp2236
(dp2237
g61
(dp2238
sg70
g2043
sg63
(lp2239
g56
(g77
g58
NtRp2240
(dp2241
g61
(dp2242
g81
g82
ssg70
g2236
sg63
(lp2243
S'HTTP_REFERER'
p2244
asbag56
(g77
g58
NtRp2245
(dp2246
g61
(dp2247
g88
g89
ssg70
g2236
sg63
(lp2248
S':'
asbag56
(g77
g58
NtRp2249
(dp2250
g61
(dp2251
sg70
g2236
sg63
(lp2252
g56
(g57
g58
NtRp2253
(dp2254
g61
(dp2255
g69
I3
ssg70
g2249
sg63
(lp2256
g1200
asbasbasbag56
(g72
g58
NtRp2257
(dp2258
g61
(dp2259
sg70
g2043
sg63
(lp2260
g56
(g77
g58
NtRp2261
(dp2262
g61
(dp2263
g81
g82
ssg70
g2257
sg63
(lp2264
S'HTTP_USER_AGENT'
p2265
asbag56
(g77
g58
NtRp2266
(dp2267
g61
(dp2268
g88
g89
ssg70
g2257
sg63
(lp2269
S':'
asbag56
(g77
g58
NtRp2270
(dp2271
g61
(dp2272
sg70
g2257
sg63
(lp2273
g56
(g57
g58
NtRp2274
(dp2275
g61
(dp2276
g69
I3
ssg70
g2270
sg63
(lp2277
g1222
asbasbasbag56
(g72
g58
NtRp2278
(dp2279
g61
(dp2280
sg70
g2043
sg63
(lp2281
g56
(g77
g58
NtRp2282
(dp2283
g61
(dp2284
g81
g82
ssg70
g2278
sg63
(lp2285
S'PATH_INFO'
p2286
asbag56
(g77
g58
NtRp2287
(dp2288
g61
(dp2289
g88
g89
ssg70
g2278
sg63
(lp2290
S':'
asbag56
(g77
g58
NtRp2291
(dp2292
g61
(dp2293
sg70
g2278
sg63
(lp2294
g56
(g57
g58
NtRp2295
(dp2296
g61
(dp2297
g69
I3
ssg70
g2291
sg63
(lp2298
g1265
asbasbasbag56
(g72
g58
NtRp2299
(dp2300
g61
(dp2301
sg70
g2043
sg63
(lp2302
g56
(g77
g58
NtRp2303
(dp2304
g61
(dp2305
g81
g82
ssg70
g2299
sg63
(lp2306
S'QUERY_STRING'
p2307
asbag56
(g77
g58
NtRp2308
(dp2309
g61
(dp2310
g88
g89
ssg70
g2299
sg63
(lp2311
S':'
asbag56
(g77
g58
NtRp2312
(dp2313
g61
(dp2314
sg70
g2299
sg63
(lp2315
g56
(g57
g58
NtRp2316
(dp2317
g61
(dp2318
g69
I3
ssg70
g2312
sg63
(lp2319
S''
asbasbasbag56
(g72
g58
NtRp2320
(dp2321
g61
(dp2322
sg70
g2043
sg63
(lp2323
g56
(g77
g58
NtRp2324
(dp2325
g61
(dp2326
g81
g82
ssg70
g2320
sg63
(lp2327
S'REMOTE_ADDR'
p2328
asbag56
(g77
g58
NtRp2329
(dp2330
g61
(dp2331
g88
g89
ssg70
g2320
sg63
(lp2332
S':'
asbag56
(g77
g58
NtRp2333
(dp2334
g61
(dp2335
sg70
g2320
sg63
(lp2336
g56
(g57
g58
NtRp2337
(dp2338
g61
(dp2339
g69
I3
ssg70
g2333
sg63
(lp2340
g189
asbasbasbag56
(g72
g58
NtRp2341
(dp2342
g61
(dp2343
sg70
g2043
sg63
(lp2344
g56
(g77
g58
NtRp2345
(dp2346
g61
(dp2347
g81
g82
ssg70
g2341
sg63
(lp2348
S'REMOTE_PORT'
p2349
asbag56
(g77
g58
NtRp2350
(dp2351
g61
(dp2352
g88
g89
ssg70
g2341
sg63
(lp2353
S':'
asbag56
(g77
g58
NtRp2354
(dp2355
g61
(dp2356
sg70
g2341
sg63
(lp2357
g56
(g57
g58
NtRp2358
(dp2359
g61
(dp2360
g69
I3
ssg70
g2354
sg63
(lp2361
g1329
asbasbasbag56
(g72
g58
NtRp2362
(dp2363
g61
(dp2364
sg70
g2043
sg63
(lp2365
g56
(g77
g58
NtRp2366
(dp2367
g61
(dp2368
g81
g82
ssg70
g2362
sg63
(lp2369
S'REQUEST_METHOD'
p2370
asbag56
(g77
g58
NtRp2371
(dp2372
g61
(dp2373
g88
g89
ssg70
g2362
sg63
(lp2374
S':'
asbag56
(g77
g58
NtRp2375
(dp2376
g61
(dp2377
sg70
g2362
sg63
(lp2378
g56
(g57
g58
NtRp2379
(dp2380
g61
(dp2381
g69
I3
ssg70
g2375
sg63
(lp2382
g1351
asbasbasbag56
(g72
g58
NtRp2383
(dp2384
g61
(dp2385
sg70
g2043
sg63
(lp2386
g56
(g77
g58
NtRp2387
(dp2388
g61
(dp2389
g81
g82
ssg70
g2383
sg63
(lp2390
S'SCRIPT_NAME'
p2391
asbag56
(g77
g58
NtRp2392
(dp2393
g61
(dp2394
g88
g89
ssg70
g2383
sg63
(lp2395
S':'
asbag56
(g77
g58
NtRp2396
(dp2397
g61
(dp2398
sg70
g2383
sg63
(lp2399
g56
(g57
g58
NtRp2400
(dp2401
g61
(dp2402
g69
I3
ssg70
g2396
sg63
(lp2403
S''
asbasbasbag56
(g72
g58
NtRp2404
(dp2405
g61
(dp2406
sg70
g2043
sg63
(lp2407
g56
(g77
g58
NtRp2408
(dp2409
g61
(dp2410
g81
g82
ssg70
g2404
sg63
(lp2411
S'SERVER_NAME'
p2412
asbag56
(g77
g58
NtRp2413
(dp2414
g61
(dp2415
g88
g89
ssg70
g2404
sg63
(lp2416
S':'
asbag56
(g77
g58
NtRp2417
(dp2418
g61
(dp2419
sg70
g2404
sg63
(lp2420
g56
(g57
g58
NtRp2421
(dp2422
g61
(dp2423
g69
I3
ssg70
g2417
sg63
(lp2424
g1394
asbasbasbag56
(g72
g58
NtRp2425
(dp2426
g61
(dp2427
sg70
g2043
sg63
(lp2428
g56
(g77
g58
NtRp2429
(dp2430
g61
(dp2431
g81
g82
ssg70
g2425
sg63
(lp2432
S'SERVER_PORT'
p2433
asbag56
(g77
g58
NtRp2434
(dp2435
g61
(dp2436
g88
g89
ssg70
g2425
sg63
(lp2437
S':'
asbag56
(g77
g58
NtRp2438
(dp2439
g61
(dp2440
sg70
g2425
sg63
(lp2441
g56
(g57
g58
NtRp2442
(dp2443
g61
(dp2444
g69
I3
ssg70
g2438
sg63
(lp2445
g1416
asbasbasbag56
(g72
g58
NtRp2446
(dp2447
g61
(dp2448
sg70
g2043
sg63
(lp2449
g56
(g77
g58
NtRp2450
(dp2451
g61
(dp2452
g81
g82
ssg70
g2446
sg63
(lp2453
S'SERVER_PROTOCOL'
p2454
asbag56
(g77
g58
NtRp2455
(dp2456
g61
(dp2457
g88
g89
ssg70
g2446
sg63
(lp2458
S':'
asbag56
(g77
g58
NtRp2459
(dp2460
g61
(dp2461
sg70
g2446
sg63
(lp2462
g56
(g57
g58
NtRp2463
(dp2464
g61
(dp2465
g69
I3
ssg70
g2459
sg63
(lp2466
g1438
asbasbasbag56
(g72
g58
NtRp2467
(dp2468
g61
(dp2469
sg70
g2043
sg63
(lp2470
g56
(g77
g58
NtRp2471
(dp2472
g61
(dp2473
g81
g82
ssg70
g2467
sg63
(lp2474
S'SERVER_SOFTWARE'
p2475
asbag56
(g77
g58
NtRp2476
(dp2477
g61
(dp2478
g88
g89
ssg70
g2467
sg63
(lp2479
S':'
asbag56
(g77
g58
NtRp2480
(dp2481
g61
(dp2482
sg70
g2467
sg63
(lp2483
g56
(g57
g58
NtRp2484
(dp2485
g61
(dp2486
g69
I3
ssg70
g2480
sg63
(lp2487
g1460
asbasbasbag56
(g72
g58
NtRp2488
(dp2489
g61
(dp2490
sg70
g2043
sg63
(lp2491
g56
(g77
g58
NtRp2492
(dp2493
g61
(dp2494
g81
g82
ssg70
g2488
sg63
(lp2495
S'wsgi.errors'
p2496
asbag56
(g77
g58
NtRp2497
(dp2498
g61
(dp2499
g88
g89
ssg70
g2488
sg63
(lp2500
S':'
asbag56
(g77
g58
NtRp2501
(dp2502
g61
(dp2503
sg70
g2488
sg63
(lp2504
g56
(g57
g58
NtRp2505
(dp2506
g61
(dp2507
g69
I3
ssg70
g2501
sg63
(lp2508
S"<open file '<stderr>', mode 'w' at 0xb78110d0>"
p2509
asbasbasbag56
(g72
g58
NtRp2510
(dp2511
g61
(dp2512
sg70
g2043
sg63
(lp2513
g56
(g77
g58
NtRp2514
(dp2515
g61
(dp2516
g81
g82
ssg70
g2510
sg63
(lp2517
S'wsgi.file_wrapper'
p2518
asbag56
(g77
g58
NtRp2519
(dp2520
g61
(dp2521
g88
g89
ssg70
g2510
sg63
(lp2522
S':'
asbag56
(g77
g58
NtRp2523
(dp2524
g61
(dp2525
sg70
g2510
sg63
(lp2526
g56
(g57
g58
NtRp2527
(dp2528
g61
(dp2529
g69
I3
ssg70
g2523
sg63
(lp2530
S'<class gluon.rocket.FileWrapper at 0xa07f08c>'
p2531
asbasbasbag56
(g72
g58
NtRp2532
(dp2533
g61
(dp2534
sg70
g2043
sg63
(lp2535
g56
(g77
g58
NtRp2536
(dp2537
g61
(dp2538
g81
g82
ssg70
g2532
sg63
(lp2539
S'wsgi.input'
p2540
asbag56
(g77
g58
NtRp2541
(dp2542
g61
(dp2543
g88
g89
ssg70
g2532
sg63
(lp2544
S':'
asbag56
(g77
g58
NtRp2545
(dp2546
g61
(dp2547
sg70
g2532
sg63
(lp2548
g56
(g57
g58
NtRp2549
(dp2550
g61
(dp2551
g69
I3
ssg70
g2545
sg63
(lp2552
S'<cStringIO.StringO object at 0xad8ef20>'
p2553
asbasbasbag56
(g72
g58
NtRp2554
(dp2555
g61
(dp2556
sg70
g2043
sg63
(lp2557
g56
(g77
g58
NtRp2558
(dp2559
g61
(dp2560
g81
g82
ssg70
g2554
sg63
(lp2561
S'wsgi.multiprocess'
p2562
asbag56
(g77
g58
NtRp2563
(dp2564
g61
(dp2565
g88
g89
ssg70
g2554
sg63
(lp2566
S':'
asbag56
(g77
g58
NtRp2567
(dp2568
g61
(dp2569
sg70
g2554
sg63
(lp2570
g56
(g57
g58
NtRp2571
(dp2572
g61
(dp2573
g69
I3
ssg70
g2567
sg63
(lp2574
g99
asbasbasbag56
(g72
g58
NtRp2575
(dp2576
g61
(dp2577
sg70
g2043
sg63
(lp2578
g56
(g77
g58
NtRp2579
(dp2580
g61
(dp2581
g81
g82
ssg70
g2575
sg63
(lp2582
S'wsgi.multithread'
p2583
asbag56
(g77
g58
NtRp2584
(dp2585
g61
(dp2586
g88
g89
ssg70
g2575
sg63
(lp2587
S':'
asbag56
(g77
g58
NtRp2588
(dp2589
g61
(dp2590
sg70
g2575
sg63
(lp2591
g56
(g57
g58
NtRp2592
(dp2593
g61
(dp2594
g69
I3
ssg70
g2588
sg63
(lp2595
g1634
asbasbasbag56
(g72
g58
NtRp2596
(dp2597
g61
(dp2598
sg70
g2043
sg63
(lp2599
g56
(g77
g58
NtRp2600
(dp2601
g61
(dp2602
g81
g82
ssg70
g2596
sg63
(lp2603
S'wsgi.run_once'
p2604
asbag56
(g77
g58
NtRp2605
(dp2606
g61
(dp2607
g88
g89
ssg70
g2596
sg63
(lp2608
S':'
asbag56
(g77
g58
NtRp2609
(dp2610
g61
(dp2611
sg70
g2596
sg63
(lp2612
g56
(g57
g58
NtRp2613
(dp2614
g61
(dp2615
g69
I3
ssg70
g2609
sg63
(lp2616
g99
asbasbasbag56
(g72
g58
NtRp2617
(dp2618
g61
(dp2619
sg70
g2043
sg63
(lp2620
g56
(g77
g58
NtRp2621
(dp2622
g61
(dp2623
g81
g82
ssg70
g2617
sg63
(lp2624
S'wsgi.url_scheme'
p2625
asbag56
(g77
g58
NtRp2626
(dp2627
g61
(dp2628
g88
g89
ssg70
g2617
sg63
(lp2629
S':'
asbag56
(g77
g58
NtRp2630
(dp2631
g61
(dp2632
sg70
g2617
sg63
(lp2633
g56
(g57
g58
NtRp2634
(dp2635
g61
(dp2636
g69
I3
ssg70
g2630
sg63
(lp2637
g1677
asbasbasbag56
(g72
g58
NtRp2638
(dp2639
g61
(dp2640
sg70
g2043
sg63
(lp2641
g56
(g77
g58
NtRp2642
(dp2643
g61
(dp2644
g81
g82
ssg70
g2638
sg63
(lp2645
S'wsgi.version'
p2646
asbag56
(g77
g58
NtRp2647
(dp2648
g61
(dp2649
g88
g89
ssg70
g2638
sg63
(lp2650
S':'
asbag56
(g77
g58
NtRp2651
(dp2652
g61
(dp2653
sg70
g2638
sg63
(lp2654
g56
(g57
g58
NtRp2655
(dp2656
g61
(dp2657
g69
I3
ssg70
g2651
sg63
(lp2658
S'1'
asbasbasbasbasbasbasbasbasbasbasbasbasbsS'frames'
p2659
(lp2660
(dp2661
S'file'
p2662
S'/home/vsvah/Desktop/Coursework/Sem3/SSAD/web2py/gluon/restricted.py'
p2663
sS'dump'
p2664
(dp2665
S'environment'
p2666
S"{'A': <class 'gluon.html.A'>, 'Auth': <class 'gluon.tools.Auth'>, 'B': <class 'gluon.html.B'>, 'BEAUTIFY': <class 'gluon.html.BEAUTIFY'>, 'BODY': <class 'gluon.html.BODY'>, 'BR': <class 'gluon.html.BR'>, 'BUTTON': <class 'gluon.html.BUTTON'>, 'CAT': <class 'gluon.html.CAT'>, 'CENTER': <class 'gluon.html.CENTER'>, 'CLEANUP': <class 'gluon.validators.CLEANUP'>, ...}"
p2667
sS'ccode'
p2668
S'<code object <module> at 0xb33f5c0, file "/home/...ic_Repo/views/default/display_link.html", line 1>'
p2669
ssS'lnum'
p2670
I192
sS'lines'
p2671
(dp2672
I192
S'        exec ccode in environment'
p2673
sI193
S'    except HTTP:'
p2674
sI194
S'        raise'
p2675
sI195
S'    except Exception, error:'
p2676
sI196
S'        # XXX Show exception in Wing IDE if running in debugger'
p2677
sI187
S'    try:'
p2678
sI188
S'        if type(code) == types.CodeType:'
p2679
sI189
S'            ccode = code'
p2680
sI190
S'        else:'
p2681
sI191
S'            ccode = compile2(code,layer)'
p2682
ssS'call'
p2683
S'(code=r"left_sidebar_enabled=right_sidebar_enabled=False...t   -->    \\n  </body>\\n</html>\\n\', escape=False)", environment={\'A\': <class \'gluon.html.A\'>, \'Auth\': <class \'gluon.tools.Auth\'>, \'B\': <class \'gluon.html.B\'>, \'BEAUTIFY\': <class \'gluon.html.BEAUTIFY\'>, \'BODY\': <class \'gluon.html.BODY\'>, \'BR\': <class \'gluon.html.BR\'>, \'BUTTON\': <class \'gluon.html.BUTTON\'>, \'CAT\': <class \'gluon.html.CAT\'>, \'CENTER\': <class \'gluon.html.CENTER\'>, \'CLEANUP\': <class \'gluon.validators.CLEANUP\'>, ...}, layer=\'/home/vsvah/Desktop/Coursework/Sem3/SSAD/web2py/...ations/Music_Repo/views/default/display_link.html\')'
p2684
sS'func'
p2685
S'restricted'
p2686
sa(dp2687
g2662
S'/home/vsvah/Desktop/Coursework/Sem3/SSAD/web2py/applications/Music_Repo/views/default/display_link.html'
p2688
sg2664
(dp2689
sg2670
I109
sg2671
(dp2690
I100
S'response.write(XML(style_content))'
p2691
sI101
S"response.write(' >\\n\\t    ', escape=False)"
p2692
sI102
S"response.write('\\n<h3>Matching Songs (Click on the name for more details)</h3>\\n', escape=False)"
p2693
sI103
S'for i in r:'
p2694
sI104
S'    response.write(\'\\n   <a href = "/Music_Repo/default/display_details?idno=\', escape=False)'
p2695
sI105
S'    response.write(i.song.id)'
p2696
sI106
S'    response.write(\'">\', escape=False)'
p2697
sI107
S'    response.write(i.song.name)'
p2698
sI108
S"    response.write('</a>\\n   ', escape=False)"
p2699
sI109
S'    response.write()'
p2700
sI110
S"    response.write('\\n\\n\\n', escape=False)"
p2701
sI111
S'    pass'
p2702
sI112
S"response.write('\\n', escape=False)"
p2703
sI113
S"response.write('\\t\\n\\t  </div>\\n\\t  <!-- content -->\\n\\n\\t  ', escape=False)"
p2704
sI114
S'if right_sidebar_enabled:'
p2705
sI115
S'    response.write(\'\\n          <div id="right_sidebar" \', escape=False)'
p2706
sI116
S'    response.write(XML(right_sidebar_style))'
p2707
sI117
S'    response.write(\' >\\n            <div style="padding: 4px;">\\n              \', escape=False)'
p2708
sI118
S"    response.write('Content Right Sidebar', escape=False)"
p2709
sI119
S"    response.write('\\n            </div>\\n\\t  </div><!-- right_sidebar -->\\n          ', escape=False)"
p2710
ssg2683
S'()'
p2711
sg2685
S'<module>'
p2712
sasS'pyver'
p2713
S'Python 2.6.5: /usr/bin/python'
p2714
sS'session'
p2715
g56
(g57
g58
NtRp2716
(dp2717
g61
(dp2718
sg63
(lp2719
g56
(g65
g58
NtRp2720
(dp2721
g61
(dp2722
g69
I5
ssg70
Nsg63
(lp2723
g56
(g72
g58
NtRp2724
(dp2725
g61
(dp2726
sg70
g2720
sg63
(lp2727
g56
(g77
g58
NtRp2728
(dp2729
g61
(dp2730
g81
g82
ssg70
g2724
sg63
(lp2731
S'artist'
p2732
asbag56
(g77
g58
NtRp2733
(dp2734
g61
(dp2735
g88
g89
ssg70
g2724
sg63
(lp2736
S':'
asbag56
(g77
g58
NtRp2737
(dp2738
g61
(dp2739
sg70
g2724
sg63
(lp2740
g56
(g57
g58
NtRp2741
(dp2742
g61
(dp2743
g69
I5
ssg70
g2737
sg63
(lp2744
S''
asbasbasbag56
(g72
g58
NtRp2745
(dp2746
g61
(dp2747
sg70
g2720
sg63
(lp2748
g56
(g77
g58
NtRp2749
(dp2750
g61
(dp2751
g81
g82
ssg70
g2745
sg63
(lp2752
S'last_query'
p2753
asbag56
(g77
g58
NtRp2754
(dp2755
g61
(dp2756
g88
g89
ssg70
g2745
sg63
(lp2757
S':'
asbag56
(g77
g58
NtRp2758
(dp2759
g61
(dp2760
sg70
g2745
sg63
(lp2761
g56
(g57
g58
NtRp2762
(dp2763
g61
(dp2764
g69
I5
ssg70
g2758
sg63
(lp2765
S'db.movie.id>0'
p2766
asbasbasbag56
(g72
g58
NtRp2767
(dp2768
g61
(dp2769
sg70
g2720
sg63
(lp2770
g56
(g77
g58
NtRp2771
(dp2772
g61
(dp2773
g81
g82
ssg70
g2767
sg63
(lp2774
S'movie'
p2775
asbag56
(g77
g58
NtRp2776
(dp2777
g61
(dp2778
g88
g89
ssg70
g2767
sg63
(lp2779
S':'
asbag56
(g77
g58
NtRp2780
(dp2781
g61
(dp2782
sg70
g2767
sg63
(lp2783
g56
(g57
g58
NtRp2784
(dp2785
g61
(dp2786
g69
I5
ssg70
g2780
sg63
(lp2787
S'DUDE'
p2788
asbasbasbasbasbsS'etype'
p2789
S"<type 'exceptions.TypeError'>"
p2790
sS'date'
p2791
S'Wed Sep  7 16:35:26 2011'
p2792
sS'response'
p2793
g56
(g57
g58
NtRp2794
(dp2795
g61
(dp2796
sg63
(lp2797
g56
(g65
g58
NtRp2798
(dp2799
g61
(dp2800
g69
I5
ssg70
Nsg63
(lp2801
g56
(g72
g58
NtRp2802
(dp2803
g61
(dp2804
sg70
g2798
sg63
(lp2805
g56
(g77
g58
NtRp2806
(dp2807
g61
(dp2808
g81
g82
ssg70
g2802
sg63
(lp2809
g154
asbag56
(g77
g58
NtRp2810
(dp2811
g61
(dp2812
g88
g89
ssg70
g2802
sg63
(lp2813
S':'
asbag56
(g77
g58
NtRp2814
(dp2815
g61
(dp2816
sg70
g2802
sg63
(lp2817
g56
(g57
g58
NtRp2818
(dp2819
g61
(dp2820
g69
I5
ssg70
g2814
sg63
(lp2821
S'<cStringIO.StringO object at 0xac17dc0>'
p2822
asbasbasbag56
(g72
g58
NtRp2823
(dp2824
g61
(dp2825
sg70
g2798
sg63
(lp2826
g56
(g77
g58
NtRp2827
(dp2828
g61
(dp2829
g81
g82
ssg70
g2823
sg63
(lp2830
g220
asbag56
(g77
g58
NtRp2831
(dp2832
g61
(dp2833
g88
g89
ssg70
g2823
sg63
(lp2834
S':'
asbag56
(g77
g58
NtRp2835
(dp2836
g61
(dp2837
sg70
g2823
sg63
(lp2838
g56
(g57
g58
NtRp2839
(dp2840
g61
(dp2841
g69
I5
ssg70
g2835
sg63
(lp2842
g56
(g65
g58
NtRp2843
(dp2844
g61
(dp2845
g69
I4
ssg70
Nsg63
(lp2846
g56
(g72
g58
NtRp2847
(dp2848
g61
(dp2849
sg70
g2843
sg63
(lp2850
g56
(g77
g58
NtRp2851
(dp2852
g61
(dp2853
g81
g82
ssg70
g2847
sg63
(lp2854
S'session_id_music_repo'
p2855
asbag56
(g77
g58
NtRp2856
(dp2857
g61
(dp2858
g88
g89
ssg70
g2847
sg63
(lp2859
S':'
asbag56
(g77
g58
NtRp2860
(dp2861
g61
(dp2862
sg70
g2847
sg63
(lp2863
g56
(g57
g58
NtRp2864
(dp2865
g61
(dp2866
g69
I4
ssg70
g2860
sg63
(lp2867
g56
(g65
g58
NtRp2868
(dp2869
g61
(dp2870
g69
I3
ssg70
Nsg63
(lp2871
g56
(g72
g58
NtRp2872
(dp2873
g61
(dp2874
sg70
g2868
sg63
(lp2875
g56
(g77
g58
NtRp2876
(dp2877
g61
(dp2878
g81
g82
ssg70
g2872
sg63
(lp2879
g270
asbag56
(g77
g58
NtRp2880
(dp2881
g61
(dp2882
g88
g89
ssg70
g2872
sg63
(lp2883
S':'
asbag56
(g77
g58
NtRp2884
(dp2885
g61
(dp2886
sg70
g2872
sg63
(lp2887
g56
(g57
g58
NtRp2888
(dp2889
g61
(dp2890
g69
I3
ssg70
g2884
sg63
(lp2891
S''
asbasbasbag56
(g72
g58
NtRp2892
(dp2893
g61
(dp2894
sg70
g2868
sg63
(lp2895
g56
(g77
g58
NtRp2896
(dp2897
g61
(dp2898
g81
g82
ssg70
g2892
sg63
(lp2899
g291
asbag56
(g77
g58
NtRp2900
(dp2901
g61
(dp2902
g88
g89
ssg70
g2892
sg63
(lp2903
S':'
asbag56
(g77
g58
NtRp2904
(dp2905
g61
(dp2906
sg70
g2892
sg63
(lp2907
g56
(g57
g58
NtRp2908
(dp2909
g61
(dp2910
g69
I3
ssg70
g2904
sg63
(lp2911
S''
asbasbasbag56
(g72
g58
NtRp2912
(dp2913
g61
(dp2914
sg70
g2868
sg63
(lp2915
g56
(g77
g58
NtRp2916
(dp2917
g61
(dp2918
g81
g82
ssg70
g2912
sg63
(lp2919
g312
asbag56
(g77
g58
NtRp2920
(dp2921
g61
(dp2922
g88
g89
ssg70
g2912
sg63
(lp2923
S':'
asbag56
(g77
g58
NtRp2924
(dp2925
g61
(dp2926
sg70
g2912
sg63
(lp2927
g56
(g57
g58
NtRp2928
(dp2929
g61
(dp2930
g69
I3
ssg70
g2924
sg63
(lp2931
S''
asbasbasbag56
(g72
g58
NtRp2932
(dp2933
g61
(dp2934
sg70
g2868
sg63
(lp2935
g56
(g77
g58
NtRp2936
(dp2937
g61
(dp2938
g81
g82
ssg70
g2932
sg63
(lp2939
g333
asbag56
(g77
g58
NtRp2940
(dp2941
g61
(dp2942
g88
g89
ssg70
g2932
sg63
(lp2943
S':'
asbag56
(g77
g58
NtRp2944
(dp2945
g61
(dp2946
sg70
g2932
sg63
(lp2947
g56
(g57
g58
NtRp2948
(dp2949
g61
(dp2950
g69
I3
ssg70
g2944
sg63
(lp2951
S''
asbasbasbag56
(g72
g58
NtRp2952
(dp2953
g61
(dp2954
sg70
g2868
sg63
(lp2955
g56
(g77
g58
NtRp2956
(dp2957
g61
(dp2958
g81
g82
ssg70
g2952
sg63
(lp2959
g354
asbag56
(g77
g58
NtRp2960
(dp2961
g61
(dp2962
g88
g89
ssg70
g2952
sg63
(lp2963
S':'
asbag56
(g77
g58
NtRp2964
(dp2965
g61
(dp2966
sg70
g2952
sg63
(lp2967
g56
(g57
g58
NtRp2968
(dp2969
g61
(dp2970
g69
I3
ssg70
g2964
sg63
(lp2971
S''
asbasbasbag56
(g72
g58
NtRp2972
(dp2973
g61
(dp2974
sg70
g2868
sg63
(lp2975
g56
(g77
g58
NtRp2976
(dp2977
g61
(dp2978
g81
g82
ssg70
g2972
sg63
(lp2979
g375
asbag56
(g77
g58
NtRp2980
(dp2981
g61
(dp2982
g88
g89
ssg70
g2972
sg63
(lp2983
S':'
asbag56
(g77
g58
NtRp2984
(dp2985
g61
(dp2986
sg70
g2972
sg63
(lp2987
g56
(g57
g58
NtRp2988
(dp2989
g61
(dp2990
g69
I3
ssg70
g2984
sg63
(lp2991
S'/'
asbasbasbag56
(g72
g58
NtRp2992
(dp2993
g61
(dp2994
sg70
g2868
sg63
(lp2995
g56
(g77
g58
NtRp2996
(dp2997
g61
(dp2998
g81
g82
ssg70
g2992
sg63
(lp2999
g396
asbag56
(g77
g58
NtRp3000
(dp3001
g61
(dp3002
g88
g89
ssg70
g2992
sg63
(lp3003
S':'
asbag56
(g77
g58
NtRp3004
(dp3005
g61
(dp3006
sg70
g2992
sg63
(lp3007
g56
(g57
g58
NtRp3008
(dp3009
g61
(dp3010
g69
I3
ssg70
g3004
sg63
(lp3011
S''
asbasbasbag56
(g72
g58
NtRp3012
(dp3013
g61
(dp3014
sg70
g2868
sg63
(lp3015
g56
(g77
g58
NtRp3016
(dp3017
g61
(dp3018
g81
g82
ssg70
g3012
sg63
(lp3019
g417
asbag56
(g77
g58
NtRp3020
(dp3021
g61
(dp3022
g88
g89
ssg70
g3012
sg63
(lp3023
S':'
asbag56
(g77
g58
NtRp3024
(dp3025
g61
(dp3026
sg70
g3012
sg63
(lp3027
g56
(g57
g58
NtRp3028
(dp3029
g61
(dp3030
g69
I3
ssg70
g3024
sg63
(lp3031
S''
asbasbasbasbasbasbasbasbasbasbasbag56
(g72
g58
NtRp3032
(dp3033
g61
(dp3034
sg70
g2798
sg63
(lp3035
g56
(g77
g58
NtRp3036
(dp3037
g61
(dp3038
g81
g82
ssg70
g3032
sg63
(lp3039
S'files'
p3040
asbag56
(g77
g58
NtRp3041
(dp3042
g61
(dp3043
g88
g89
ssg70
g3032
sg63
(lp3044
S':'
asbag56
(g77
g58
NtRp3045
(dp3046
g61
(dp3047
sg70
g3032
sg63
(lp3048
g56
(g57
g58
NtRp3049
(dp3050
g61
(dp3051
g69
I5
ssg70
g3045
sg63
(lp3052
g56
(g65
g58
NtRp3053
(dp3054
g61
(dp3055
g69
I4
ssg70
Nsg63
(lp3056
g56
(g72
g58
NtRp3057
(dp3058
g61
(dp3059
sg70
g3053
sg63
(lp3060
g56
(g77
g58
NtRp3061
(dp3062
g61
(dp3063
sg70
g3057
sg63
(lp3064
g56
(g57
g58
NtRp3065
(dp3066
g61
(dp3067
g69
I4
ssg70
g3061
sg63
(lp3068
S'/Music_Repo/static/js/jquery.js'
p3069
asbasbasbag56
(g72
g58
NtRp3070
(dp3071
g61
(dp3072
sg70
g3053
sg63
(lp3073
g56
(g77
g58
NtRp3074
(dp3075
g61
(dp3076
sg70
g3070
sg63
(lp3077
g56
(g57
g58
NtRp3078
(dp3079
g61
(dp3080
g69
I4
ssg70
g3074
sg63
(lp3081
S'/Music_Repo/static/css/calendar.css'
p3082
asbasbasbag56
(g72
g58
NtRp3083
(dp3084
g61
(dp3085
sg70
g3053
sg63
(lp3086
g56
(g77
g58
NtRp3087
(dp3088
g61
(dp3089
sg70
g3083
sg63
(lp3090
g56
(g57
g58
NtRp3091
(dp3092
g61
(dp3093
g69
I4
ssg70
g3087
sg63
(lp3094
S'/Music_Repo/static/js/calendar.js'
p3095
asbasbasbag56
(g72
g58
NtRp3096
(dp3097
g61
(dp3098
sg70
g3053
sg63
(lp3099
g56
(g77
g58
NtRp3100
(dp3101
g61
(dp3102
sg70
g3096
sg63
(lp3103
g56
(g57
g58
NtRp3104
(dp3105
g61
(dp3106
g69
I4
ssg70
g3100
sg63
(lp3107
S'/Music_Repo/static/css/base.css'
p3108
asbasbasbag56
(g72
g58
NtRp3109
(dp3110
g61
(dp3111
sg70
g3053
sg63
(lp3112
g56
(g77
g58
NtRp3113
(dp3114
g61
(dp3115
sg70
g3109
sg63
(lp3116
g56
(g57
g58
NtRp3117
(dp3118
g61
(dp3119
g69
I4
ssg70
g3113
sg63
(lp3120
S'/Music_Repo/static/css/superfish.css'
p3121
asbasbasbag56
(g72
g58
NtRp3122
(dp3123
g61
(dp3124
sg70
g3053
sg63
(lp3125
g56
(g77
g58
NtRp3126
(dp3127
g61
(dp3128
sg70
g3122
sg63
(lp3129
g56
(g57
g58
NtRp3130
(dp3131
g61
(dp3132
g69
I4
ssg70
g3126
sg63
(lp3133
S'/Music_Repo/static/js/superfish.js'
p3134
asbasbasbasbasbasbasbag56
(g72
g58
NtRp3135
(dp3136
g61
(dp3137
sg70
g2798
sg63
(lp3138
g56
(g77
g58
NtRp3139
(dp3140
g61
(dp3141
g81
g82
ssg70
g3135
sg63
(lp3142
S'flash'
p3143
asbag56
(g77
g58
NtRp3144
(dp3145
g61
(dp3146
g88
g89
ssg70
g3135
sg63
(lp3147
S':'
asbag56
(g77
g58
NtRp3148
(dp3149
g61
(dp3150
sg70
g3135
sg63
(lp3151
g56
(g57
g58
NtRp3152
(dp3153
g61
(dp3154
g69
I5
ssg70
g3148
sg63
(lp3155
S''
asbasbasbag56
(g72
g58
NtRp3156
(dp3157
g61
(dp3158
sg70
g2798
sg63
(lp3159
g56
(g77
g58
NtRp3160
(dp3161
g61
(dp3162
g81
g82
ssg70
g3156
sg63
(lp3163
S'generic_patterns'
p3164
asbag56
(g77
g58
NtRp3165
(dp3166
g61
(dp3167
g88
g89
ssg70
g3156
sg63
(lp3168
S':'
asbag56
(g77
g58
NtRp3169
(dp3170
g61
(dp3171
sg70
g3156
sg63
(lp3172
g56
(g57
g58
NtRp3173
(dp3174
g61
(dp3175
g69
I5
ssg70
g3169
sg63
(lp3176
g56
(g65
g58
NtRp3177
(dp3178
g61
(dp3179
g69
I4
ssg70
Nsg63
(lp3180
g56
(g72
g58
NtRp3181
(dp3182
g61
(dp3183
sg70
g3177
sg63
(lp3184
g56
(g77
g58
NtRp3185
(dp3186
g61
(dp3187
sg70
g3181
sg63
(lp3188
g56
(g57
g58
NtRp3189
(dp3190
g61
(dp3191
g69
I4
ssg70
g3185
sg63
(lp3192
S'*'
asbasbasbasbasbasbasbag56
(g72
g58
NtRp3193
(dp3194
g61
(dp3195
sg70
g2798
sg63
(lp3196
g56
(g77
g58
NtRp3197
(dp3198
g61
(dp3199
g81
g82
ssg70
g3193
sg63
(lp3200
S'headers'
p3201
asbag56
(g77
g58
NtRp3202
(dp3203
g61
(dp3204
g88
g89
ssg70
g3193
sg63
(lp3205
S':'
asbag56
(g77
g58
NtRp3206
(dp3207
g61
(dp3208
sg70
g3193
sg63
(lp3209
g56
(g57
g58
NtRp3210
(dp3211
g61
(dp3212
g69
I5
ssg70
g3206
sg63
(lp3213
g56
(g65
g58
NtRp3214
(dp3215
g61
(dp3216
g69
I4
ssg70
Nsg63
(lp3217
g56
(g72
g58
NtRp3218
(dp3219
g61
(dp3220
sg70
g3214
sg63
(lp3221
g56
(g77
g58
NtRp3222
(dp3223
g61
(dp3224
g81
g82
ssg70
g3218
sg63
(lp3225
S'Cache-Control'
p3226
asbag56
(g77
g58
NtRp3227
(dp3228
g61
(dp3229
g88
g89
ssg70
g3218
sg63
(lp3230
S':'
asbag56
(g77
g58
NtRp3231
(dp3232
g61
(dp3233
sg70
g3218
sg63
(lp3234
g56
(g57
g58
NtRp3235
(dp3236
g61
(dp3237
g69
I4
ssg70
g3231
sg63
(lp3238
S'no-store, no-cache, must-revalidate, post-check=0, pre-check=0'
p3239
asbasbasbag56
(g72
g58
NtRp3240
(dp3241
g61
(dp3242
sg70
g3214
sg63
(lp3243
g56
(g77
g58
NtRp3244
(dp3245
g61
(dp3246
g81
g82
ssg70
g3240
sg63
(lp3247
S'Content-Type'
p3248
asbag56
(g77
g58
NtRp3249
(dp3250
g61
(dp3251
g88
g89
ssg70
g3240
sg63
(lp3252
S':'
asbag56
(g77
g58
NtRp3253
(dp3254
g61
(dp3255
sg70
g3240
sg63
(lp3256
g56
(g57
g58
NtRp3257
(dp3258
g61
(dp3259
g69
I4
ssg70
g3253
sg63
(lp3260
S'text/html; charset=utf-8'
p3261
asbasbasbag56
(g72
g58
NtRp3262
(dp3263
g61
(dp3264
sg70
g3214
sg63
(lp3265
g56
(g77
g58
NtRp3266
(dp3267
g61
(dp3268
g81
g82
ssg70
g3262
sg63
(lp3269
S'Expires'
p3270
asbag56
(g77
g58
NtRp3271
(dp3272
g61
(dp3273
g88
g89
ssg70
g3262
sg63
(lp3274
S':'
asbag56
(g77
g58
NtRp3275
(dp3276
g61
(dp3277
sg70
g3262
sg63
(lp3278
g56
(g57
g58
NtRp3279
(dp3280
g61
(dp3281
g69
I4
ssg70
g3275
sg63
(lp3282
S'Wed, 07 Sep 2011 11:05:26 GMT'
p3283
asbasbasbag56
(g72
g58
NtRp3284
(dp3285
g61
(dp3286
sg70
g3214
sg63
(lp3287
g56
(g77
g58
NtRp3288
(dp3289
g61
(dp3290
g81
g82
ssg70
g3284
sg63
(lp3291
S'Pragma'
p3292
asbag56
(g77
g58
NtRp3293
(dp3294
g61
(dp3295
g88
g89
ssg70
g3284
sg63
(lp3296
S':'
asbag56
(g77
g58
NtRp3297
(dp3298
g61
(dp3299
sg70
g3284
sg63
(lp3300
g56
(g57
g58
NtRp3301
(dp3302
g61
(dp3303
g69
I4
ssg70
g3297
sg63
(lp3304
S'no-cache'
p3305
asbasbasbag56
(g72
g58
NtRp3306
(dp3307
g61
(dp3308
sg70
g3214
sg63
(lp3309
g56
(g77
g58
NtRp3310
(dp3311
g61
(dp3312
g81
g82
ssg70
g3306
sg63
(lp3313
S'X-Powered-By'
p3314
asbag56
(g77
g58
NtRp3315
(dp3316
g61
(dp3317
g88
g89
ssg70
g3306
sg63
(lp3318
S':'
asbag56
(g77
g58
NtRp3319
(dp3320
g61
(dp3321
sg70
g3306
sg63
(lp3322
g56
(g57
g58
NtRp3323
(dp3324
g61
(dp3325
g69
I4
ssg70
g3319
sg63
(lp3326
S'web2py'
p3327
asbasbasbasbasbasbasbag56
(g72
g58
NtRp3328
(dp3329
g61
(dp3330
sg70
g2798
sg63
(lp3331
g56
(g77
g58
NtRp3332
(dp3333
g61
(dp3334
g81
g82
ssg70
g3328
sg63
(lp3335
S'menu'
p3336
asbag56
(g77
g58
NtRp3337
(dp3338
g61
(dp3339
g88
g89
ssg70
g3328
sg63
(lp3340
S':'
asbag56
(g77
g58
NtRp3341
(dp3342
g61
(dp3343
sg70
g3328
sg63
(lp3344
g56
(g57
g58
NtRp3345
(dp3346
g61
(dp3347
g69
I5
ssg70
g3341
sg63
(lp3348
g56
(g65
g58
NtRp3349
(dp3350
g61
(dp3351
g69
I4
ssg70
Nsg63
(lp3352
g56
(g72
g58
NtRp3353
(dp3354
g61
(dp3355
sg70
g3349
sg63
(lp3356
g56
(g77
g58
NtRp3357
(dp3358
g61
(dp3359
sg70
g3353
sg63
(lp3360
g56
(g57
g58
NtRp3361
(dp3362
g61
(dp3363
g69
I4
ssg70
g3357
sg63
(lp3364
g56
(g65
g58
NtRp3365
(dp3366
g61
(dp3367
g69
I3
ssg70
Nsg63
(lp3368
g56
(g72
g58
NtRp3369
(dp3370
g61
(dp3371
sg70
g3365
sg63
(lp3372
g56
(g77
g58
NtRp3373
(dp3374
g61
(dp3375
sg70
g3369
sg63
(lp3376
g56
(g57
g58
NtRp3377
(dp3378
g61
(dp3379
g69
I3
ssg70
g3373
sg63
(lp3380
cgluon.languages
lazyT_unpickle
p3381
(S's\x04\x00\x00\x00Home'
tRp3382
asbasbasbag56
(g72
g58
NtRp3383
(dp3384
g61
(dp3385
sg70
g3365
sg63
(lp3386
g56
(g77
g58
NtRp3387
(dp3388
g61
(dp3389
sg70
g3383
sg63
(lp3390
g56
(g57
g58
NtRp3391
(dp3392
g61
(dp3393
g69
I3
ssg70
g3387
sg63
(lp3394
g99
asbasbasbag56
(g72
g58
NtRp3395
(dp3396
g61
(dp3397
sg70
g3365
sg63
(lp3398
g56
(g77
g58
NtRp3399
(dp3400
g61
(dp3401
sg70
g3395
sg63
(lp3402
g56
(g57
g58
NtRp3403
(dp3404
g61
(dp3405
g69
I3
ssg70
g3399
sg63
(lp3406
S'/Music_Repo/default/index'
p3407
asbasbasbag56
(g72
g58
NtRp3408
(dp3409
g61
(dp3410
sg70
g3365
sg63
(lp3411
g56
(g77
g58
NtRp3412
(dp3413
g61
(dp3414
sg70
g3408
sg63
(lp3415
g56
(g57
g58
NtRp3416
(dp3417
g61
(dp3418
g69
I3
ssg70
g3412
sg63
(lp3419
g56
(g65
g58
NtRp3420
(dp3421
g61
(dp3422
g69
I2
ssg70
Nsg63
(lp3423
sbasbasbasbasbasbasbasbag56
(g72
g58
NtRp3424
(dp3425
g61
(dp3426
sg70
g3349
sg63
(lp3427
g56
(g77
g58
NtRp3428
(dp3429
g61
(dp3430
sg70
g3424
sg63
(lp3431
g56
(g57
g58
NtRp3432
(dp3433
g61
(dp3434
g69
I4
ssg70
g3428
sg63
(lp3435
g56
(g65
g58
NtRp3436
(dp3437
g61
(dp3438
g69
I3
ssg70
Nsg63
(lp3439
g56
(g72
g58
NtRp3440
(dp3441
g61
(dp3442
sg70
g3436
sg63
(lp3443
g56
(g77
g58
NtRp3444
(dp3445
g61
(dp3446
sg70
g3440
sg63
(lp3447
g56
(g57
g58
NtRp3448
(dp3449
g61
(dp3450
g69
I3
ssg70
g3444
sg63
(lp3451
g3381
(S's\x08\x00\x00\x00This App'
tRp3452
asbasbasbag56
(g72
g58
NtRp3453
(dp3454
g61
(dp3455
sg70
g3436
sg63
(lp3456
g56
(g77
g58
NtRp3457
(dp3458
g61
(dp3459
sg70
g3453
sg63
(lp3460
g56
(g57
g58
NtRp3461
(dp3462
g61
(dp3463
g69
I3
ssg70
g3457
sg63
(lp3464
g99
asbasbasbag56
(g72
g58
NtRp3465
(dp3466
g61
(dp3467
sg70
g3436
sg63
(lp3468
g56
(g77
g58
NtRp3469
(dp3470
g61
(dp3471
sg70
g3465
sg63
(lp3472
g56
(g57
g58
NtRp3473
(dp3474
g61
(dp3475
g69
I3
ssg70
g3469
sg63
(lp3476
S'/admin/default/design/Music_Repo'
p3477
asbasbasbag56
(g72
g58
NtRp3478
(dp3479
g61
(dp3480
sg70
g3436
sg63
(lp3481
g56
(g77
g58
NtRp3482
(dp3483
g61
(dp3484
sg70
g3478
sg63
(lp3485
g56
(g57
g58
NtRp3486
(dp3487
g61
(dp3488
g69
I3
ssg70
g3482
sg63
(lp3489
g56
(g65
g58
NtRp3490
(dp3491
g61
(dp3492
g69
I2
ssg70
Nsg63
(lp3493
g56
(g72
g58
NtRp3494
(dp3495
g61
(dp3496
sg70
g3490
sg63
(lp3497
g56
(g77
g58
NtRp3498
(dp3499
g61
(dp3500
sg70
g3494
sg63
(lp3501
g56
(g57
g58
NtRp3502
(dp3503
g61
(dp3504
g69
I2
ssg70
g3498
sg63
(lp3505
g56
(g65
g58
NtRp3506
(dp3507
g61
(dp3508
g69
I1
ssg70
Nsg63
(lp3509
g56
(g72
g58
NtRp3510
(dp3511
g61
(dp3512
sg70
g3506
sg63
(lp3513
g56
(g77
g58
NtRp3514
(dp3515
g61
(dp3516
sg70
g3510
sg63
(lp3517
g56
(g57
g58
NtRp3518
(dp3519
g61
(dp3520
g69
I1
ssg70
g3514
sg63
(lp3521
g3381
(S's\n\x00\x00\x00Controller'
tRp3522
asbasbasbag56
(g72
g58
NtRp3523
(dp3524
g61
(dp3525
sg70
g3506
sg63
(lp3526
g56
(g77
g58
NtRp3527
(dp3528
g61
(dp3529
sg70
g3523
sg63
(lp3530
g56
(g57
g58
NtRp3531
(dp3532
g61
(dp3533
g69
I1
ssg70
g3527
sg63
(lp3534
I00
asbasbasbag56
(g72
g58
NtRp3535
(dp3536
g61
(dp3537
sg70
g3506
sg63
(lp3538
g56
(g77
g58
NtRp3539
(dp3540
g61
(dp3541
sg70
g3535
sg63
(lp3542
g56
(g57
g58
NtRp3543
(dp3544
g61
(dp3545
g69
I1
ssg70
g3539
sg63
(lp3546
S'/admin/default/edit/Music_Repo/controllers/default.py'
p3547
asbasbasbasbasbasbasbag56
(g72
g58
NtRp3548
(dp3549
g61
(dp3550
sg70
g3490
sg63
(lp3551
g56
(g77
g58
NtRp3552
(dp3553
g61
(dp3554
sg70
g3548
sg63
(lp3555
g56
(g57
g58
NtRp3556
(dp3557
g61
(dp3558
g69
I2
ssg70
g3552
sg63
(lp3559
g56
(g65
g58
NtRp3560
(dp3561
g61
(dp3562
g69
I1
ssg70
Nsg63
(lp3563
g56
(g72
g58
NtRp3564
(dp3565
g61
(dp3566
sg70
g3560
sg63
(lp3567
g56
(g77
g58
NtRp3568
(dp3569
g61
(dp3570
sg70
g3564
sg63
(lp3571
g56
(g57
g58
NtRp3572
(dp3573
g61
(dp3574
g69
I1
ssg70
g3568
sg63
(lp3575
g3381
(S's\x04\x00\x00\x00View'
tRp3576
asbasbasbag56
(g72
g58
NtRp3577
(dp3578
g61
(dp3579
sg70
g3560
sg63
(lp3580
g56
(g77
g58
NtRp3581
(dp3582
g61
(dp3583
sg70
g3577
sg63
(lp3584
g56
(g57
g58
NtRp3585
(dp3586
g61
(dp3587
g69
I1
ssg70
g3581
sg63
(lp3588
I00
asbasbasbag56
(g72
g58
NtRp3589
(dp3590
g61
(dp3591
sg70
g3560
sg63
(lp3592
g56
(g77
g58
NtRp3593
(dp3594
g61
(dp3595
sg70
g3589
sg63
(lp3596
g56
(g57
g58
NtRp3597
(dp3598
g61
(dp3599
g69
I1
ssg70
g3593
sg63
(lp3600
S'/admin/default/edit/Music_Repo/views/default/display_link.html'
p3601
asbasbasbasbasbasbasbag56
(g72
g58
NtRp3602
(dp3603
g61
(dp3604
sg70
g3490
sg63
(lp3605
g56
(g77
g58
NtRp3606
(dp3607
g61
(dp3608
sg70
g3602
sg63
(lp3609
g56
(g57
g58
NtRp3610
(dp3611
g61
(dp3612
g69
I2
ssg70
g3606
sg63
(lp3613
g56
(g65
g58
NtRp3614
(dp3615
g61
(dp3616
g69
I1
ssg70
Nsg63
(lp3617
g56
(g72
g58
NtRp3618
(dp3619
g61
(dp3620
sg70
g3614
sg63
(lp3621
g56
(g77
g58
NtRp3622
(dp3623
g61
(dp3624
sg70
g3618
sg63
(lp3625
g56
(g57
g58
NtRp3626
(dp3627
g61
(dp3628
g69
I1
ssg70
g3622
sg63
(lp3629
g3381
(S's\x06\x00\x00\x00Layout'
tRp3630
asbasbasbag56
(g72
g58
NtRp3631
(dp3632
g61
(dp3633
sg70
g3614
sg63
(lp3634
g56
(g77
g58
NtRp3635
(dp3636
g61
(dp3637
sg70
g3631
sg63
(lp3638
g56
(g57
g58
NtRp3639
(dp3640
g61
(dp3641
g69
I1
ssg70
g3635
sg63
(lp3642
I00
asbasbasbag56
(g72
g58
NtRp3643
(dp3644
g61
(dp3645
sg70
g3614
sg63
(lp3646
g56
(g77
g58
NtRp3647
(dp3648
g61
(dp3649
sg70
g3643
sg63
(lp3650
g56
(g57
g58
NtRp3651
(dp3652
g61
(dp3653
g69
I1
ssg70
g3647
sg63
(lp3654
S'/admin/default/edit/Music_Repo/views/layout.html'
p3655
asbasbasbasbasbasbasbag56
(g72
g58
NtRp3656
(dp3657
g61
(dp3658
sg70
g3490
sg63
(lp3659
g56
(g77
g58
NtRp3660
(dp3661
g61
(dp3662
sg70
g3656
sg63
(lp3663
g56
(g57
g58
NtRp3664
(dp3665
g61
(dp3666
g69
I2
ssg70
g3660
sg63
(lp3667
g56
(g65
g58
NtRp3668
(dp3669
g61
(dp3670
g69
I1
ssg70
Nsg63
(lp3671
g56
(g72
g58
NtRp3672
(dp3673
g61
(dp3674
sg70
g3668
sg63
(lp3675
g56
(g77
g58
NtRp3676
(dp3677
g61
(dp3678
sg70
g3672
sg63
(lp3679
g56
(g57
g58
NtRp3680
(dp3681
g61
(dp3682
g69
I1
ssg70
g3676
sg63
(lp3683
g3381
(S's\n\x00\x00\x00Stylesheet'
tRp3684
asbasbasbag56
(g72
g58
NtRp3685
(dp3686
g61
(dp3687
sg70
g3668
sg63
(lp3688
g56
(g77
g58
NtRp3689
(dp3690
g61
(dp3691
sg70
g3685
sg63
(lp3692
g56
(g57
g58
NtRp3693
(dp3694
g61
(dp3695
g69
I1
ssg70
g3689
sg63
(lp3696
I00
asbasbasbag56
(g72
g58
NtRp3697
(dp3698
g61
(dp3699
sg70
g3668
sg63
(lp3700
g56
(g77
g58
NtRp3701
(dp3702
g61
(dp3703
sg70
g3697
sg63
(lp3704
g56
(g57
g58
NtRp3705
(dp3706
g61
(dp3707
g69
I1
ssg70
g3701
sg63
(lp3708
S'/admin/default/edit/Music_Repo/static/base.css'
p3709
asbasbasbasbasbasbasbag56
(g72
g58
NtRp3710
(dp3711
g61
(dp3712
sg70
g3490
sg63
(lp3713
g56
(g77
g58
NtRp3714
(dp3715
g61
(dp3716
sg70
g3710
sg63
(lp3717
g56
(g57
g58
NtRp3718
(dp3719
g61
(dp3720
g69
I2
ssg70
g3714
sg63
(lp3721
g56
(g65
g58
NtRp3722
(dp3723
g61
(dp3724
g69
I1
ssg70
Nsg63
(lp3725
g56
(g72
g58
NtRp3726
(dp3727
g61
(dp3728
sg70
g3722
sg63
(lp3729
g56
(g77
g58
NtRp3730
(dp3731
g61
(dp3732
sg70
g3726
sg63
(lp3733
g56
(g57
g58
NtRp3734
(dp3735
g61
(dp3736
g69
I1
ssg70
g3730
sg63
(lp3737
g3381
(S's\x08\x00\x00\x00DB Model'
tRp3738
asbasbasbag56
(g72
g58
NtRp3739
(dp3740
g61
(dp3741
sg70
g3722
sg63
(lp3742
g56
(g77
g58
NtRp3743
(dp3744
g61
(dp3745
sg70
g3739
sg63
(lp3746
g56
(g57
g58
NtRp3747
(dp3748
g61
(dp3749
g69
I1
ssg70
g3743
sg63
(lp3750
I00
asbasbasbag56
(g72
g58
NtRp3751
(dp3752
g61
(dp3753
sg70
g3722
sg63
(lp3754
g56
(g77
g58
NtRp3755
(dp3756
g61
(dp3757
sg70
g3751
sg63
(lp3758
g56
(g57
g58
NtRp3759
(dp3760
g61
(dp3761
g69
I1
ssg70
g3755
sg63
(lp3762
S'/admin/default/edit/Music_Repo/models/db.py'
p3763
asbasbasbasbasbasbasbag56
(g72
g58
NtRp3764
(dp3765
g61
(dp3766
sg70
g3490
sg63
(lp3767
g56
(g77
g58
NtRp3768
(dp3769
g61
(dp3770
sg70
g3764
sg63
(lp3771
g56
(g57
g58
NtRp3772
(dp3773
g61
(dp3774
g69
I2
ssg70
g3768
sg63
(lp3775
g56
(g65
g58
NtRp3776
(dp3777
g61
(dp3778
g69
I1
ssg70
Nsg63
(lp3779
g56
(g72
g58
NtRp3780
(dp3781
g61
(dp3782
sg70
g3776
sg63
(lp3783
g56
(g77
g58
NtRp3784
(dp3785
g61
(dp3786
sg70
g3780
sg63
(lp3787
g56
(g57
g58
NtRp3788
(dp3789
g61
(dp3790
g69
I1
ssg70
g3784
sg63
(lp3791
g3381
(S's\n\x00\x00\x00Menu Model'
tRp3792
asbasbasbag56
(g72
g58
NtRp3793
(dp3794
g61
(dp3795
sg70
g3776
sg63
(lp3796
g56
(g77
g58
NtRp3797
(dp3798
g61
(dp3799
sg70
g3793
sg63
(lp3800
g56
(g57
g58
NtRp3801
(dp3802
g61
(dp3803
g69
I1
ssg70
g3797
sg63
(lp3804
I00
asbasbasbag56
(g72
g58
NtRp3805
(dp3806
g61
(dp3807
sg70
g3776
sg63
(lp3808
g56
(g77
g58
NtRp3809
(dp3810
g61
(dp3811
sg70
g3805
sg63
(lp3812
g56
(g57
g58
NtRp3813
(dp3814
g61
(dp3815
g69
I1
ssg70
g3809
sg63
(lp3816
S'/admin/default/edit/Music_Repo/models/menu.py'
p3817
asbasbasbasbasbasbasbag56
(g72
g58
NtRp3818
(dp3819
g61
(dp3820
sg70
g3490
sg63
(lp3821
g56
(g77
g58
NtRp3822
(dp3823
g61
(dp3824
sg70
g3818
sg63
(lp3825
g56
(g57
g58
NtRp3826
(dp3827
g61
(dp3828
g69
I2
ssg70
g3822
sg63
(lp3829
g56
(g65
g58
NtRp3830
(dp3831
g61
(dp3832
g69
I1
ssg70
Nsg63
(lp3833
g56
(g72
g58
NtRp3834
(dp3835
g61
(dp3836
sg70
g3830
sg63
(lp3837
g56
(g77
g58
NtRp3838
(dp3839
g61
(dp3840
sg70
g3834
sg63
(lp3841
g56
(g57
g58
NtRp3842
(dp3843
g61
(dp3844
g69
I1
ssg70
g3838
sg63
(lp3845
g3381
(S's\x08\x00\x00\x00Database'
tRp3846
asbasbasbag56
(g72
g58
NtRp3847
(dp3848
g61
(dp3849
sg70
g3830
sg63
(lp3850
g56
(g77
g58
NtRp3851
(dp3852
g61
(dp3853
sg70
g3847
sg63
(lp3854
g56
(g57
g58
NtRp3855
(dp3856
g61
(dp3857
g69
I1
ssg70
g3851
sg63
(lp3858
I00
asbasbasbag56
(g72
g58
NtRp3859
(dp3860
g61
(dp3861
sg70
g3830
sg63
(lp3862
g56
(g77
g58
NtRp3863
(dp3864
g61
(dp3865
sg70
g3859
sg63
(lp3866
g56
(g57
g58
NtRp3867
(dp3868
g61
(dp3869
g69
I1
ssg70
g3863
sg63
(lp3870
S'/Music_Repo/appadmin/index'
p3871
asbasbasbasbasbasbasbag56
(g72
g58
NtRp3872
(dp3873
g61
(dp3874
sg70
g3490
sg63
(lp3875
g56
(g77
g58
NtRp3876
(dp3877
g61
(dp3878
sg70
g3872
sg63
(lp3879
g56
(g57
g58
NtRp3880
(dp3881
g61
(dp3882
g69
I2
ssg70
g3876
sg63
(lp3883
g56
(g65
g58
NtRp3884
(dp3885
g61
(dp3886
g69
I1
ssg70
Nsg63
(lp3887
g56
(g72
g58
NtRp3888
(dp3889
g61
(dp3890
sg70
g3884
sg63
(lp3891
g56
(g77
g58
NtRp3892
(dp3893
g61
(dp3894
sg70
g3888
sg63
(lp3895
g56
(g57
g58
NtRp3896
(dp3897
g61
(dp3898
g69
I1
ssg70
g3892
sg63
(lp3899
g3381
(S's\x06\x00\x00\x00Errors'
tRp3900
asbasbasbag56
(g72
g58
NtRp3901
(dp3902
g61
(dp3903
sg70
g3884
sg63
(lp3904
g56
(g77
g58
NtRp3905
(dp3906
g61
(dp3907
sg70
g3901
sg63
(lp3908
g56
(g57
g58
NtRp3909
(dp3910
g61
(dp3911
g69
I1
ssg70
g3905
sg63
(lp3912
I00
asbasbasbag56
(g72
g58
NtRp3913
(dp3914
g61
(dp3915
sg70
g3884
sg63
(lp3916
g56
(g77
g58
NtRp3917
(dp3918
g61
(dp3919
sg70
g3913
sg63
(lp3920
g56
(g57
g58
NtRp3921
(dp3922
g61
(dp3923
g69
I1
ssg70
g3917
sg63
(lp3924
S'/admin/default/errors/Music_Repo'
p3925
asbasbasbasbasbasbasbag56
(g72
g58
NtRp3926
(dp3927
g61
(dp3928
sg70
g3490
sg63
(lp3929
g56
(g77
g58
NtRp3930
(dp3931
g61
(dp3932
sg70
g3926
sg63
(lp3933
g56
(g57
g58
NtRp3934
(dp3935
g61
(dp3936
g69
I2
ssg70
g3930
sg63
(lp3937
g56
(g65
g58
NtRp3938
(dp3939
g61
(dp3940
g69
I1
ssg70
Nsg63
(lp3941
g56
(g72
g58
NtRp3942
(dp3943
g61
(dp3944
sg70
g3938
sg63
(lp3945
g56
(g77
g58
NtRp3946
(dp3947
g61
(dp3948
sg70
g3942
sg63
(lp3949
g56
(g57
g58
NtRp3950
(dp3951
g61
(dp3952
g69
I1
ssg70
g3946
sg63
(lp3953
g3381
(S's\x05\x00\x00\x00About'
tRp3954
asbasbasbag56
(g72
g58
NtRp3955
(dp3956
g61
(dp3957
sg70
g3938
sg63
(lp3958
g56
(g77
g58
NtRp3959
(dp3960
g61
(dp3961
sg70
g3955
sg63
(lp3962
g56
(g57
g58
NtRp3963
(dp3964
g61
(dp3965
g69
I1
ssg70
g3959
sg63
(lp3966
I00
asbasbasbag56
(g72
g58
NtRp3967
(dp3968
g61
(dp3969
sg70
g3938
sg63
(lp3970
g56
(g77
g58
NtRp3971
(dp3972
g61
(dp3973
sg70
g3967
sg63
(lp3974
g56
(g57
g58
NtRp3975
(dp3976
g61
(dp3977
g69
I1
ssg70
g3971
sg63
(lp3978
S'/admin/default/about/Music_Repo'
p3979
asbasbasbasbasbasbasbasbasbasbasbasbasbasbasbag56
(g72
g58
NtRp3980
(dp3981
g61
(dp3982
sg70
g3349
sg63
(lp3983
g56
(g77
g58
NtRp3984
(dp3985
g61
(dp3986
sg70
g3980
sg63
(lp3987
g56
(g57
g58
NtRp3988
(dp3989
g61
(dp3990
g69
I4
ssg70
g3984
sg63
(lp3991
g56
(g65
g58
NtRp3992
(dp3993
g61
(dp3994
g69
I3
ssg70
Nsg63
(lp3995
g56
(g72
g58
NtRp3996
(dp3997
g61
(dp3998
sg70
g3992
sg63
(lp3999
g56
(g77
g58
NtRp4000
(dp4001
g61
(dp4002
sg70
g3996
sg63
(lp4003
g56
(g57
g58
NtRp4004
(dp4005
g61
(dp4006
g69
I3
ssg70
g4000
sg63
(lp4007
g3381
(S's\t\x00\x00\x00Resources'
tRp4008
asbasbasbag56
(g72
g58
NtRp4009
(dp4010
g61
(dp4011
sg70
g3992
sg63
(lp4012
g56
(g77
g58
NtRp4013
(dp4014
g61
(dp4015
sg70
g4009
sg63
(lp4016
g56
(g57
g58
NtRp4017
(dp4018
g61
(dp4019
g69
I3
ssg70
g4013
sg63
(lp4020
g99
asbasbasbag56
(g72
g58
NtRp4021
(dp4022
g61
(dp4023
sg70
g3992
sg63
(lp4024
g56
(g77
g58
NtRp4025
(dp4026
g61
(dp4027
sg70
g4021
sg63
(lp4028
g56
(g57
g58
NtRp4029
(dp4030
g61
(dp4031
g69
I3
ssg70
g4025
sg63
(lp4032
S'None'
p4033
asbasbasbag56
(g72
g58
NtRp4034
(dp4035
g61
(dp4036
sg70
g3992
sg63
(lp4037
g56
(g77
g58
NtRp4038
(dp4039
g61
(dp4040
sg70
g4034
sg63
(lp4041
g56
(g57
g58
NtRp4042
(dp4043
g61
(dp4044
g69
I3
ssg70
g4038
sg63
(lp4045
g56
(g65
g58
NtRp4046
(dp4047
g61
(dp4048
g69
I2
ssg70
Nsg63
(lp4049
g56
(g72
g58
NtRp4050
(dp4051
g61
(dp4052
sg70
g4046
sg63
(lp4053
g56
(g77
g58
NtRp4054
(dp4055
g61
(dp4056
sg70
g4050
sg63
(lp4057
g56
(g57
g58
NtRp4058
(dp4059
g61
(dp4060
g69
I2
ssg70
g4054
sg63
(lp4061
g56
(g65
g58
NtRp4062
(dp4063
g61
(dp4064
g69
I1
ssg70
Nsg63
(lp4065
g56
(g72
g58
NtRp4066
(dp4067
g61
(dp4068
sg70
g4062
sg63
(lp4069
g56
(g77
g58
NtRp4070
(dp4071
g61
(dp4072
sg70
g4066
sg63
(lp4073
g56
(g57
g58
NtRp4074
(dp4075
g61
(dp4076
g69
I1
ssg70
g4070
sg63
(lp4077
g3381
(S's\r\x00\x00\x00Documentation'
tRp4078
asbasbasbag56
(g72
g58
NtRp4079
(dp4080
g61
(dp4081
sg70
g4062
sg63
(lp4082
g56
(g77
g58
NtRp4083
(dp4084
g61
(dp4085
sg70
g4079
sg63
(lp4086
g56
(g57
g58
NtRp4087
(dp4088
g61
(dp4089
g69
I1
ssg70
g4083
sg63
(lp4090
I00
asbasbasbag56
(g72
g58
NtRp4091
(dp4092
g61
(dp4093
sg70
g4062
sg63
(lp4094
g56
(g77
g58
NtRp4095
(dp4096
g61
(dp4097
sg70
g4091
sg63
(lp4098
g56
(g57
g58
NtRp4099
(dp4100
g61
(dp4101
g69
I1
ssg70
g4095
sg63
(lp4102
S'http://www.web2py.com/book'
p4103
asbasbasbag56
(g72
g58
NtRp4104
(dp4105
g61
(dp4106
sg70
g4062
sg63
(lp4107
g56
(g77
g58
NtRp4108
(dp4109
g61
(dp4110
sg70
g4104
sg63
(lp4111
g56
(g57
g58
NtRp4112
(dp4113
g61
(dp4114
g69
I1
ssg70
g4108
sg63
(lp4115
(lp4116
(g3381
(S's\x07\x00\x00\x00Preface'
tRp4117
I00
S'http://www.web2py.com/book/default/chapter/00'
tp4118
a(g3381
(S's\x0c\x00\x00\x00Introduction'
tRp4119
I00
S'http://www.web2py.com/book/default/chapter/01'
tp4120
a(g3381
(S's\x06\x00\x00\x00Python'
tRp4121
I00
S'http://www.web2py.com/book/default/chapter/02'
tp4122
a(g3381
(S's\x08\x00\x00\x00Overview'
tRp4123
I00
S'http://www.web2py.com/book/default/chapter/03'
tp4124
a(g3381
(S's\x08\x00\x00\x00The Core'
tRp4125
I00
S'http://www.web2py.com/book/default/chapter/04'
tp4126
a(g3381
(S's\t\x00\x00\x00The Views'
tRp4127
I00
S'http://www.web2py.com/book/default/chapter/05'
tp4128
a(g3381
(S's\x08\x00\x00\x00Database'
tRp4129
I00
S'http://www.web2py.com/book/default/chapter/06'
tp4130
a(g3381
(S's\x14\x00\x00\x00Forms and Validators'
tRp4131
I00
S'http://www.web2py.com/book/default/chapter/07'
tp4132
a(g3381
(S's\x0e\x00\x00\x00Access Control'
tRp4133
I00
S'http://www.web2py.com/book/default/chapter/08'
tp4134
a(g3381
(S's\x08\x00\x00\x00Services'
tRp4135
I00
S'http://www.web2py.com/book/default/chapter/09'
tp4136
a(g3381
(S's\x0c\x00\x00\x00Ajax Recipes'
tRp4137
I00
S'http://www.web2py.com/book/default/chapter/10'
tp4138
a(g3381
(S's\x12\x00\x00\x00Deployment Recipes'
tRp4139
I00
S'http://www.web2py.com/book/default/chapter/11'
tp4140
a(g3381
(S's\r\x00\x00\x00Other Recipes'
tRp4141
I00
S'http://www.web2py.com/book/default/chapter/12'
tp4142
a(g3381
(S's\r\x00\x00\x00Buy this book'
tRp4143
I00
S'http://stores.lulu.com/web2py'
tp4144
aasbasbasbasbasbasbasbag56
(g72
g58
NtRp4145
(dp4146
g61
(dp4147
sg70
g4046
sg63
(lp4148
g56
(g77
g58
NtRp4149
(dp4150
g61
(dp4151
sg70
g4145
sg63
(lp4152
g56
(g57
g58
NtRp4153
(dp4154
g61
(dp4155
g69
I2
ssg70
g4149
sg63
(lp4156
g56
(g65
g58
NtRp4157
(dp4158
g61
(dp4159
g69
I1
ssg70
Nsg63
(lp4160
g56
(g72
g58
NtRp4161
(dp4162
g61
(dp4163
sg70
g4157
sg63
(lp4164
g56
(g77
g58
NtRp4165
(dp4166
g61
(dp4167
sg70
g4161
sg63
(lp4168
g56
(g57
g58
NtRp4169
(dp4170
g61
(dp4171
g69
I1
ssg70
g4165
sg63
(lp4172
g3381
(S's\t\x00\x00\x00Community'
tRp4173
asbasbasbag56
(g72
g58
NtRp4174
(dp4175
g61
(dp4176
sg70
g4157
sg63
(lp4177
g56
(g77
g58
NtRp4178
(dp4179
g61
(dp4180
sg70
g4174
sg63
(lp4181
g56
(g57
g58
NtRp4182
(dp4183
g61
(dp4184
g69
I1
ssg70
g4178
sg63
(lp4185
I00
asbasbasbag56
(g72
g58
NtRp4186
(dp4187
g61
(dp4188
sg70
g4157
sg63
(lp4189
g56
(g77
g58
NtRp4190
(dp4191
g61
(dp4192
sg70
g4186
sg63
(lp4193
g56
(g57
g58
NtRp4194
(dp4195
g61
(dp4196
g69
I1
ssg70
g4190
sg63
(lp4197
Nasbasbasbag56
(g72
g58
NtRp4198
(dp4199
g61
(dp4200
sg70
g4157
sg63
(lp4201
g56
(g77
g58
NtRp4202
(dp4203
g61
(dp4204
sg70
g4198
sg63
(lp4205
g56
(g57
g58
NtRp4206
(dp4207
g61
(dp4208
g69
I1
ssg70
g4202
sg63
(lp4209
(lp4210
(g3381
(S's\x06\x00\x00\x00Groups'
tRp4211
I00
S'http://www.web2py.com/examples/default/usergroups'
tp4212
a(g3381
(S's\x07\x00\x00\x00Twitter'
tRp4213
I00
S'http://twitter.com/web2py'
tp4214
a(g3381
(S's\t\x00\x00\x00Live chat'
tRp4215
I00
S'http://mibbit.com/?channel=%23web2py&server=irc.mibbit.net'
tp4216
a(g3381
(S's\n\x00\x00\x00User Voice'
tRp4217
I00
S'http://web2py.uservoice.com/'
tp4218
aasbasbasbasbasbasbasbag56
(g72
g58
NtRp4219
(dp4220
g61
(dp4221
sg70
g4046
sg63
(lp4222
g56
(g77
g58
NtRp4223
(dp4224
g61
(dp4225
sg70
g4219
sg63
(lp4226
g56
(g57
g58
NtRp4227
(dp4228
g61
(dp4229
g69
I2
ssg70
g4223
sg63
(lp4230
g56
(g65
g58
NtRp4231
(dp4232
g61
(dp4233
g69
I1
ssg70
Nsg63
(lp4234
g56
(g72
g58
NtRp4235
(dp4236
g61
(dp4237
sg70
g4231
sg63
(lp4238
g56
(g77
g58
NtRp4239
(dp4240
g61
(dp4241
sg70
g4235
sg63
(lp4242
g56
(g57
g58
NtRp4243
(dp4244
g61
(dp4245
g69
I1
ssg70
g4239
sg63
(lp4246
g3381
(S's\x06\x00\x00\x00Web2py'
tRp4247
asbasbasbag56
(g72
g58
NtRp4248
(dp4249
g61
(dp4250
sg70
g4231
sg63
(lp4251
g56
(g77
g58
NtRp4252
(dp4253
g61
(dp4254
sg70
g4248
sg63
(lp4255
g56
(g57
g58
NtRp4256
(dp4257
g61
(dp4258
g69
I1
ssg70
g4252
sg63
(lp4259
I00
asbasbasbag56
(g72
g58
NtRp4260
(dp4261
g61
(dp4262
sg70
g4231
sg63
(lp4263
g56
(g77
g58
NtRp4264
(dp4265
g61
(dp4266
sg70
g4260
sg63
(lp4267
g56
(g57
g58
NtRp4268
(dp4269
g61
(dp4270
g69
I1
ssg70
g4264
sg63
(lp4271
S'http://www.web2py.com'
p4272
asbasbasbag56
(g72
g58
NtRp4273
(dp4274
g61
(dp4275
sg70
g4231
sg63
(lp4276
g56
(g77
g58
NtRp4277
(dp4278
g61
(dp4279
sg70
g4273
sg63
(lp4280
g56
(g57
g58
NtRp4281
(dp4282
g61
(dp4283
g69
I1
ssg70
g4277
sg63
(lp4284
(lp4285
(g3381
(S's\x08\x00\x00\x00Download'
tRp4286
I00
S'http://www.web2py.com/examples/default/download'
tp4287
a(g3381
(S's\x07\x00\x00\x00Support'
tRp4288
I00
S'http://www.web2py.com/examples/default/support'
tp4289
a(g3381
(S's\x0e\x00\x00\x00Quick Examples'
tRp4290
I00
S'http://web2py.com/examples/default/examples'
tp4291
a(g3381
(S's\x03\x00\x00\x00FAQ'
tRp4292
I00
S'http://web2py.com/AlterEgo'
tp4293
a(g3381
(S's\x11\x00\x00\x00Free Applications'
tRp4294
I00
S'http://web2py.com/appliances'
tp4295
a(g3381
(S's\x07\x00\x00\x00Plugins'
tRp4296
I00
S'http://web2py.com/plugins'
tp4297
a(g3381
(S's\x07\x00\x00\x00Recipes'
tRp4298
I00
S'http://web2pyslices.com/'
tp4299
a(g3381
(S's\x04\x00\x00\x00Demo'
tRp4300
I00
S'http://web2py.com/demo_admin'
tp4301
a(g3381
(S's\x08\x00\x00\x00Semantic'
tRp4302
I00
S'http://web2py.com/semantic'
tp4303
a(g3381
(S's\x07\x00\x00\x00Layouts'
tRp4304
I00
S'http://web2py.com/layouts'
tp4305
a(g3381
(S's\x06\x00\x00\x00Videos'
tRp4306
I00
S'http://www.web2py.com/examples/default/videos/'
tp4307
aasbasbasbasbasbasbasbasbasbasbasbasbasbasbasbasbasbasbasbag56
(g72
g58
NtRp4308
(dp4309
g61
(dp4310
sg70
g2798
sg63
(lp4311
g56
(g77
g58
NtRp4312
(dp4313
g61
(dp4314
g81
g82
ssg70
g4308
sg63
(lp4315
S'meta'
p4316
asbag56
(g77
g58
NtRp4317
(dp4318
g61
(dp4319
g88
g89
ssg70
g4308
sg63
(lp4320
S':'
asbag56
(g77
g58
NtRp4321
(dp4322
g61
(dp4323
sg70
g4308
sg63
(lp4324
g56
(g57
g58
NtRp4325
(dp4326
g61
(dp4327
g69
I5
ssg70
g4321
sg63
(lp4328
g56
(g65
g58
NtRp4329
(dp4330
g61
(dp4331
g69
I4
ssg70
Nsg63
(lp4332
g56
(g72
g58
NtRp4333
(dp4334
g61
(dp4335
sg70
g4329
sg63
(lp4336
g56
(g77
g58
NtRp4337
(dp4338
g61
(dp4339
g81
g82
ssg70
g4333
sg63
(lp4340
S'author'
p4341
asbag56
(g77
g58
NtRp4342
(dp4343
g61
(dp4344
g88
g89
ssg70
g4333
sg63
(lp4345
S':'
asbag56
(g77
g58
NtRp4346
(dp4347
g61
(dp4348
sg70
g4333
sg63
(lp4349
g56
(g57
g58
NtRp4350
(dp4351
g61
(dp4352
g69
I4
ssg70
g4346
sg63
(lp4353
S'you'
p4354
asbasbasbag56
(g72
g58
NtRp4355
(dp4356
g61
(dp4357
sg70
g4329
sg63
(lp4358
g56
(g77
g58
NtRp4359
(dp4360
g61
(dp4361
g81
g82
ssg70
g4355
sg63
(lp4362
S'copyright'
p4363
asbag56
(g77
g58
NtRp4364
(dp4365
g61
(dp4366
g88
g89
ssg70
g4355
sg63
(lp4367
S':'
asbag56
(g77
g58
NtRp4368
(dp4369
g61
(dp4370
sg70
g4355
sg63
(lp4371
g56
(g57
g58
NtRp4372
(dp4373
g61
(dp4374
g69
I4
ssg70
g4368
sg63
(lp4375
S'Copyright 2007-2010'
p4376
asbasbasbag56
(g72
g58
NtRp4377
(dp4378
g61
(dp4379
sg70
g4329
sg63
(lp4380
g56
(g77
g58
NtRp4381
(dp4382
g61
(dp4383
g81
g82
ssg70
g4377
sg63
(lp4384
S'description'
p4385
asbag56
(g77
g58
NtRp4386
(dp4387
g61
(dp4388
g88
g89
ssg70
g4377
sg63
(lp4389
S':'
asbag56
(g77
g58
NtRp4390
(dp4391
g61
(dp4392
sg70
g4377
sg63
(lp4393
g56
(g57
g58
NtRp4394
(dp4395
g61
(dp4396
g69
I4
ssg70
g4390
sg63
(lp4397
S'Free and open source full-stack enterprise framework for agile development of fast, scalable, secure and portable database-driven web-based applications. Written and programmable in Python'
p4398
asbasbasbag56
(g72
g58
NtRp4399
(dp4400
g61
(dp4401
sg70
g4329
sg63
(lp4402
g56
(g77
g58
NtRp4403
(dp4404
g61
(dp4405
g81
g82
ssg70
g4399
sg63
(lp4406
S'generator'
p4407
asbag56
(g77
g58
NtRp4408
(dp4409
g61
(dp4410
g88
g89
ssg70
g4399
sg63
(lp4411
S':'
asbag56
(g77
g58
NtRp4412
(dp4413
g61
(dp4414
sg70
g4399
sg63
(lp4415
g56
(g57
g58
NtRp4416
(dp4417
g61
(dp4418
g69
I4
ssg70
g4412
sg63
(lp4419
S'Web2py Enterprise Framework'
p4420
asbasbasbag56
(g72
g58
NtRp4421
(dp4422
g61
(dp4423
sg70
g4329
sg63
(lp4424
g56
(g77
g58
NtRp4425
(dp4426
g61
(dp4427
g81
g82
ssg70
g4421
sg63
(lp4428
S'keywords'
p4429
asbag56
(g77
g58
NtRp4430
(dp4431
g61
(dp4432
g88
g89
ssg70
g4421
sg63
(lp4433
S':'
asbag56
(g77
g58
NtRp4434
(dp4435
g61
(dp4436
sg70
g4421
sg63
(lp4437
g56
(g57
g58
NtRp4438
(dp4439
g61
(dp4440
g69
I4
ssg70
g4434
sg63
(lp4441
S'web2py, python, framework'
p4442
asbasbasbasbasbasbasbag56
(g72
g58
NtRp4443
(dp4444
g61
(dp4445
sg70
g2798
sg63
(lp4446
g56
(g77
g58
NtRp4447
(dp4448
g61
(dp4449
g81
g82
ssg70
g4443
sg63
(lp4450
S'postprocessing'
p4451
asbag56
(g77
g58
NtRp4452
(dp4453
g61
(dp4454
g88
g89
ssg70
g4443
sg63
(lp4455
S':'
asbag56
(g77
g58
NtRp4456
(dp4457
g61
(dp4458
sg70
g4443
sg63
(lp4459
g56
(g57
g58
NtRp4460
(dp4461
g61
(dp4462
g69
I5
ssg70
g4456
sg63
(lp4463
g56
(g65
g58
NtRp4464
(dp4465
g61
(dp4466
g69
I4
ssg70
Nsg63
(lp4467
sbasbasbasbag56
(g72
g58
NtRp4468
(dp4469
g61
(dp4470
sg70
g2798
sg63
(lp4471
g56
(g77
g58
NtRp4472
(dp4473
g61
(dp4474
g81
g82
ssg70
g4468
sg63
(lp4475
S'session_file'
p4476
asbag56
(g77
g58
NtRp4477
(dp4478
g61
(dp4479
g88
g89
ssg70
g4468
sg63
(lp4480
S':'
asbag56
(g77
g58
NtRp4481
(dp4482
g61
(dp4483
sg70
g4468
sg63
(lp4484
g56
(g57
g58
NtRp4485
(dp4486
g61
(dp4487
g69
I5
ssg70
g4481
sg63
(lp4488
S"<open file '/home/vsvah/Desktop/Coursework/Sem3/SSAD/web2py/applications/Music_Repo/sessions/127.0.0.1-0cc5ad7f-61ca-479a-933d-b13352216d24', mode 'rb+' at 0xaacae38>"
p4489
asbasbasbag56
(g72
g58
NtRp4490
(dp4491
g61
(dp4492
sg70
g2798
sg63
(lp4493
g56
(g77
g58
NtRp4494
(dp4495
g61
(dp4496
g81
g82
ssg70
g4490
sg63
(lp4497
S'session_filename'
p4498
asbag56
(g77
g58
NtRp4499
(dp4500
g61
(dp4501
g88
g89
ssg70
g4490
sg63
(lp4502
S':'
asbag56
(g77
g58
NtRp4503
(dp4504
g61
(dp4505
sg70
g4490
sg63
(lp4506
g56
(g57
g58
NtRp4507
(dp4508
g61
(dp4509
g69
I5
ssg70
g4503
sg63
(lp4510
S'/home/vsvah/Desktop/Coursework/Sem3/SSAD/web2py/applications/Music_Repo/sessions/127.0.0.1-0cc5ad7f-61ca-479a-933d-b13352216d24'
p4511
asbasbasbag56
(g72
g58
NtRp4512
(dp4513
g61
(dp4514
sg70
g2798
sg63
(lp4515
g56
(g77
g58
NtRp4516
(dp4517
g61
(dp4518
g81
g82
ssg70
g4512
sg63
(lp4519
S'session_id'
p4520
asbag56
(g77
g58
NtRp4521
(dp4522
g61
(dp4523
g88
g89
ssg70
g4512
sg63
(lp4524
S':'
asbag56
(g77
g58
NtRp4525
(dp4526
g61
(dp4527
sg70
g4512
sg63
(lp4528
g56
(g57
g58
NtRp4529
(dp4530
g61
(dp4531
g69
I5
ssg70
g4525
sg63
(lp4532
S'127.0.0.1-0cc5ad7f-61ca-479a-933d-b13352216d24'
p4533
asbasbasbag56
(g72
g58
NtRp4534
(dp4535
g61
(dp4536
sg70
g2798
sg63
(lp4537
g56
(g77
g58
NtRp4538
(dp4539
g61
(dp4540
g81
g82
ssg70
g4534
sg63
(lp4541
S'session_id_name'
p4542
asbag56
(g77
g58
NtRp4543
(dp4544
g61
(dp4545
g88
g89
ssg70
g4534
sg63
(lp4546
S':'
asbag56
(g77
g58
NtRp4547
(dp4548
g61
(dp4549
sg70
g4534
sg63
(lp4550
g56
(g57
g58
NtRp4551
(dp4552
g61
(dp4553
g69
I5
ssg70
g4547
sg63
(lp4554
g2855
asbasbasbag56
(g72
g58
NtRp4555
(dp4556
g61
(dp4557
sg70
g2798
sg63
(lp4558
g56
(g77
g58
NtRp4559
(dp4560
g61
(dp4561
g81
g82
ssg70
g4555
sg63
(lp4562
S'session_locked'
p4563
asbag56
(g77
g58
NtRp4564
(dp4565
g61
(dp4566
g88
g89
ssg70
g4555
sg63
(lp4567
S':'
asbag56
(g77
g58
NtRp4568
(dp4569
g61
(dp4570
sg70
g4555
sg63
(lp4571
g56
(g57
g58
NtRp4572
(dp4573
g61
(dp4574
g69
I5
ssg70
g4568
sg63
(lp4575
g1634
asbasbasbag56
(g72
g58
NtRp4576
(dp4577
g61
(dp4578
sg70
g2798
sg63
(lp4579
g56
(g77
g58
NtRp4580
(dp4581
g61
(dp4582
g81
g82
ssg70
g4576
sg63
(lp4583
S'session_new'
p4584
asbag56
(g77
g58
NtRp4585
(dp4586
g61
(dp4587
g88
g89
ssg70
g4576
sg63
(lp4588
S':'
asbag56
(g77
g58
NtRp4589
(dp4590
g61
(dp4591
sg70
g4576
sg63
(lp4592
g56
(g57
g58
NtRp4593
(dp4594
g61
(dp4595
g69
I5
ssg70
g4589
sg63
(lp4596
g99
asbasbasbag56
(g72
g58
NtRp4597
(dp4598
g61
(dp4599
sg70
g2798
sg63
(lp4600
g56
(g77
g58
NtRp4601
(dp4602
g61
(dp4603
g81
g82
ssg70
g4597
sg63
(lp4604
S'status'
p4605
asbag56
(g77
g58
NtRp4606
(dp4607
g61
(dp4608
g88
g89
ssg70
g4597
sg63
(lp4609
S':'
asbag56
(g77
g58
NtRp4610
(dp4611
g61
(dp4612
sg70
g4597
sg63
(lp4613
g56
(g57
g58
NtRp4614
(dp4615
g61
(dp4616
g69
I5
ssg70
g4610
sg63
(lp4617
S'200'
p4618
asbasbasbag56
(g72
g58
NtRp4619
(dp4620
g61
(dp4621
sg70
g2798
sg63
(lp4622
g56
(g77
g58
NtRp4623
(dp4624
g61
(dp4625
g81
g82
ssg70
g4619
sg63
(lp4626
S'subtitle'
p4627
asbag56
(g77
g58
NtRp4628
(dp4629
g61
(dp4630
g88
g89
ssg70
g4619
sg63
(lp4631
S':'
asbag56
(g77
g58
NtRp4632
(dp4633
g61
(dp4634
sg70
g4619
sg63
(lp4635
g56
(g57
g58
NtRp4636
(dp4637
g61
(dp4638
g69
I5
ssg70
g4632
sg63
(lp4639
g3381
(S's\r\x00\x00\x00customize me!'
tRp4640
asbasbasbag56
(g72
g58
NtRp4641
(dp4642
g61
(dp4643
sg70
g2798
sg63
(lp4644
g56
(g77
g58
NtRp4645
(dp4646
g61
(dp4647
g81
g82
ssg70
g4641
sg63
(lp4648
S'title'
p4649
asbag56
(g77
g58
NtRp4650
(dp4651
g61
(dp4652
g88
g89
ssg70
g4641
sg63
(lp4653
S':'
asbag56
(g77
g58
NtRp4654
(dp4655
g61
(dp4656
sg70
g4641
sg63
(lp4657
g56
(g57
g58
NtRp4658
(dp4659
g61
(dp4660
g69
I5
ssg70
g4654
sg63
(lp4661
g121
asbasbasbag56
(g72
g58
NtRp4662
(dp4663
g61
(dp4664
sg70
g2798
sg63
(lp4665
g56
(g77
g58
NtRp4666
(dp4667
g61
(dp4668
g81
g82
ssg70
g4662
sg63
(lp4669
g1958
asbag56
(g77
g58
NtRp4670
(dp4671
g61
(dp4672
g88
g89
ssg70
g4662
sg63
(lp4673
S':'
asbag56
(g77
g58
NtRp4674
(dp4675
g61
(dp4676
sg70
g4662
sg63
(lp4677
g56
(g57
g58
NtRp4678
(dp4679
g61
(dp4680
g69
I5
ssg70
g4674
sg63
(lp4681
g1971
asbasbasbag56
(g72
g58
NtRp4682
(dp4683
g61
(dp4684
sg70
g2798
sg63
(lp4685
g56
(g77
g58
NtRp4686
(dp4687
g61
(dp4688
g81
g82
ssg70
g4682
sg63
(lp4689
S'view'
p4690
asbag56
(g77
g58
NtRp4691
(dp4692
g61
(dp4693
g88
g89
ssg70
g4682
sg63
(lp4694
S':'
asbag56
(g77
g58
NtRp4695
(dp4696
g61
(dp4697
sg70
g4682
sg63
(lp4698
g56
(g57
g58
NtRp4699
(dp4700
g61
(dp4701
g69
I5
ssg70
g4695
sg63
(lp4702
S'default/display_link.html'
p4703
asbasbasbasbasbsS'locals'
p4704
(dp4705
S'Service'
p4706
S"<class 'gluon.tools.Service'>"
p4707
sS'OBJECT'
p4708
S"<class 'gluon.html.OBJECT'>"
p4709
sS'_file'
p4710
S"'/Music_Repo/static/js/superfish.js'"
p4711
sS'SQLDB'
p4712
S"<class 'gluon.dal.DAL'>"
p4713
sg2715
S"<Storage {'_formkey[movie/create]': 'a4cc761b-0e...reate]': '358ae1b5-f529-40a8-bb4f-88bf771c058e'}>"
p4714
sS'LINK'
p4715
S"<class 'gluon.html.LINK'>"
p4716
sS'BR'
p4717
S"<class 'gluon.html.BR'>"
p4718
sS'local_import'
p4719
S'<function <lambda>>'
p4720
sS'OPTGROUP'
p4721
S"<class 'gluon.html.OPTGROUP'>"
p4722
sS'PRE'
p4723
S"<class 'gluon.html.PRE'>"
p4724
sS'IS_INT_IN_RANGE'
p4725
S"<class 'gluon.validators.IS_INT_IN_RANGE'>"
p4726
sS'left_sidebar_enabled'
p4727
g99
sS'IS_LOWER'
p4728
S"<class 'gluon.validators.IS_LOWER'>"
p4729
sS'IS_STRONG'
p4730
S"<class 'gluon.validators.IS_STRONG'>"
p4731
sS'cache'
p4732
S'<gluon.cache.Cache object>'
p4733
sS'IS_IN_DB'
p4734
S"<class 'gluon.validators.IS_IN_DB'>"
p4735
sS'TAG'
p4736
S'<gluon.html.__TAG__ object>'
p4737
sS'_k'
p4738
S'5'
sS'SQLField'
p4739
S"<class 'gluon.dal.Field'>"
p4740
sS'mail'
p4741
S'<gluon.tools.Mail object>'
p4742
sS'BODY'
p4743
S"<class 'gluon.html.BODY'>"
p4744
sS'IS_DATE_IN_RANGE'
p4745
S"<class 'gluon.validators.IS_DATE_IN_RANGE'>"
p4746
sS'TH'
p4747
S"<class 'gluon.html.TH'>"
p4748
sS'URL'
p4749
S'<function URL>'
p4750
sS'__file__'
p4751
S"'/home/vsvah/Desktop/Coursework/Sem3/SSAD/web2py/...ations/Music_Repo/views/default/display_link.html'"
p4752
sS'db'
p4753
S"<DAL {'auth_event': <Table {'origin': <gluon.dal..., 'id': <gluon.dal.Field object at 0xa63d2cc>}>}>"
p4754
sS'auth'
p4755
S'<gluon.tools.Auth object>'
p4756
sS'P'
S"<class 'gluon.html.P'>"
p4757
sS'TFOOT'
p4758
S"<class 'gluon.html.TFOOT'>"
p4759
sS'XHTML'
p4760
S"<class 'gluon.html.XHTML'>"
p4761
sS'datetime'
p4762
S"<module 'datetime' from '/usr/lib/python2.6/lib-dynload/datetime.so'>"
p4763
sS'ON'
p4764
g1634
sS'OL'
p4765
S"<class 'gluon.html.OL'>"
p4766
sS'TEXTAREA'
p4767
S"<class 'gluon.html.TEXTAREA'>"
p4768
sS'MENU'
p4769
S"<class 'gluon.html.MENU'>"
p4770
sS'_file0'
p4771
S"'/music_repo/static/js/superfish.js'"
p4772
sS'LOAD'
p4773
S'<gluon.compileapp.LoadFactory object>'
p4774
sS'CODE'
p4775
S"<class 'gluon.html.CODE'>"
p4776
sS'HTTP'
p4777
S"<class 'gluon.http.HTTP'>"
p4778
sS'HR'
p4779
S"<class 'gluon.html.HR'>"
p4780
sS'IS_DATETIME'
p4781
S"<class 'gluon.validators.IS_DATETIME'>"
p4782
sS'HEAD'
p4783
S"<class 'gluon.html.HEAD'>"
p4784
sS'LABEL'
p4785
S"<class 'gluon.html.LABEL'>"
p4786
sS'CLEANUP'
p4787
S"<class 'gluon.validators.CLEANUP'>"
p4788
sS'plugins'
p4789
S'<gluon.tools.PluginManager object>'
p4790
sS'SELECT'
p4791
S"<class 'gluon.html.SELECT'>"
p4792
sS'CENTER'
p4793
S"<class 'gluon.html.CENTER'>"
p4794
sS'left_sidebar_style'
p4795
S'\'style="display: none;"\''
p4796
sS'Crud'
p4797
S"<class 'gluon.tools.Crud'>"
p4798
sS'Auth'
p4799
S"<class 'gluon.tools.Auth'>"
p4800
sS'__builtins__'
p4801
S"{'ArithmeticError': <type 'exceptions.ArithmeticError'>, 'AssertionError': <type 'exceptions.AssertionError'>, 'AttributeError': <type 'exceptions.AttributeError'>, 'BaseException': <type 'exceptions.BaseException'>, 'BufferError': <type 'exceptions.BufferError'>, 'BytesWarning': <type 'exceptions.BytesWarning'>, 'DeprecationWarning': <type 'exceptions.DeprecationWarning'>, 'EOFError': <type 'exceptions.EOFError'>, 'Ellipsis': Ellipsis, 'EnvironmentError': <type 'exceptions.EnvironmentError'>, ...}"
p4802
sS'IS_LIST_OF'
p4803
S"<class 'gluon.validators.IS_LIST_OF'>"
p4804
sS'SQLFORM'
p4805
S"<class 'gluon.sqlhtml.SQLFORM'>"
p4806
sS'_item'
p4807
S"'author'"
p4808
sS'EM'
p4809
S"<class 'gluon.html.EM'>"
p4810
sS'redirect'
p4811
S'<function redirect>'
p4812
sS'FIELDSET'
p4813
S"<class 'gluon.html.FIELDSET'>"
p4814
sS'IS_EQUAL_TO'
p4815
S"<class 'gluon.validators.IS_EQUAL_TO'>"
p4816
sS'embed64'
p4817
S'<function embed64>'
p4818
sS'INPUT'
p4819
S"<class 'gluon.html.INPUT'>"
p4820
sS'EMBED'
p4821
S"<class 'gluon.html.EMBED'>"
p4822
sS'r'
S'<gluon.dal.Rows object>'
p4823
sS'FORM'
p4824
S"<class 'gluon.html.FORM'>"
p4825
sS'width_content'
p4826
S"'100%'"
p4827
sS'H2'
p4828
S"<class 'gluon.html.H2'>"
p4829
sS'H3'
p4830
S"<class 'gluon.html.H3'>"
p4831
sS'BUTTON'
p4832
S"<class 'gluon.html.BUTTON'>"
p4833
sS'H1'
p4834
S"<class 'gluon.html.H1'>"
p4835
sS'H6'
p4836
S"<class 'gluon.html.H6'>"
p4837
sS'H4'
p4838
S"<class 'gluon.html.H4'>"
p4839
sS'H5'
p4840
S"<class 'gluon.html.H5'>"
p4841
sS'UL'
p4842
S"<class 'gluon.html.UL'>"
p4843
sS'IS_UPPER'
p4844
S"<class 'gluon.validators.IS_UPPER'>"
p4845
sS'xmlescape'
p4846
S'<function xmlescape>'
p4847
sS'IS_TIME'
p4848
S"<class 'gluon.validators.IS_TIME'>"
p4849
sS'OPTION'
p4850
S"<class 'gluon.html.OPTION'>"
p4851
sS'TITLE'
p4852
S"<class 'gluon.html.TITLE'>"
p4853
sS'CRYPT'
p4854
S"<class 'gluon.validators.CRYPT'>"
p4855
sS'IS_EMPTY_OR'
p4856
S"<class 'gluon.validators.IS_EMPTY_OR'>"
p4857
sS'MARKMIN'
p4858
S"<class 'gluon.html.MARKMIN'>"
p4859
sS'service'
p4860
S'<gluon.tools.Service object>'
p4861
sS'SCRIPT'
p4862
S"<class 'gluon.html.SCRIPT'>"
p4863
sS'TABLE'
p4864
S"<class 'gluon.html.TABLE'>"
p4865
sS'IS_IPV4'
p4866
S"<class 'gluon.validators.IS_IPV4'>"
p4867
sS'IS_LENGTH'
p4868
S"<class 'gluon.validators.IS_LENGTH'>"
p4869
sS'XML'
p4870
S"<class 'gluon.html.XML'>"
p4871
sS'B'
S"<class 'gluon.html.B'>"
p4872
sS'IMG'
p4873
S"<class 'gluon.html.IMG'>"
p4874
sS'SQLTABLE'
p4875
S"<class 'gluon.sqlhtml.SQLTABLE'>"
p4876
sS'IS_MATCH'
p4877
S"<class 'gluon.validators.IS_MATCH'>"
p4878
sS'IS_ALPHANUMERIC'
p4879
S"<class 'gluon.validators.IS_ALPHANUMERIC'>"
p4880
sS'SPAN'
p4881
S"<class 'gluon.html.SPAN'>"
p4882
sS'IS_SLUG'
p4883
S"<class 'gluon.validators.IS_SLUG'>"
p4884
sS'BEAUTIFY'
p4885
S"<class 'gluon.html.BEAUTIFY'>"
p4886
sS'META'
p4887
S"<class 'gluon.html.META'>"
p4888
sS'IS_DATE'
p4889
S"<class 'gluon.validators.IS_DATE'>"
p4890
sS'IS_EMAIL'
p4891
S"<class 'gluon.validators.IS_EMAIL'>"
p4892
sS'IS_NOT_EMPTY'
p4893
S"<class 'gluon.validators.IS_NOT_EMPTY'>"
p4894
sg55
S"<Storage {'is_local': True, 'function': 'display....16-35-26.ae562f2b-d7c2-4a69-bdad-e9d75c6e039c'}>"
p4895
sS'TBODY'
p4896
S"<class 'gluon.html.TBODY'>"
p4897
sS'CAT'
p4898
S"<class 'gluon.html.CAT'>"
p4899
sS'Field'
p4900
S"<class 'gluon.dal.Field'>"
p4901
sS'Mail'
p4902
S"<class 'gluon.tools.Mail'>"
p4903
sS'DIV'
p4904
S"<class 'gluon.html.DIV'>"
p4905
sS'LEGEND'
p4906
S"<class 'gluon.html.LEGEND'>"
p4907
sS'DAL'
p4908
S"<class 'gluon.dal.DAL'>"
p4909
sS'TT'
p4910
S"<class 'gluon.html.TT'>"
p4911
sS'TR'
p4912
S"<class 'gluon.html.TR'>"
p4913
sS'LI'
p4914
S"<class 'gluon.html.LI'>"
p4915
sS'right_sidebar_enabled'
p4916
g99
sS'IFRAME'
p4917
S"<class 'gluon.html.IFRAME'>"
p4918
sS'TD'
p4919
S"<class 'gluon.html.TD'>"
p4920
sS'PluginManager'
p4921
S"<class 'gluon.tools.PluginManager'>"
p4922
sS'IS_URL'
p4923
S"<class 'gluon.validators.IS_URL'>"
p4924
sS'A'
S"<class 'gluon.html.A'>"
p4925
sS'STYLE'
p4926
S"<class 'gluon.html.STYLE'>"
p4927
sS'IS_DATETIME_IN_RANGE'
p4928
S"<class 'gluon.validators.IS_DATETIME_IN_RANGE'>"
p4929
sS'HTML'
p4930
S"<class 'gluon.html.HTML'>"
p4931
sS'IS_IMAGE'
p4932
S"<class 'gluon.validators.IS_IMAGE'>"
p4933
sS'I'
S"<class 'gluon.html.I'>"
p4934
sS'crud'
p4935
S'<gluon.tools.Crud object>'
p4936
sS'right_sidebar_style'
p4937
S'\'style="display: none;"\''
p4938
sS'IS_NOT_IN_DB'
p4939
S"<class 'gluon.validators.IS_NOT_IN_DB'>"
p4940
sg2793
S"<Storage {'body': <cStringIO.StringO object at 0...0xb27a4fc>, 'view': 'default/display_link.html'}>"
p4941
sS'THEAD'
p4942
S"<class 'gluon.html.THEAD'>"
p4943
sS'IS_NULL_OR'
p4944
S"<class 'gluon.validators.IS_EMPTY_OR'>"
p4945
sS'prettydate'
p4946
S'<function prettydate>'
p4947
sS'i'
S"<Row {'movie': <Row {'name': 'DUDE', 'song': <gl...ete_record': <function <lambda> at 0xaf72454>}>}>"
p4948
sS'IS_FLOAT_IN_RANGE'
p4949
S"<class 'gluon.validators.IS_FLOAT_IN_RANGE'>"
p4950
sS'IS_EXPR'
p4951
S"<class 'gluon.validators.IS_EXPR'>"
p4952
sS'T'
S'<gluon.languages.translator object>'
p4953
sS'IS_IN_SET'
p4954
S"<class 'gluon.validators.IS_IN_SET'>"
p4955
sS'IS_UPLOAD_FILENAME'
p4956
S"<class 'gluon.validators.IS_UPLOAD_FILENAME'>"
p4957
sS'style_content'
p4958
S'\'style="width: 100%"\''
p4959
sS'IS_DECIMAL_IN_RANGE'
p4960
S"<class 'gluon.validators.IS_DECIMAL_IN_RANGE'>"
p4961
sssS'traceback'
p4962
S'Traceback (most recent call last):\n  File "/home/vsvah/Desktop/Coursework/Sem3/SSAD/web2py/gluon/restricted.py", line 192, in restricted\n    exec ccode in environment\n  File "/home/vsvah/Desktop/Coursework/Sem3/SSAD/web2py/applications/Music_Repo/views/default/display_link.html", line 109, in <module>\nTypeError: write() takes at least 2 arguments (1 given)\n'
p4963
s.