(dp1
S'output'
p2
S''
sS'layer'
p3
S'/home/vsvah/Desktop/Coursework/Sem3/SSAD/web2py/applications/Music_Repo/controllers/default.py'
p4
sS'code'
p5
S'# -*- coding: utf-8 -*-\n# this file is released under public domain and you can use without limitations\n\n#########################################################################\n## This is a samples controller\n## - index is the default action of any application\n## - user is required for authentication and authorization\n## - download is for downloading files uploaded in the db (does streaming)\n## - call exposes all registered services (none by default)\n#########################################################################\n\ndef index():\n    """\n    example action using the internationalization operator T and flash\n    rendered by views/default/index.html or views/generic.html\n    """\n    return dict(message=T(\'Hello World\'))\n\ndef user():\n    """\n    exposes:\n    http://..../[app]/default/user/login\n    http://..../[app]/default/user/logout\n    http://..../[app]/default/user/register\n    http://..../[app]/default/user/profile\n    http://..../[app]/default/user/retrieve_password\n    http://..../[app]/default/user/change_password\n    use @auth.requires_login()\n        @auth.requires_membership(\'group name\')\n        @auth.requires_permission(\'read\',\'table name\',record_id)\n    to decorate functions that need access control\n    """\n    return dict(form=auth())\n\n\ndef download():\n    """\n    allows downloading of uploaded files\n    http://..../[app]/default/download/[filename]\n    """\n    return response.download(request,db)\n\n\ndef call():\n    """\n    exposes services. for example:\n    http://..../[app]/default/call/jsonrpc\n    decorate with @services.jsonrpc the functions to expose\n    supports xml, json, xmlrpc, jsonrpc, amfrpc, rss, csv\n    """\n    return service()\n\n\n@auth.requires_signature()\ndef data():\n    """\n    http://..../[app]/default/data/tables\n    http://..../[app]/default/data/create/[table]\n    http://..../[app]/default/data/read/[table]/[id]\n    http://..../[app]/default/data/update/[table]/[id]\n    http://..../[app]/default/data/delete/[table]/[id[\n    http://..../[app]/default/data/select/[table]\n    http://..../[app]/default/data/search/[table]\n    but URLs bust be signed, i.e. linked with\n      A(\'table\',_href=URL(\'data/tables\',user_signature=True))\n    or with the signed load operator\n      LOAD(\'default\',\'data.load\',args=\'tables\',ajax=True,user_signature=True)\n    """\n    return dict(form=crud())\n\n\ndef form_for_artist():\n\tform = SQLFORM(db.artist)\n\tif form.accepts(request.vars, session):\n\t      response.flash = \'form accepted\'\n\telif form.errors:\n\t      response.flash = \'form has errors\'\n\telse:\n\t      response.flash = \'please fill out the form\'\n\treturn dict(form=form)\n\t\ndef form_for_movie():\n\tform = SQLFORM(db.movie)\n\tif form.accepts(request.vars, session):\n\t      response.flash = \'form accepted\'\n\telif form.errors:\n\t      response.flash = \'form has errors\'\n\telse:\n\t      response.flash = \'please fill out the form\'\n\treturn dict(form=form)\n\ndef form_for_song():\n\tform = SQLFORM(db.song)\n\tif form.accepts(request.vars, session):\n\t      response.flash = \'form accepted\'\n\telif form.errors:\n\t      response.flash = \'form has errors\'\n\telse:\n\t      response.flash = \'please fill out the form\'\n\treturn dict(form=form)\n@auth.requires_login()\ndef form_for_rating():\n\tform = SQLFORM(db.rating)\n\tif form.accepts(request.vars, session):\n\t      response.flash = \'form accepted\'\n\t      k = request.vars.rating\n\t      n = request.vars.song\n\t      row = db(db.rating.song==n).select()\n\t      s=0\n\t      c=0\n\t      for i in row:\n\t        s=s+i.rating\n\t        c=c+1\n\t        s=s/c\n\t      rows = db(db.song.id==n).select()\n\t      row = rows[0]\n\t      row.update_record(rating = s)\n\n\telif form.errors:\n\t      response.flash = \'form has errors\'\n\telse:\n\t      response.flash = \'please fill out the form\'\n\treturn dict(form=form)\n\ndef form_for_user():\n\tform = SQLFORM(db.auth_user)\n\tif form.accepts(request.vars, session):\n\t      response.flash = \'form accepted\'\n\telif form.errors:\n\t      response.flash = \'form has errors\'\n\telse:\n\t      response.flash = \'please fill out the form\'\n\treturn dict(form=form)\n\ndef query_form():\n\tform = SQLFORM.factory(\n\t\t\tField(\'query_number\',\'integer\',requires = IS_INT_IN_RANGE(1,6))\n\t\t\t)\n\tif form.accepts(request.vars,session):\n\t\tredirect(URL(\'q\'+request.vars.query_number))\n\treturn dict(form=form)\n\ndef q1():\n\trow = db((db.song.singer == db.artist.id) & (db.artist.id == 3)).select(db.song.name)\n\treturn dict(r=row)\n\ndef q2():\n\trow = db((db.song.singer==db.artist.id) & (db.artist.name == "Balu")).select(db.song.name)\n\treturn dict(r=row)\n\ndef q3():\n\trow = db(((db.song.singer == db.artist.id) & (db.artist.name == "Balu")) & ((db.song.movie == db.movie.id) & (db.movie.name=="Shankarabharanam"))).select(db.song.name)\n\treturn dict(r=row)\n\ndef q4():\n\trow = db(((db.song.singer == db.artist.id) & (db.artist.name == "Balu")) & ((db.song.movie==db.movie.id) & (db.movie.release_date<datetime.date(2000,1,1)))).select(db.song.name,db.song.actor)\n\treturn dict(r=row)\n\ndef q5():\n\trow=db((db.song.rating>=4) & (db.song.singer==db.artist.id)).select(db.song.name,db.artist.name)\n\treturn dict(r=row)\n\ndef reset_state():\n\tdb.artist.truncate()\n\tdb.song.truncate()\n\tdb.movie.truncate()\n\tdb.rating.truncate()\n        redirect(URL("index.html"))\n\treturn (r="success")\n\t\n\nresponse._vars=response._caller(index)\n'
p6
sS'snapshot'
p7
(dp8
S'exception'
p9
(dp10
S'__getslice__'
p11
S"<method-wrapper '__getslice__' of exceptions.SyntaxError object>"
p12
sS'text'
p13
S'\'\\treturn (r="success")\\n\''
p14
sS'__str__'
p15
S"<method-wrapper '__str__' of exceptions.SyntaxError object>"
p16
sS'__reduce__'
p17
S'<built-in method __reduce__ of exceptions.SyntaxError object>'
p18
sS'__dict__'
p19
S'{}'
p20
sS'__sizeof__'
p21
S'<built-in method __sizeof__ of exceptions.SyntaxError object>'
p22
sS'__init__'
p23
S"<method-wrapper '__init__' of exceptions.SyntaxError object>"
p24
sS'__setattr__'
p25
S"<method-wrapper '__setattr__' of exceptions.SyntaxError object>"
p26
sS'__reduce_ex__'
p27
S'<built-in method __reduce_ex__ of exceptions.SyntaxError object>'
p28
sS'__new__'
p29
S'<built-in method __new__ of type object>'
p30
sS'__format__'
p31
S'<built-in method __format__ of exceptions.SyntaxError object>'
p32
sS'__class__'
p33
S"<type 'exceptions.SyntaxError'>"
p34
sS'filename'
p35
S"'/home/vsvah/Desktop/Coursework/Sem3/SSAD/web2py/applications/Music_Repo/controllers/default.py'"
p36
sS'lineno'
p37
S'169'
p38
sS'msg'
p39
S"'invalid syntax'"
p40
sS'__doc__'
p41
S"'Invalid syntax.'"
p42
sS'__getitem__'
p43
S"<method-wrapper '__getitem__' of exceptions.SyntaxError object>"
p44
sS'__setstate__'
p45
S'<built-in method __setstate__ of exceptions.SyntaxError object>'
p46
sS'__getattribute__'
p47
S"<method-wrapper '__getattribute__' of exceptions.SyntaxError object>"
p48
sS'print_file_and_line'
p49
S'None'
p50
sS'args'
p51
S'(\'invalid syntax\', (\'/home/vsvah/Desktop/Coursework/Sem3/SSAD/web2py/applications/Music_Repo/controllers/default.py\', 169, 11, \'\\treturn (r="success")\\n\'))'
p52
sS'__subclasshook__'
p53
S'<built-in method __subclasshook__ of type object>'
p54
sS'offset'
p55
S'11'
p56
sS'__unicode__'
p57
S'<built-in method __unicode__ of exceptions.SyntaxError object>'
p58
sS'__delattr__'
p59
S"<method-wrapper '__delattr__' of exceptions.SyntaxError object>"
p60
sS'__repr__'
p61
S"<method-wrapper '__repr__' of exceptions.SyntaxError object>"
p62
sS'__hash__'
p63
S"<method-wrapper '__hash__' of exceptions.SyntaxError object>"
p64
ssS'evalue'
p65
S'invalid syntax (default.py, line 169)'
p66
sS'request'
p67
ccopy_reg
_reconstructor
p68
(cgluon.html
BEAUTIFY
p69
c__builtin__
object
p70
NtRp71
(dp72
S'attributes'
p73
(dp74
sS'components'
p75
(lp76
g68
(cgluon.html
TABLE
p77
g70
NtRp78
(dp79
g73
(dp80
S'level'
p81
I5
ssS'parent'
p82
Nsg75
(lp83
g68
(cgluon.html
TR
p84
g70
NtRp85
(dp86
g73
(dp87
sg82
g78
sg75
(lp88
g68
(cgluon.html
TD
p89
g70
NtRp90
(dp91
g73
(dp92
S'_style'
p93
S'font-weight:bold;'
p94
ssg82
g85
sg75
(lp95
S'ajax'
p96
asbag68
(g89
g70
NtRp97
(dp98
g73
(dp99
S'_valign'
p100
S'top'
p101
ssg82
g85
sg75
(lp102
S':'
asbag68
(g89
g70
NtRp103
(dp104
g73
(dp105
sg82
g85
sg75
(lp106
g68
(g69
g70
NtRp107
(dp108
g73
(dp109
g81
I5
ssg82
g103
sg75
(lp110
S'False'
p111
asbasbasbag68
(g84
g70
NtRp112
(dp113
g73
(dp114
sg82
g78
sg75
(lp115
g68
(g89
g70
NtRp116
(dp117
g73
(dp118
g93
g94
ssg82
g112
sg75
(lp119
S'application'
p120
asbag68
(g89
g70
NtRp121
(dp122
g73
(dp123
g100
g101
ssg82
g112
sg75
(lp124
S':'
asbag68
(g89
g70
NtRp125
(dp126
g73
(dp127
sg82
g112
sg75
(lp128
g68
(g69
g70
NtRp129
(dp130
g73
(dp131
g81
I5
ssg82
g125
sg75
(lp132
S'Music_Repo'
p133
asbasbasbag68
(g84
g70
NtRp134
(dp135
g73
(dp136
sg82
g78
sg75
(lp137
g68
(g89
g70
NtRp138
(dp139
g73
(dp140
g93
g94
ssg82
g134
sg75
(lp141
g51
asbag68
(g89
g70
NtRp142
(dp143
g73
(dp144
g100
g101
ssg82
g134
sg75
(lp145
S':'
asbag68
(g89
g70
NtRp146
(dp147
g73
(dp148
sg82
g134
sg75
(lp149
g68
(g69
g70
NtRp150
(dp151
g73
(dp152
g81
I5
ssg82
g146
sg75
(lp153
g68
(g77
g70
NtRp154
(dp155
g73
(dp156
g81
I4
ssg82
Nsg75
(lp157
sbasbasbasbag68
(g84
g70
NtRp158
(dp159
g73
(dp160
sg82
g78
sg75
(lp161
g68
(g89
g70
NtRp162
(dp163
g73
(dp164
g93
g94
ssg82
g158
sg75
(lp165
S'body'
p166
asbag68
(g89
g70
NtRp167
(dp168
g73
(dp169
g100
g101
ssg82
g158
sg75
(lp170
S':'
asbag68
(g89
g70
NtRp171
(dp172
g73
(dp173
sg82
g158
sg75
(lp174
g68
(g69
g70
NtRp175
(dp176
g73
(dp177
g81
I5
ssg82
g171
sg75
(lp178
S'<cStringIO.StringO object at 0x95b66c0>'
p179
asbasbasbag68
(g84
g70
NtRp180
(dp181
g73
(dp182
sg82
g78
sg75
(lp183
g68
(g89
g70
NtRp184
(dp185
g73
(dp186
g93
g94
ssg82
g180
sg75
(lp187
S'client'
p188
asbag68
(g89
g70
NtRp189
(dp190
g73
(dp191
g100
g101
ssg82
g180
sg75
(lp192
S':'
asbag68
(g89
g70
NtRp193
(dp194
g73
(dp195
sg82
g180
sg75
(lp196
g68
(g69
g70
NtRp197
(dp198
g73
(dp199
g81
I5
ssg82
g193
sg75
(lp200
S'127.0.0.1'
p201
asbasbasbag68
(g84
g70
NtRp202
(dp203
g73
(dp204
sg82
g78
sg75
(lp205
g68
(g89
g70
NtRp206
(dp207
g73
(dp208
g93
g94
ssg82
g202
sg75
(lp209
S'controller'
p210
asbag68
(g89
g70
NtRp211
(dp212
g73
(dp213
g100
g101
ssg82
g202
sg75
(lp214
S':'
asbag68
(g89
g70
NtRp215
(dp216
g73
(dp217
sg82
g202
sg75
(lp218
g68
(g69
g70
NtRp219
(dp220
g73
(dp221
g81
I5
ssg82
g215
sg75
(lp222
S'default'
p223
asbasbasbag68
(g84
g70
NtRp224
(dp225
g73
(dp226
sg82
g78
sg75
(lp227
g68
(g89
g70
NtRp228
(dp229
g73
(dp230
g93
g94
ssg82
g224
sg75
(lp231
S'cookies'
p232
asbag68
(g89
g70
NtRp233
(dp234
g73
(dp235
g100
g101
ssg82
g224
sg75
(lp236
S':'
asbag68
(g89
g70
NtRp237
(dp238
g73
(dp239
sg82
g224
sg75
(lp240
g68
(g69
g70
NtRp241
(dp242
g73
(dp243
g81
I5
ssg82
g237
sg75
(lp244
g68
(g77
g70
NtRp245
(dp246
g73
(dp247
g81
I4
ssg82
Nsg75
(lp248
g68
(g84
g70
NtRp249
(dp250
g73
(dp251
sg82
g245
sg75
(lp252
g68
(g89
g70
NtRp253
(dp254
g73
(dp255
g93
g94
ssg82
g249
sg75
(lp256
S'session_id_admin'
p257
asbag68
(g89
g70
NtRp258
(dp259
g73
(dp260
g100
g101
ssg82
g249
sg75
(lp261
S':'
asbag68
(g89
g70
NtRp262
(dp263
g73
(dp264
sg82
g249
sg75
(lp265
g68
(g69
g70
NtRp266
(dp267
g73
(dp268
g81
I4
ssg82
g262
sg75
(lp269
g68
(g77
g70
NtRp270
(dp271
g73
(dp272
g81
I3
ssg82
Nsg75
(lp273
g68
(g84
g70
NtRp274
(dp275
g73
(dp276
sg82
g270
sg75
(lp277
g68
(g89
g70
NtRp278
(dp279
g73
(dp280
g93
g94
ssg82
g274
sg75
(lp281
S'comment'
p282
asbag68
(g89
g70
NtRp283
(dp284
g73
(dp285
g100
g101
ssg82
g274
sg75
(lp286
S':'
asbag68
(g89
g70
NtRp287
(dp288
g73
(dp289
sg82
g274
sg75
(lp290
g68
(g69
g70
NtRp291
(dp292
g73
(dp293
g81
I3
ssg82
g287
sg75
(lp294
S''
asbasbasbag68
(g84
g70
NtRp295
(dp296
g73
(dp297
sg82
g270
sg75
(lp298
g68
(g89
g70
NtRp299
(dp300
g73
(dp301
g93
g94
ssg82
g295
sg75
(lp302
S'domain'
p303
asbag68
(g89
g70
NtRp304
(dp305
g73
(dp306
g100
g101
ssg82
g295
sg75
(lp307
S':'
asbag68
(g89
g70
NtRp308
(dp309
g73
(dp310
sg82
g295
sg75
(lp311
g68
(g69
g70
NtRp312
(dp313
g73
(dp314
g81
I3
ssg82
g308
sg75
(lp315
S''
asbasbasbag68
(g84
g70
NtRp316
(dp317
g73
(dp318
sg82
g270
sg75
(lp319
g68
(g89
g70
NtRp320
(dp321
g73
(dp322
g93
g94
ssg82
g316
sg75
(lp323
S'expires'
p324
asbag68
(g89
g70
NtRp325
(dp326
g73
(dp327
g100
g101
ssg82
g316
sg75
(lp328
S':'
asbag68
(g89
g70
NtRp329
(dp330
g73
(dp331
sg82
g316
sg75
(lp332
g68
(g69
g70
NtRp333
(dp334
g73
(dp335
g81
I3
ssg82
g329
sg75
(lp336
S''
asbasbasbag68
(g84
g70
NtRp337
(dp338
g73
(dp339
sg82
g270
sg75
(lp340
g68
(g89
g70
NtRp341
(dp342
g73
(dp343
g93
g94
ssg82
g337
sg75
(lp344
S'httponly'
p345
asbag68
(g89
g70
NtRp346
(dp347
g73
(dp348
g100
g101
ssg82
g337
sg75
(lp349
S':'
asbag68
(g89
g70
NtRp350
(dp351
g73
(dp352
sg82
g337
sg75
(lp353
g68
(g69
g70
NtRp354
(dp355
g73
(dp356
g81
I3
ssg82
g350
sg75
(lp357
S''
asbasbasbag68
(g84
g70
NtRp358
(dp359
g73
(dp360
sg82
g270
sg75
(lp361
g68
(g89
g70
NtRp362
(dp363
g73
(dp364
g93
g94
ssg82
g358
sg75
(lp365
S'max-age'
p366
asbag68
(g89
g70
NtRp367
(dp368
g73
(dp369
g100
g101
ssg82
g358
sg75
(lp370
S':'
asbag68
(g89
g70
NtRp371
(dp372
g73
(dp373
sg82
g358
sg75
(lp374
g68
(g69
g70
NtRp375
(dp376
g73
(dp377
g81
I3
ssg82
g371
sg75
(lp378
S''
asbasbasbag68
(g84
g70
NtRp379
(dp380
g73
(dp381
sg82
g270
sg75
(lp382
g68
(g89
g70
NtRp383
(dp384
g73
(dp385
g93
g94
ssg82
g379
sg75
(lp386
S'path'
p387
asbag68
(g89
g70
NtRp388
(dp389
g73
(dp390
g100
g101
ssg82
g379
sg75
(lp391
S':'
asbag68
(g89
g70
NtRp392
(dp393
g73
(dp394
sg82
g379
sg75
(lp395
g68
(g69
g70
NtRp396
(dp397
g73
(dp398
g81
I3
ssg82
g392
sg75
(lp399
S''
asbasbasbag68
(g84
g70
NtRp400
(dp401
g73
(dp402
sg82
g270
sg75
(lp403
g68
(g89
g70
NtRp404
(dp405
g73
(dp406
g93
g94
ssg82
g400
sg75
(lp407
S'secure'
p408
asbag68
(g89
g70
NtRp409
(dp410
g73
(dp411
g100
g101
ssg82
g400
sg75
(lp412
S':'
asbag68
(g89
g70
NtRp413
(dp414
g73
(dp415
sg82
g400
sg75
(lp416
g68
(g69
g70
NtRp417
(dp418
g73
(dp419
g81
I3
ssg82
g413
sg75
(lp420
S''
asbasbasbag68
(g84
g70
NtRp421
(dp422
g73
(dp423
sg82
g270
sg75
(lp424
g68
(g89
g70
NtRp425
(dp426
g73
(dp427
g93
g94
ssg82
g421
sg75
(lp428
S'version'
p429
asbag68
(g89
g70
NtRp430
(dp431
g73
(dp432
g100
g101
ssg82
g421
sg75
(lp433
S':'
asbag68
(g89
g70
NtRp434
(dp435
g73
(dp436
sg82
g421
sg75
(lp437
g68
(g69
g70
NtRp438
(dp439
g73
(dp440
g81
I3
ssg82
g434
sg75
(lp441
S''
asbasbasbasbasbasbasbag68
(g84
g70
NtRp442
(dp443
g73
(dp444
sg82
g245
sg75
(lp445
g68
(g89
g70
NtRp446
(dp447
g73
(dp448
g93
g94
ssg82
g442
sg75
(lp449
S'session_id_music_repo'
p450
asbag68
(g89
g70
NtRp451
(dp452
g73
(dp453
g100
g101
ssg82
g442
sg75
(lp454
S':'
asbag68
(g89
g70
NtRp455
(dp456
g73
(dp457
sg82
g442
sg75
(lp458
g68
(g69
g70
NtRp459
(dp460
g73
(dp461
g81
I4
ssg82
g455
sg75
(lp462
g68
(g77
g70
NtRp463
(dp464
g73
(dp465
g81
I3
ssg82
Nsg75
(lp466
g68
(g84
g70
NtRp467
(dp468
g73
(dp469
sg82
g463
sg75
(lp470
g68
(g89
g70
NtRp471
(dp472
g73
(dp473
g93
g94
ssg82
g467
sg75
(lp474
g282
asbag68
(g89
g70
NtRp475
(dp476
g73
(dp477
g100
g101
ssg82
g467
sg75
(lp478
S':'
asbag68
(g89
g70
NtRp479
(dp480
g73
(dp481
sg82
g467
sg75
(lp482
g68
(g69
g70
NtRp483
(dp484
g73
(dp485
g81
I3
ssg82
g479
sg75
(lp486
S''
asbasbasbag68
(g84
g70
NtRp487
(dp488
g73
(dp489
sg82
g463
sg75
(lp490
g68
(g89
g70
NtRp491
(dp492
g73
(dp493
g93
g94
ssg82
g487
sg75
(lp494
g303
asbag68
(g89
g70
NtRp495
(dp496
g73
(dp497
g100
g101
ssg82
g487
sg75
(lp498
S':'
asbag68
(g89
g70
NtRp499
(dp500
g73
(dp501
sg82
g487
sg75
(lp502
g68
(g69
g70
NtRp503
(dp504
g73
(dp505
g81
I3
ssg82
g499
sg75
(lp506
S''
asbasbasbag68
(g84
g70
NtRp507
(dp508
g73
(dp509
sg82
g463
sg75
(lp510
g68
(g89
g70
NtRp511
(dp512
g73
(dp513
g93
g94
ssg82
g507
sg75
(lp514
g324
asbag68
(g89
g70
NtRp515
(dp516
g73
(dp517
g100
g101
ssg82
g507
sg75
(lp518
S':'
asbag68
(g89
g70
NtRp519
(dp520
g73
(dp521
sg82
g507
sg75
(lp522
g68
(g69
g70
NtRp523
(dp524
g73
(dp525
g81
I3
ssg82
g519
sg75
(lp526
S''
asbasbasbag68
(g84
g70
NtRp527
(dp528
g73
(dp529
sg82
g463
sg75
(lp530
g68
(g89
g70
NtRp531
(dp532
g73
(dp533
g93
g94
ssg82
g527
sg75
(lp534
g345
asbag68
(g89
g70
NtRp535
(dp536
g73
(dp537
g100
g101
ssg82
g527
sg75
(lp538
S':'
asbag68
(g89
g70
NtRp539
(dp540
g73
(dp541
sg82
g527
sg75
(lp542
g68
(g69
g70
NtRp543
(dp544
g73
(dp545
g81
I3
ssg82
g539
sg75
(lp546
S''
asbasbasbag68
(g84
g70
NtRp547
(dp548
g73
(dp549
sg82
g463
sg75
(lp550
g68
(g89
g70
NtRp551
(dp552
g73
(dp553
g93
g94
ssg82
g547
sg75
(lp554
g366
asbag68
(g89
g70
NtRp555
(dp556
g73
(dp557
g100
g101
ssg82
g547
sg75
(lp558
S':'
asbag68
(g89
g70
NtRp559
(dp560
g73
(dp561
sg82
g547
sg75
(lp562
g68
(g69
g70
NtRp563
(dp564
g73
(dp565
g81
I3
ssg82
g559
sg75
(lp566
S''
asbasbasbag68
(g84
g70
NtRp567
(dp568
g73
(dp569
sg82
g463
sg75
(lp570
g68
(g89
g70
NtRp571
(dp572
g73
(dp573
g93
g94
ssg82
g567
sg75
(lp574
g387
asbag68
(g89
g70
NtRp575
(dp576
g73
(dp577
g100
g101
ssg82
g567
sg75
(lp578
S':'
asbag68
(g89
g70
NtRp579
(dp580
g73
(dp581
sg82
g567
sg75
(lp582
g68
(g69
g70
NtRp583
(dp584
g73
(dp585
g81
I3
ssg82
g579
sg75
(lp586
S''
asbasbasbag68
(g84
g70
NtRp587
(dp588
g73
(dp589
sg82
g463
sg75
(lp590
g68
(g89
g70
NtRp591
(dp592
g73
(dp593
g93
g94
ssg82
g587
sg75
(lp594
g408
asbag68
(g89
g70
NtRp595
(dp596
g73
(dp597
g100
g101
ssg82
g587
sg75
(lp598
S':'
asbag68
(g89
g70
NtRp599
(dp600
g73
(dp601
sg82
g587
sg75
(lp602
g68
(g69
g70
NtRp603
(dp604
g73
(dp605
g81
I3
ssg82
g599
sg75
(lp606
S''
asbasbasbag68
(g84
g70
NtRp607
(dp608
g73
(dp609
sg82
g463
sg75
(lp610
g68
(g89
g70
NtRp611
(dp612
g73
(dp613
g93
g94
ssg82
g607
sg75
(lp614
g429
asbag68
(g89
g70
NtRp615
(dp616
g73
(dp617
g100
g101
ssg82
g607
sg75
(lp618
S':'
asbag68
(g89
g70
NtRp619
(dp620
g73
(dp621
sg82
g607
sg75
(lp622
g68
(g69
g70
NtRp623
(dp624
g73
(dp625
g81
I3
ssg82
g619
sg75
(lp626
S''
asbasbasbasbasbasbasbag68
(g84
g70
NtRp627
(dp628
g73
(dp629
sg82
g245
sg75
(lp630
g68
(g89
g70
NtRp631
(dp632
g73
(dp633
g93
g94
ssg82
g627
sg75
(lp634
S'session_id_welcome'
p635
asbag68
(g89
g70
NtRp636
(dp637
g73
(dp638
g100
g101
ssg82
g627
sg75
(lp639
S':'
asbag68
(g89
g70
NtRp640
(dp641
g73
(dp642
sg82
g627
sg75
(lp643
g68
(g69
g70
NtRp644
(dp645
g73
(dp646
g81
I4
ssg82
g640
sg75
(lp647
g68
(g77
g70
NtRp648
(dp649
g73
(dp650
g81
I3
ssg82
Nsg75
(lp651
g68
(g84
g70
NtRp652
(dp653
g73
(dp654
sg82
g648
sg75
(lp655
g68
(g89
g70
NtRp656
(dp657
g73
(dp658
g93
g94
ssg82
g652
sg75
(lp659
g282
asbag68
(g89
g70
NtRp660
(dp661
g73
(dp662
g100
g101
ssg82
g652
sg75
(lp663
S':'
asbag68
(g89
g70
NtRp664
(dp665
g73
(dp666
sg82
g652
sg75
(lp667
g68
(g69
g70
NtRp668
(dp669
g73
(dp670
g81
I3
ssg82
g664
sg75
(lp671
S''
asbasbasbag68
(g84
g70
NtRp672
(dp673
g73
(dp674
sg82
g648
sg75
(lp675
g68
(g89
g70
NtRp676
(dp677
g73
(dp678
g93
g94
ssg82
g672
sg75
(lp679
g303
asbag68
(g89
g70
NtRp680
(dp681
g73
(dp682
g100
g101
ssg82
g672
sg75
(lp683
S':'
asbag68
(g89
g70
NtRp684
(dp685
g73
(dp686
sg82
g672
sg75
(lp687
g68
(g69
g70
NtRp688
(dp689
g73
(dp690
g81
I3
ssg82
g684
sg75
(lp691
S''
asbasbasbag68
(g84
g70
NtRp692
(dp693
g73
(dp694
sg82
g648
sg75
(lp695
g68
(g89
g70
NtRp696
(dp697
g73
(dp698
g93
g94
ssg82
g692
sg75
(lp699
g324
asbag68
(g89
g70
NtRp700
(dp701
g73
(dp702
g100
g101
ssg82
g692
sg75
(lp703
S':'
asbag68
(g89
g70
NtRp704
(dp705
g73
(dp706
sg82
g692
sg75
(lp707
g68
(g69
g70
NtRp708
(dp709
g73
(dp710
g81
I3
ssg82
g704
sg75
(lp711
S''
asbasbasbag68
(g84
g70
NtRp712
(dp713
g73
(dp714
sg82
g648
sg75
(lp715
g68
(g89
g70
NtRp716
(dp717
g73
(dp718
g93
g94
ssg82
g712
sg75
(lp719
g345
asbag68
(g89
g70
NtRp720
(dp721
g73
(dp722
g100
g101
ssg82
g712
sg75
(lp723
S':'
asbag68
(g89
g70
NtRp724
(dp725
g73
(dp726
sg82
g712
sg75
(lp727
g68
(g69
g70
NtRp728
(dp729
g73
(dp730
g81
I3
ssg82
g724
sg75
(lp731
S''
asbasbasbag68
(g84
g70
NtRp732
(dp733
g73
(dp734
sg82
g648
sg75
(lp735
g68
(g89
g70
NtRp736
(dp737
g73
(dp738
g93
g94
ssg82
g732
sg75
(lp739
g366
asbag68
(g89
g70
NtRp740
(dp741
g73
(dp742
g100
g101
ssg82
g732
sg75
(lp743
S':'
asbag68
(g89
g70
NtRp744
(dp745
g73
(dp746
sg82
g732
sg75
(lp747
g68
(g69
g70
NtRp748
(dp749
g73
(dp750
g81
I3
ssg82
g744
sg75
(lp751
S''
asbasbasbag68
(g84
g70
NtRp752
(dp753
g73
(dp754
sg82
g648
sg75
(lp755
g68
(g89
g70
NtRp756
(dp757
g73
(dp758
g93
g94
ssg82
g752
sg75
(lp759
g387
asbag68
(g89
g70
NtRp760
(dp761
g73
(dp762
g100
g101
ssg82
g752
sg75
(lp763
S':'
asbag68
(g89
g70
NtRp764
(dp765
g73
(dp766
sg82
g752
sg75
(lp767
g68
(g69
g70
NtRp768
(dp769
g73
(dp770
g81
I3
ssg82
g764
sg75
(lp771
S''
asbasbasbag68
(g84
g70
NtRp772
(dp773
g73
(dp774
sg82
g648
sg75
(lp775
g68
(g89
g70
NtRp776
(dp777
g73
(dp778
g93
g94
ssg82
g772
sg75
(lp779
g408
asbag68
(g89
g70
NtRp780
(dp781
g73
(dp782
g100
g101
ssg82
g772
sg75
(lp783
S':'
asbag68
(g89
g70
NtRp784
(dp785
g73
(dp786
sg82
g772
sg75
(lp787
g68
(g69
g70
NtRp788
(dp789
g73
(dp790
g81
I3
ssg82
g784
sg75
(lp791
S''
asbasbasbag68
(g84
g70
NtRp792
(dp793
g73
(dp794
sg82
g648
sg75
(lp795
g68
(g89
g70
NtRp796
(dp797
g73
(dp798
g93
g94
ssg82
g792
sg75
(lp799
g429
asbag68
(g89
g70
NtRp800
(dp801
g73
(dp802
g100
g101
ssg82
g792
sg75
(lp803
S':'
asbag68
(g89
g70
NtRp804
(dp805
g73
(dp806
sg82
g792
sg75
(lp807
g68
(g69
g70
NtRp808
(dp809
g73
(dp810
g81
I3
ssg82
g804
sg75
(lp811
S''
asbasbasbasbasbasbasbasbasbasbasbag68
(g84
g70
NtRp812
(dp813
g73
(dp814
sg82
g78
sg75
(lp815
g68
(g89
g70
NtRp816
(dp817
g73
(dp818
g93
g94
ssg82
g812
sg75
(lp819
S'env'
p820
asbag68
(g89
g70
NtRp821
(dp822
g73
(dp823
g100
g101
ssg82
g812
sg75
(lp824
S':'
asbag68
(g89
g70
NtRp825
(dp826
g73
(dp827
sg82
g812
sg75
(lp828
g68
(g69
g70
NtRp829
(dp830
g73
(dp831
g81
I5
ssg82
g825
sg75
(lp832
g68
(g77
g70
NtRp833
(dp834
g73
(dp835
g81
I4
ssg82
Nsg75
(lp836
g68
(g84
g70
NtRp837
(dp838
g73
(dp839
sg82
g833
sg75
(lp840
g68
(g89
g70
NtRp841
(dp842
g73
(dp843
g93
g94
ssg82
g837
sg75
(lp844
S'app_folders'
p845
asbag68
(g89
g70
NtRp846
(dp847
g73
(dp848
g100
g101
ssg82
g837
sg75
(lp849
S':'
asbag68
(g89
g70
NtRp850
(dp851
g73
(dp852
sg82
g837
sg75
(lp853
g68
(g69
g70
NtRp854
(dp855
g73
(dp856
g81
I4
ssg82
g850
sg75
(lp857
S"set(['/home/vsvah/Desktop/Coursework/Sem3/SSAD/web2py/applications/Music_Repo/', '/home/vsvah/Desktop/Coursework/Sem3/SSAD/web2py/applications/admin/', '/home/vsvah/Desktop/Coursework/Sem3/SSAD/web2py/applications/welcome/'])"
p858
asbasbasbag68
(g84
g70
NtRp859
(dp860
g73
(dp861
sg82
g833
sg75
(lp862
g68
(g89
g70
NtRp863
(dp864
g73
(dp865
g93
g94
ssg82
g859
sg75
(lp866
S'applications_parent'
p867
asbag68
(g89
g70
NtRp868
(dp869
g73
(dp870
g100
g101
ssg82
g859
sg75
(lp871
S':'
asbag68
(g89
g70
NtRp872
(dp873
g73
(dp874
sg82
g859
sg75
(lp875
g68
(g69
g70
NtRp876
(dp877
g73
(dp878
g81
I4
ssg82
g872
sg75
(lp879
S'/home/vsvah/Desktop/Coursework/Sem3/SSAD/web2py'
p880
asbasbasbag68
(g84
g70
NtRp881
(dp882
g73
(dp883
sg82
g833
sg75
(lp884
g68
(g89
g70
NtRp885
(dp886
g73
(dp887
g93
g94
ssg82
g881
sg75
(lp888
S'cmd_args'
p889
asbag68
(g89
g70
NtRp890
(dp891
g73
(dp892
g100
g101
ssg82
g881
sg75
(lp893
S':'
asbag68
(g89
g70
NtRp894
(dp895
g73
(dp896
sg82
g881
sg75
(lp897
g68
(g69
g70
NtRp898
(dp899
g73
(dp900
g81
I4
ssg82
g894
sg75
(lp901
g68
(g77
g70
NtRp902
(dp903
g73
(dp904
g81
I3
ssg82
Nsg75
(lp905
sbasbasbasbag68
(g84
g70
NtRp906
(dp907
g73
(dp908
sg82
g833
sg75
(lp909
g68
(g89
g70
NtRp910
(dp911
g73
(dp912
g93
g94
ssg82
g906
sg75
(lp913
S'cmd_options'
p914
asbag68
(g89
g70
NtRp915
(dp916
g73
(dp917
g100
g101
ssg82
g906
sg75
(lp918
S':'
asbag68
(g89
g70
NtRp919
(dp920
g73
(dp921
sg82
g906
sg75
(lp922
g68
(g69
g70
NtRp923
(dp924
g73
(dp925
g81
I4
ssg82
g919
sg75
(lp926
S"<Values at 0x8f4504c: {'verbose': False, 'ip': '127.0.0.1', 'shutdown_timeout': 5, 'taskbar': False, 'port': 8000, 'maxthreads': None, 'softcron': False, 'server_name': 'vsvah-laptop', 'bpython': False, 'nogui': False, 'nocron': False, 'extcron': False, 'debuglevel': 30, 'test': None, 'folder': '/home/vsvah/Desktop/Coursework/Sem3/SSAD/web2py', 'config': '', 'import_models': False, 'winservice': '', 'shell': None, 'run': '', 'log_filename': 'httpserver.log', 'args': [''], 'profiler_filename': None, 'ssl_private_key': '', 'password': '<ask>', 'request_queue_size': 5, 'ssl_certificate': '', 'cronjob': False, 'plain': False, 'quiet': False, 'interfaces': None, 'minthreads': None, 'timeout': 10, 'numthreads': None, 'nobanner': False, 'pid_filename': 'httpserver.pid'}>"
p927
asbasbasbag68
(g84
g70
NtRp928
(dp929
g73
(dp930
sg82
g833
sg75
(lp931
g68
(g89
g70
NtRp932
(dp933
g73
(dp934
g93
g94
ssg82
g928
sg75
(lp935
S'db_sessions'
p936
asbag68
(g89
g70
NtRp937
(dp938
g73
(dp939
g100
g101
ssg82
g928
sg75
(lp940
S':'
asbag68
(g89
g70
NtRp941
(dp942
g73
(dp943
sg82
g928
sg75
(lp944
g68
(g69
g70
NtRp945
(dp946
g73
(dp947
g81
I4
ssg82
g941
sg75
(lp948
S'set([])'
p949
asbasbasbag68
(g84
g70
NtRp950
(dp951
g73
(dp952
sg82
g833
sg75
(lp953
g68
(g89
g70
NtRp954
(dp955
g73
(dp956
g93
g94
ssg82
g950
sg75
(lp957
S'debugging'
p958
asbag68
(g89
g70
NtRp959
(dp960
g73
(dp961
g100
g101
ssg82
g950
sg75
(lp962
S':'
asbag68
(g89
g70
NtRp963
(dp964
g73
(dp965
sg82
g950
sg75
(lp966
g68
(g69
g70
NtRp967
(dp968
g73
(dp969
g81
I4
ssg82
g963
sg75
(lp970
g111
asbasbasbag68
(g84
g70
NtRp971
(dp972
g73
(dp973
sg82
g833
sg75
(lp974
g68
(g89
g70
NtRp975
(dp976
g73
(dp977
g93
g94
ssg82
g971
sg75
(lp978
S'gluon_parent'
p979
asbag68
(g89
g70
NtRp980
(dp981
g73
(dp982
g100
g101
ssg82
g971
sg75
(lp983
S':'
asbag68
(g89
g70
NtRp984
(dp985
g73
(dp986
sg82
g971
sg75
(lp987
g68
(g69
g70
NtRp988
(dp989
g73
(dp990
g81
I4
ssg82
g984
sg75
(lp991
S'/home/vsvah/Desktop/Coursework/Sem3/SSAD/web2py'
p992
asbasbasbag68
(g84
g70
NtRp993
(dp994
g73
(dp995
sg82
g833
sg75
(lp996
g68
(g89
g70
NtRp997
(dp998
g73
(dp999
g93
g94
ssg82
g993
sg75
(lp1000
S'http_accept'
p1001
asbag68
(g89
g70
NtRp1002
(dp1003
g73
(dp1004
g100
g101
ssg82
g993
sg75
(lp1005
S':'
asbag68
(g89
g70
NtRp1006
(dp1007
g73
(dp1008
sg82
g993
sg75
(lp1009
g68
(g69
g70
NtRp1010
(dp1011
g73
(dp1012
g81
I4
ssg82
g1006
sg75
(lp1013
S'text/html,application/xhtml+xml,application/xml;q=0.9,*/*;q=0.8'
p1014
asbasbasbag68
(g84
g70
NtRp1015
(dp1016
g73
(dp1017
sg82
g833
sg75
(lp1018
g68
(g89
g70
NtRp1019
(dp1020
g73
(dp1021
g93
g94
ssg82
g1015
sg75
(lp1022
S'http_accept_charset'
p1023
asbag68
(g89
g70
NtRp1024
(dp1025
g73
(dp1026
g100
g101
ssg82
g1015
sg75
(lp1027
S':'
asbag68
(g89
g70
NtRp1028
(dp1029
g73
(dp1030
sg82
g1015
sg75
(lp1031
g68
(g69
g70
NtRp1032
(dp1033
g73
(dp1034
g81
I4
ssg82
g1028
sg75
(lp1035
S'ISO-8859-1,utf-8;q=0.7,*;q=0.7'
p1036
asbasbasbag68
(g84
g70
NtRp1037
(dp1038
g73
(dp1039
sg82
g833
sg75
(lp1040
g68
(g89
g70
NtRp1041
(dp1042
g73
(dp1043
g93
g94
ssg82
g1037
sg75
(lp1044
S'http_accept_encoding'
p1045
asbag68
(g89
g70
NtRp1046
(dp1047
g73
(dp1048
g100
g101
ssg82
g1037
sg75
(lp1049
S':'
asbag68
(g89
g70
NtRp1050
(dp1051
g73
(dp1052
sg82
g1037
sg75
(lp1053
g68
(g69
g70
NtRp1054
(dp1055
g73
(dp1056
g81
I4
ssg82
g1050
sg75
(lp1057
S'gzip,deflate'
p1058
asbasbasbag68
(g84
g70
NtRp1059
(dp1060
g73
(dp1061
sg82
g833
sg75
(lp1062
g68
(g89
g70
NtRp1063
(dp1064
g73
(dp1065
g93
g94
ssg82
g1059
sg75
(lp1066
S'http_accept_language'
p1067
asbag68
(g89
g70
NtRp1068
(dp1069
g73
(dp1070
g100
g101
ssg82
g1059
sg75
(lp1071
S':'
asbag68
(g89
g70
NtRp1072
(dp1073
g73
(dp1074
sg82
g1059
sg75
(lp1075
g68
(g69
g70
NtRp1076
(dp1077
g73
(dp1078
g81
I4
ssg82
g1072
sg75
(lp1079
S'en-us,en;q=0.5'
p1080
asbasbasbag68
(g84
g70
NtRp1081
(dp1082
g73
(dp1083
sg82
g833
sg75
(lp1084
g68
(g89
g70
NtRp1085
(dp1086
g73
(dp1087
g93
g94
ssg82
g1081
sg75
(lp1088
S'http_cache_control'
p1089
asbag68
(g89
g70
NtRp1090
(dp1091
g73
(dp1092
g100
g101
ssg82
g1081
sg75
(lp1093
S':'
asbag68
(g89
g70
NtRp1094
(dp1095
g73
(dp1096
sg82
g1081
sg75
(lp1097
g68
(g69
g70
NtRp1098
(dp1099
g73
(dp1100
g81
I4
ssg82
g1094
sg75
(lp1101
S'max-age=0'
p1102
asbasbasbag68
(g84
g70
NtRp1103
(dp1104
g73
(dp1105
sg82
g833
sg75
(lp1106
g68
(g89
g70
NtRp1107
(dp1108
g73
(dp1109
g93
g94
ssg82
g1103
sg75
(lp1110
S'http_connection'
p1111
asbag68
(g89
g70
NtRp1112
(dp1113
g73
(dp1114
g100
g101
ssg82
g1103
sg75
(lp1115
S':'
asbag68
(g89
g70
NtRp1116
(dp1117
g73
(dp1118
sg82
g1103
sg75
(lp1119
g68
(g69
g70
NtRp1120
(dp1121
g73
(dp1122
g81
I4
ssg82
g1116
sg75
(lp1123
S'keep-alive'
p1124
asbasbasbag68
(g84
g70
NtRp1125
(dp1126
g73
(dp1127
sg82
g833
sg75
(lp1128
g68
(g89
g70
NtRp1129
(dp1130
g73
(dp1131
g93
g94
ssg82
g1125
sg75
(lp1132
S'http_cookie'
p1133
asbag68
(g89
g70
NtRp1134
(dp1135
g73
(dp1136
g100
g101
ssg82
g1125
sg75
(lp1137
S':'
asbag68
(g89
g70
NtRp1138
(dp1139
g73
(dp1140
sg82
g1125
sg75
(lp1141
g68
(g69
g70
NtRp1142
(dp1143
g73
(dp1144
g81
I4
ssg82
g1138
sg75
(lp1145
S'session_id_welcome=127.0.0.1-9a600684-c3ea-4dad-a24b-394bd558b3b0; session_id_admin=127.0.0.1-a7344e9a-4d3d-44c5-9e87-42f99fefd301; session_id_music_repo=127.0.0.1-a1fc9e3c-8d9d-485b-be23-4f427d55ceaa'
p1146
asbasbasbag68
(g84
g70
NtRp1147
(dp1148
g73
(dp1149
sg82
g833
sg75
(lp1150
g68
(g89
g70
NtRp1151
(dp1152
g73
(dp1153
g93
g94
ssg82
g1147
sg75
(lp1154
S'http_host'
p1155
asbag68
(g89
g70
NtRp1156
(dp1157
g73
(dp1158
g100
g101
ssg82
g1147
sg75
(lp1159
S':'
asbag68
(g89
g70
NtRp1160
(dp1161
g73
(dp1162
sg82
g1147
sg75
(lp1163
g68
(g69
g70
NtRp1164
(dp1165
g73
(dp1166
g81
I4
ssg82
g1160
sg75
(lp1167
S'127.0.0.1:8000'
p1168
asbasbasbag68
(g84
g70
NtRp1169
(dp1170
g73
(dp1171
sg82
g833
sg75
(lp1172
g68
(g89
g70
NtRp1173
(dp1174
g73
(dp1175
g93
g94
ssg82
g1169
sg75
(lp1176
S'http_keep_alive'
p1177
asbag68
(g89
g70
NtRp1178
(dp1179
g73
(dp1180
g100
g101
ssg82
g1169
sg75
(lp1181
S':'
asbag68
(g89
g70
NtRp1182
(dp1183
g73
(dp1184
sg82
g1169
sg75
(lp1185
g68
(g69
g70
NtRp1186
(dp1187
g73
(dp1188
g81
I4
ssg82
g1182
sg75
(lp1189
S'115'
p1190
asbasbasbag68
(g84
g70
NtRp1191
(dp1192
g73
(dp1193
sg82
g833
sg75
(lp1194
g68
(g89
g70
NtRp1195
(dp1196
g73
(dp1197
g93
g94
ssg82
g1191
sg75
(lp1198
S'http_referer'
p1199
asbag68
(g89
g70
NtRp1200
(dp1201
g73
(dp1202
g100
g101
ssg82
g1191
sg75
(lp1203
S':'
asbag68
(g89
g70
NtRp1204
(dp1205
g73
(dp1206
sg82
g1191
sg75
(lp1207
g68
(g69
g70
NtRp1208
(dp1209
g73
(dp1210
g81
I4
ssg82
g1204
sg75
(lp1211
S'http://127.0.0.1:8000/Music_Repo/'
p1212
asbasbasbag68
(g84
g70
NtRp1213
(dp1214
g73
(dp1215
sg82
g833
sg75
(lp1216
g68
(g89
g70
NtRp1217
(dp1218
g73
(dp1219
g93
g94
ssg82
g1213
sg75
(lp1220
S'http_user_agent'
p1221
asbag68
(g89
g70
NtRp1222
(dp1223
g73
(dp1224
g100
g101
ssg82
g1213
sg75
(lp1225
S':'
asbag68
(g89
g70
NtRp1226
(dp1227
g73
(dp1228
sg82
g1213
sg75
(lp1229
g68
(g69
g70
NtRp1230
(dp1231
g73
(dp1232
g81
I4
ssg82
g1226
sg75
(lp1233
S'Mozilla/5.0 (X11; U; Linux i686; en-US; rv:1.9.2.16) Gecko/20110323 Ubuntu/10.04 (lucid) Firefox/3.6.16'
p1234
asbasbasbag68
(g84
g70
NtRp1235
(dp1236
g73
(dp1237
sg82
g833
sg75
(lp1238
g68
(g89
g70
NtRp1239
(dp1240
g73
(dp1241
g93
g94
ssg82
g1235
sg75
(lp1242
S'is_jython'
p1243
asbag68
(g89
g70
NtRp1244
(dp1245
g73
(dp1246
g100
g101
ssg82
g1235
sg75
(lp1247
S':'
asbag68
(g89
g70
NtRp1248
(dp1249
g73
(dp1250
sg82
g1235
sg75
(lp1251
g68
(g69
g70
NtRp1252
(dp1253
g73
(dp1254
g81
I4
ssg82
g1248
sg75
(lp1255
g111
asbasbasbag68
(g84
g70
NtRp1256
(dp1257
g73
(dp1258
sg82
g833
sg75
(lp1259
g68
(g89
g70
NtRp1260
(dp1261
g73
(dp1262
g93
g94
ssg82
g1256
sg75
(lp1263
S'path_info'
p1264
asbag68
(g89
g70
NtRp1265
(dp1266
g73
(dp1267
g100
g101
ssg82
g1256
sg75
(lp1268
S':'
asbag68
(g89
g70
NtRp1269
(dp1270
g73
(dp1271
sg82
g1256
sg75
(lp1272
g68
(g69
g70
NtRp1273
(dp1274
g73
(dp1275
g81
I4
ssg82
g1269
sg75
(lp1276
S'/Music_Repo/default/index.html'
p1277
asbasbasbag68
(g84
g70
NtRp1278
(dp1279
g73
(dp1280
sg82
g833
sg75
(lp1281
g68
(g89
g70
NtRp1282
(dp1283
g73
(dp1284
g93
g94
ssg82
g1278
sg75
(lp1285
S'query_string'
p1286
asbag68
(g89
g70
NtRp1287
(dp1288
g73
(dp1289
g100
g101
ssg82
g1278
sg75
(lp1290
S':'
asbag68
(g89
g70
NtRp1291
(dp1292
g73
(dp1293
sg82
g1278
sg75
(lp1294
g68
(g69
g70
NtRp1295
(dp1296
g73
(dp1297
g81
I4
ssg82
g1291
sg75
(lp1298
S''
asbasbasbag68
(g84
g70
NtRp1299
(dp1300
g73
(dp1301
sg82
g833
sg75
(lp1302
g68
(g89
g70
NtRp1303
(dp1304
g73
(dp1305
g93
g94
ssg82
g1299
sg75
(lp1306
S'remote_addr'
p1307
asbag68
(g89
g70
NtRp1308
(dp1309
g73
(dp1310
g100
g101
ssg82
g1299
sg75
(lp1311
S':'
asbag68
(g89
g70
NtRp1312
(dp1313
g73
(dp1314
sg82
g1299
sg75
(lp1315
g68
(g69
g70
NtRp1316
(dp1317
g73
(dp1318
g81
I4
ssg82
g1312
sg75
(lp1319
g201
asbasbasbag68
(g84
g70
NtRp1320
(dp1321
g73
(dp1322
sg82
g833
sg75
(lp1323
g68
(g89
g70
NtRp1324
(dp1325
g73
(dp1326
g93
g94
ssg82
g1320
sg75
(lp1327
S'remote_port'
p1328
asbag68
(g89
g70
NtRp1329
(dp1330
g73
(dp1331
g100
g101
ssg82
g1320
sg75
(lp1332
S':'
asbag68
(g89
g70
NtRp1333
(dp1334
g73
(dp1335
sg82
g1320
sg75
(lp1336
g68
(g69
g70
NtRp1337
(dp1338
g73
(dp1339
g81
I4
ssg82
g1333
sg75
(lp1340
S'57151'
p1341
asbasbasbag68
(g84
g70
NtRp1342
(dp1343
g73
(dp1344
sg82
g833
sg75
(lp1345
g68
(g89
g70
NtRp1346
(dp1347
g73
(dp1348
g93
g94
ssg82
g1342
sg75
(lp1349
S'request_method'
p1350
asbag68
(g89
g70
NtRp1351
(dp1352
g73
(dp1353
g100
g101
ssg82
g1342
sg75
(lp1354
S':'
asbag68
(g89
g70
NtRp1355
(dp1356
g73
(dp1357
sg82
g1342
sg75
(lp1358
g68
(g69
g70
NtRp1359
(dp1360
g73
(dp1361
g81
I4
ssg82
g1355
sg75
(lp1362
S'GET'
p1363
asbasbasbag68
(g84
g70
NtRp1364
(dp1365
g73
(dp1366
sg82
g833
sg75
(lp1367
g68
(g89
g70
NtRp1368
(dp1369
g73
(dp1370
g93
g94
ssg82
g1364
sg75
(lp1371
S'script_name'
p1372
asbag68
(g89
g70
NtRp1373
(dp1374
g73
(dp1375
g100
g101
ssg82
g1364
sg75
(lp1376
S':'
asbag68
(g89
g70
NtRp1377
(dp1378
g73
(dp1379
sg82
g1364
sg75
(lp1380
g68
(g69
g70
NtRp1381
(dp1382
g73
(dp1383
g81
I4
ssg82
g1377
sg75
(lp1384
S''
asbasbasbag68
(g84
g70
NtRp1385
(dp1386
g73
(dp1387
sg82
g833
sg75
(lp1388
g68
(g89
g70
NtRp1389
(dp1390
g73
(dp1391
g93
g94
ssg82
g1385
sg75
(lp1392
S'server_name'
p1393
asbag68
(g89
g70
NtRp1394
(dp1395
g73
(dp1396
g100
g101
ssg82
g1385
sg75
(lp1397
S':'
asbag68
(g89
g70
NtRp1398
(dp1399
g73
(dp1400
sg82
g1385
sg75
(lp1401
g68
(g69
g70
NtRp1402
(dp1403
g73
(dp1404
g81
I4
ssg82
g1398
sg75
(lp1405
S'vsvah-laptop'
p1406
asbasbasbag68
(g84
g70
NtRp1407
(dp1408
g73
(dp1409
sg82
g833
sg75
(lp1410
g68
(g89
g70
NtRp1411
(dp1412
g73
(dp1413
g93
g94
ssg82
g1407
sg75
(lp1414
S'server_port'
p1415
asbag68
(g89
g70
NtRp1416
(dp1417
g73
(dp1418
g100
g101
ssg82
g1407
sg75
(lp1419
S':'
asbag68
(g89
g70
NtRp1420
(dp1421
g73
(dp1422
sg82
g1407
sg75
(lp1423
g68
(g69
g70
NtRp1424
(dp1425
g73
(dp1426
g81
I4
ssg82
g1420
sg75
(lp1427
S'8000'
p1428
asbasbasbag68
(g84
g70
NtRp1429
(dp1430
g73
(dp1431
sg82
g833
sg75
(lp1432
g68
(g89
g70
NtRp1433
(dp1434
g73
(dp1435
g93
g94
ssg82
g1429
sg75
(lp1436
S'server_protocol'
p1437
asbag68
(g89
g70
NtRp1438
(dp1439
g73
(dp1440
g100
g101
ssg82
g1429
sg75
(lp1441
S':'
asbag68
(g89
g70
NtRp1442
(dp1443
g73
(dp1444
sg82
g1429
sg75
(lp1445
g68
(g69
g70
NtRp1446
(dp1447
g73
(dp1448
g81
I4
ssg82
g1442
sg75
(lp1449
S'HTTP/1.1'
p1450
asbasbasbag68
(g84
g70
NtRp1451
(dp1452
g73
(dp1453
sg82
g833
sg75
(lp1454
g68
(g89
g70
NtRp1455
(dp1456
g73
(dp1457
g93
g94
ssg82
g1451
sg75
(lp1458
S'server_software'
p1459
asbag68
(g89
g70
NtRp1460
(dp1461
g73
(dp1462
g100
g101
ssg82
g1451
sg75
(lp1463
S':'
asbag68
(g89
g70
NtRp1464
(dp1465
g73
(dp1466
sg82
g1451
sg75
(lp1467
g68
(g69
g70
NtRp1468
(dp1469
g73
(dp1470
g81
I4
ssg82
g1464
sg75
(lp1471
S'Rocket 1.2.2'
p1472
asbasbasbag68
(g84
g70
NtRp1473
(dp1474
g73
(dp1475
sg82
g833
sg75
(lp1476
g68
(g89
g70
NtRp1477
(dp1478
g73
(dp1479
g93
g94
ssg82
g1473
sg75
(lp1480
S'web2py_crontype'
p1481
asbag68
(g89
g70
NtRp1482
(dp1483
g73
(dp1484
g100
g101
ssg82
g1473
sg75
(lp1485
S':'
asbag68
(g89
g70
NtRp1486
(dp1487
g73
(dp1488
sg82
g1473
sg75
(lp1489
g68
(g69
g70
NtRp1490
(dp1491
g73
(dp1492
g81
I4
ssg82
g1486
sg75
(lp1493
S'hard'
p1494
asbasbasbag68
(g84
g70
NtRp1495
(dp1496
g73
(dp1497
sg82
g833
sg75
(lp1498
g68
(g89
g70
NtRp1499
(dp1500
g73
(dp1501
g93
g94
ssg82
g1495
sg75
(lp1502
S'web2py_path'
p1503
asbag68
(g89
g70
NtRp1504
(dp1505
g73
(dp1506
g100
g101
ssg82
g1495
sg75
(lp1507
S':'
asbag68
(g89
g70
NtRp1508
(dp1509
g73
(dp1510
sg82
g1495
sg75
(lp1511
g68
(g69
g70
NtRp1512
(dp1513
g73
(dp1514
g81
I4
ssg82
g1508
sg75
(lp1515
g880
asbasbasbag68
(g84
g70
NtRp1516
(dp1517
g73
(dp1518
sg82
g833
sg75
(lp1519
g68
(g89
g70
NtRp1520
(dp1521
g73
(dp1522
g93
g94
ssg82
g1516
sg75
(lp1523
S'web2py_version'
p1524
asbag68
(g89
g70
NtRp1525
(dp1526
g73
(dp1527
g100
g101
ssg82
g1516
sg75
(lp1528
S':'
asbag68
(g89
g70
NtRp1529
(dp1530
g73
(dp1531
sg82
g1516
sg75
(lp1532
g68
(g69
g70
NtRp1533
(dp1534
g73
(dp1535
g81
I4
ssg82
g1529
sg75
(lp1536
S'Version 1.98.2 (2011-08-04 00:47:09)\n'
p1537
asbasbasbag68
(g84
g70
NtRp1538
(dp1539
g73
(dp1540
sg82
g833
sg75
(lp1541
g68
(g89
g70
NtRp1542
(dp1543
g73
(dp1544
g93
g94
ssg82
g1538
sg75
(lp1545
S'wsgi_errors'
p1546
asbag68
(g89
g70
NtRp1547
(dp1548
g73
(dp1549
g100
g101
ssg82
g1538
sg75
(lp1550
S':'
asbag68
(g89
g70
NtRp1551
(dp1552
g73
(dp1553
sg82
g1538
sg75
(lp1554
g68
(g69
g70
NtRp1555
(dp1556
g73
(dp1557
g81
I4
ssg82
g1551
sg75
(lp1558
S"<open file '<stderr>', mode 'w' at 0xb77c10d0>"
p1559
asbasbasbag68
(g84
g70
NtRp1560
(dp1561
g73
(dp1562
sg82
g833
sg75
(lp1563
g68
(g89
g70
NtRp1564
(dp1565
g73
(dp1566
g93
g94
ssg82
g1560
sg75
(lp1567
S'wsgi_file_wrapper'
p1568
asbag68
(g89
g70
NtRp1569
(dp1570
g73
(dp1571
g100
g101
ssg82
g1560
sg75
(lp1572
S':'
asbag68
(g89
g70
NtRp1573
(dp1574
g73
(dp1575
sg82
g1560
sg75
(lp1576
g68
(g69
g70
NtRp1577
(dp1578
g73
(dp1579
g81
I4
ssg82
g1573
sg75
(lp1580
S'<class gluon.rocket.FileWrapper at 0x8e4d08c>'
p1581
asbasbasbag68
(g84
g70
NtRp1582
(dp1583
g73
(dp1584
sg82
g833
sg75
(lp1585
g68
(g89
g70
NtRp1586
(dp1587
g73
(dp1588
g93
g94
ssg82
g1582
sg75
(lp1589
S'wsgi_input'
p1590
asbag68
(g89
g70
NtRp1591
(dp1592
g73
(dp1593
g100
g101
ssg82
g1582
sg75
(lp1594
S':'
asbag68
(g89
g70
NtRp1595
(dp1596
g73
(dp1597
sg82
g1582
sg75
(lp1598
g68
(g69
g70
NtRp1599
(dp1600
g73
(dp1601
g81
I4
ssg82
g1595
sg75
(lp1602
S'<socket._fileobject object at 0xa06ceec>'
p1603
asbasbasbag68
(g84
g70
NtRp1604
(dp1605
g73
(dp1606
sg82
g833
sg75
(lp1607
g68
(g89
g70
NtRp1608
(dp1609
g73
(dp1610
g93
g94
ssg82
g1604
sg75
(lp1611
S'wsgi_multiprocess'
p1612
asbag68
(g89
g70
NtRp1613
(dp1614
g73
(dp1615
g100
g101
ssg82
g1604
sg75
(lp1616
S':'
asbag68
(g89
g70
NtRp1617
(dp1618
g73
(dp1619
sg82
g1604
sg75
(lp1620
g68
(g69
g70
NtRp1621
(dp1622
g73
(dp1623
g81
I4
ssg82
g1617
sg75
(lp1624
g111
asbasbasbag68
(g84
g70
NtRp1625
(dp1626
g73
(dp1627
sg82
g833
sg75
(lp1628
g68
(g89
g70
NtRp1629
(dp1630
g73
(dp1631
g93
g94
ssg82
g1625
sg75
(lp1632
S'wsgi_multithread'
p1633
asbag68
(g89
g70
NtRp1634
(dp1635
g73
(dp1636
g100
g101
ssg82
g1625
sg75
(lp1637
S':'
asbag68
(g89
g70
NtRp1638
(dp1639
g73
(dp1640
sg82
g1625
sg75
(lp1641
g68
(g69
g70
NtRp1642
(dp1643
g73
(dp1644
g81
I4
ssg82
g1638
sg75
(lp1645
S'True'
p1646
asbasbasbag68
(g84
g70
NtRp1647
(dp1648
g73
(dp1649
sg82
g833
sg75
(lp1650
g68
(g89
g70
NtRp1651
(dp1652
g73
(dp1653
g93
g94
ssg82
g1647
sg75
(lp1654
S'wsgi_run_once'
p1655
asbag68
(g89
g70
NtRp1656
(dp1657
g73
(dp1658
g100
g101
ssg82
g1647
sg75
(lp1659
S':'
asbag68
(g89
g70
NtRp1660
(dp1661
g73
(dp1662
sg82
g1647
sg75
(lp1663
g68
(g69
g70
NtRp1664
(dp1665
g73
(dp1666
g81
I4
ssg82
g1660
sg75
(lp1667
g111
asbasbasbag68
(g84
g70
NtRp1668
(dp1669
g73
(dp1670
sg82
g833
sg75
(lp1671
g68
(g89
g70
NtRp1672
(dp1673
g73
(dp1674
g93
g94
ssg82
g1668
sg75
(lp1675
S'wsgi_url_scheme'
p1676
asbag68
(g89
g70
NtRp1677
(dp1678
g73
(dp1679
g100
g101
ssg82
g1668
sg75
(lp1680
S':'
asbag68
(g89
g70
NtRp1681
(dp1682
g73
(dp1683
sg82
g1668
sg75
(lp1684
g68
(g69
g70
NtRp1685
(dp1686
g73
(dp1687
g81
I4
ssg82
g1681
sg75
(lp1688
S'http'
p1689
asbasbasbag68
(g84
g70
NtRp1690
(dp1691
g73
(dp1692
sg82
g833
sg75
(lp1693
g68
(g89
g70
NtRp1694
(dp1695
g73
(dp1696
g93
g94
ssg82
g1690
sg75
(lp1697
S'wsgi_version'
p1698
asbag68
(g89
g70
NtRp1699
(dp1700
g73
(dp1701
g100
g101
ssg82
g1690
sg75
(lp1702
S':'
asbag68
(g89
g70
NtRp1703
(dp1704
g73
(dp1705
sg82
g1690
sg75
(lp1706
g68
(g69
g70
NtRp1707
(dp1708
g73
(dp1709
g81
I4
ssg82
g1703
sg75
(lp1710
g68
(g77
g70
NtRp1711
(dp1712
g73
(dp1713
g81
I3
ssg82
Nsg75
(lp1714
g68
(g84
g70
NtRp1715
(dp1716
g73
(dp1717
sg82
g1711
sg75
(lp1718
g68
(g89
g70
NtRp1719
(dp1720
g73
(dp1721
sg82
g1715
sg75
(lp1722
g68
(g69
g70
NtRp1723
(dp1724
g73
(dp1725
g81
I3
ssg82
g1719
sg75
(lp1726
S'1'
asbasbasbag68
(g84
g70
NtRp1727
(dp1728
g73
(dp1729
sg82
g1711
sg75
(lp1730
g68
(g89
g70
NtRp1731
(dp1732
g73
(dp1733
sg82
g1727
sg75
(lp1734
g68
(g69
g70
NtRp1735
(dp1736
g73
(dp1737
g81
I3
ssg82
g1731
sg75
(lp1738
S'0'
asbasbasbasbasbasbasbasbasbasbasbag68
(g84
g70
NtRp1739
(dp1740
g73
(dp1741
sg82
g78
sg75
(lp1742
g68
(g89
g70
NtRp1743
(dp1744
g73
(dp1745
g93
g94
ssg82
g1739
sg75
(lp1746
S'extension'
p1747
asbag68
(g89
g70
NtRp1748
(dp1749
g73
(dp1750
g100
g101
ssg82
g1739
sg75
(lp1751
S':'
asbag68
(g89
g70
NtRp1752
(dp1753
g73
(dp1754
sg82
g1739
sg75
(lp1755
g68
(g69
g70
NtRp1756
(dp1757
g73
(dp1758
g81
I5
ssg82
g1752
sg75
(lp1759
S'html'
p1760
asbasbasbag68
(g84
g70
NtRp1761
(dp1762
g73
(dp1763
sg82
g78
sg75
(lp1764
g68
(g89
g70
NtRp1765
(dp1766
g73
(dp1767
g93
g94
ssg82
g1761
sg75
(lp1768
S'folder'
p1769
asbag68
(g89
g70
NtRp1770
(dp1771
g73
(dp1772
g100
g101
ssg82
g1761
sg75
(lp1773
S':'
asbag68
(g89
g70
NtRp1774
(dp1775
g73
(dp1776
sg82
g1761
sg75
(lp1777
g68
(g69
g70
NtRp1778
(dp1779
g73
(dp1780
g81
I5
ssg82
g1774
sg75
(lp1781
S'/home/vsvah/Desktop/Coursework/Sem3/SSAD/web2py/applications/Music_Repo/'
p1782
asbasbasbag68
(g84
g70
NtRp1783
(dp1784
g73
(dp1785
sg82
g78
sg75
(lp1786
g68
(g89
g70
NtRp1787
(dp1788
g73
(dp1789
g93
g94
ssg82
g1783
sg75
(lp1790
S'function'
p1791
asbag68
(g89
g70
NtRp1792
(dp1793
g73
(dp1794
g100
g101
ssg82
g1783
sg75
(lp1795
S':'
asbag68
(g89
g70
NtRp1796
(dp1797
g73
(dp1798
sg82
g1783
sg75
(lp1799
g68
(g69
g70
NtRp1800
(dp1801
g73
(dp1802
g81
I5
ssg82
g1796
sg75
(lp1803
S'index'
p1804
asbasbasbag68
(g84
g70
NtRp1805
(dp1806
g73
(dp1807
sg82
g78
sg75
(lp1808
g68
(g89
g70
NtRp1809
(dp1810
g73
(dp1811
g93
g94
ssg82
g1805
sg75
(lp1812
S'get_vars'
p1813
asbag68
(g89
g70
NtRp1814
(dp1815
g73
(dp1816
g100
g101
ssg82
g1805
sg75
(lp1817
S':'
asbag68
(g89
g70
NtRp1818
(dp1819
g73
(dp1820
sg82
g1805
sg75
(lp1821
g68
(g69
g70
NtRp1822
(dp1823
g73
(dp1824
g81
I5
ssg82
g1818
sg75
(lp1825
g68
(g77
g70
NtRp1826
(dp1827
g73
(dp1828
g81
I4
ssg82
Nsg75
(lp1829
sbasbasbasbag68
(g84
g70
NtRp1830
(dp1831
g73
(dp1832
sg82
g78
sg75
(lp1833
g68
(g89
g70
NtRp1834
(dp1835
g73
(dp1836
g93
g94
ssg82
g1830
sg75
(lp1837
S'is_https'
p1838
asbag68
(g89
g70
NtRp1839
(dp1840
g73
(dp1841
g100
g101
ssg82
g1830
sg75
(lp1842
S':'
asbag68
(g89
g70
NtRp1843
(dp1844
g73
(dp1845
sg82
g1830
sg75
(lp1846
g68
(g69
g70
NtRp1847
(dp1848
g73
(dp1849
g81
I5
ssg82
g1843
sg75
(lp1850
g111
asbasbasbag68
(g84
g70
NtRp1851
(dp1852
g73
(dp1853
sg82
g78
sg75
(lp1854
g68
(g89
g70
NtRp1855
(dp1856
g73
(dp1857
g93
g94
ssg82
g1851
sg75
(lp1858
S'is_local'
p1859
asbag68
(g89
g70
NtRp1860
(dp1861
g73
(dp1862
g100
g101
ssg82
g1851
sg75
(lp1863
S':'
asbag68
(g89
g70
NtRp1864
(dp1865
g73
(dp1866
sg82
g1851
sg75
(lp1867
g68
(g69
g70
NtRp1868
(dp1869
g73
(dp1870
g81
I5
ssg82
g1864
sg75
(lp1871
g1646
asbasbasbag68
(g84
g70
NtRp1872
(dp1873
g73
(dp1874
sg82
g78
sg75
(lp1875
g68
(g89
g70
NtRp1876
(dp1877
g73
(dp1878
g93
g94
ssg82
g1872
sg75
(lp1879
S'is_restful'
p1880
asbag68
(g89
g70
NtRp1881
(dp1882
g73
(dp1883
g100
g101
ssg82
g1872
sg75
(lp1884
S':'
asbag68
(g89
g70
NtRp1885
(dp1886
g73
(dp1887
sg82
g1872
sg75
(lp1888
g68
(g69
g70
NtRp1889
(dp1890
g73
(dp1891
g81
I5
ssg82
g1885
sg75
(lp1892
g111
asbasbasbag68
(g84
g70
NtRp1893
(dp1894
g73
(dp1895
sg82
g78
sg75
(lp1896
g68
(g89
g70
NtRp1897
(dp1898
g73
(dp1899
g93
g94
ssg82
g1893
sg75
(lp1900
S'now'
p1901
asbag68
(g89
g70
NtRp1902
(dp1903
g73
(dp1904
g100
g101
ssg82
g1893
sg75
(lp1905
S':'
asbag68
(g89
g70
NtRp1906
(dp1907
g73
(dp1908
sg82
g1893
sg75
(lp1909
g68
(g69
g70
NtRp1910
(dp1911
g73
(dp1912
g81
I5
ssg82
g1906
sg75
(lp1913
S'datetime.datetime(2011, 8, 24, 16, 2, 35, 407638)'
p1914
asbasbasbag68
(g84
g70
NtRp1915
(dp1916
g73
(dp1917
sg82
g78
sg75
(lp1918
g68
(g89
g70
NtRp1919
(dp1920
g73
(dp1921
g93
g94
ssg82
g1915
sg75
(lp1922
S'post_vars'
p1923
asbag68
(g89
g70
NtRp1924
(dp1925
g73
(dp1926
g100
g101
ssg82
g1915
sg75
(lp1927
S':'
asbag68
(g89
g70
NtRp1928
(dp1929
g73
(dp1930
sg82
g1915
sg75
(lp1931
g68
(g69
g70
NtRp1932
(dp1933
g73
(dp1934
g81
I5
ssg82
g1928
sg75
(lp1935
g68
(g77
g70
NtRp1936
(dp1937
g73
(dp1938
g81
I4
ssg82
Nsg75
(lp1939
sbasbasbasbag68
(g84
g70
NtRp1940
(dp1941
g73
(dp1942
sg82
g78
sg75
(lp1943
g68
(g89
g70
NtRp1944
(dp1945
g73
(dp1946
g93
g94
ssg82
g1940
sg75
(lp1947
S'raw_extension'
p1948
asbag68
(g89
g70
NtRp1949
(dp1950
g73
(dp1951
g100
g101
ssg82
g1940
sg75
(lp1952
S':'
asbag68
(g89
g70
NtRp1953
(dp1954
g73
(dp1955
sg82
g1940
sg75
(lp1956
g68
(g69
g70
NtRp1957
(dp1958
g73
(dp1959
g81
I5
ssg82
g1953
sg75
(lp1960
g1760
asbasbasbag68
(g84
g70
NtRp1961
(dp1962
g73
(dp1963
sg82
g78
sg75
(lp1964
g68
(g89
g70
NtRp1965
(dp1966
g73
(dp1967
g93
g94
ssg82
g1961
sg75
(lp1968
S'url'
p1969
asbag68
(g89
g70
NtRp1970
(dp1971
g73
(dp1972
g100
g101
ssg82
g1961
sg75
(lp1973
S':'
asbag68
(g89
g70
NtRp1974
(dp1975
g73
(dp1976
sg82
g1961
sg75
(lp1977
g68
(g69
g70
NtRp1978
(dp1979
g73
(dp1980
g81
I5
ssg82
g1974
sg75
(lp1981
S'/Music_Repo/default/index.html'
p1982
asbasbasbag68
(g84
g70
NtRp1983
(dp1984
g73
(dp1985
sg82
g78
sg75
(lp1986
g68
(g89
g70
NtRp1987
(dp1988
g73
(dp1989
g93
g94
ssg82
g1983
sg75
(lp1990
S'uuid'
p1991
asbag68
(g89
g70
NtRp1992
(dp1993
g73
(dp1994
g100
g101
ssg82
g1983
sg75
(lp1995
S':'
asbag68
(g89
g70
NtRp1996
(dp1997
g73
(dp1998
sg82
g1983
sg75
(lp1999
g68
(g69
g70
NtRp2000
(dp2001
g73
(dp2002
g81
I5
ssg82
g1996
sg75
(lp2003
S'Music_Repo/127.0.0.1.2011-08-24.16-02-35.625fcef4-764d-4936-b0d8-2d2894b75e4b'
p2004
asbasbasbag68
(g84
g70
NtRp2005
(dp2006
g73
(dp2007
sg82
g78
sg75
(lp2008
g68
(g89
g70
NtRp2009
(dp2010
g73
(dp2011
g93
g94
ssg82
g2005
sg75
(lp2012
S'vars'
p2013
asbag68
(g89
g70
NtRp2014
(dp2015
g73
(dp2016
g100
g101
ssg82
g2005
sg75
(lp2017
S':'
asbag68
(g89
g70
NtRp2018
(dp2019
g73
(dp2020
sg82
g2005
sg75
(lp2021
g68
(g69
g70
NtRp2022
(dp2023
g73
(dp2024
g81
I5
ssg82
g2018
sg75
(lp2025
g68
(g77
g70
NtRp2026
(dp2027
g73
(dp2028
g81
I4
ssg82
Nsg75
(lp2029
sbasbasbasbag68
(g84
g70
NtRp2030
(dp2031
g73
(dp2032
sg82
g78
sg75
(lp2033
g68
(g89
g70
NtRp2034
(dp2035
g73
(dp2036
g93
g94
ssg82
g2030
sg75
(lp2037
S'wsgi'
p2038
asbag68
(g89
g70
NtRp2039
(dp2040
g73
(dp2041
g100
g101
ssg82
g2030
sg75
(lp2042
S':'
asbag68
(g89
g70
NtRp2043
(dp2044
g73
(dp2045
sg82
g2030
sg75
(lp2046
g68
(g69
g70
NtRp2047
(dp2048
g73
(dp2049
g81
I5
ssg82
g2043
sg75
(lp2050
g68
(g77
g70
NtRp2051
(dp2052
g73
(dp2053
g81
I4
ssg82
Nsg75
(lp2054
g68
(g84
g70
NtRp2055
(dp2056
g73
(dp2057
sg82
g2051
sg75
(lp2058
g68
(g89
g70
NtRp2059
(dp2060
g73
(dp2061
g93
g94
ssg82
g2055
sg75
(lp2062
S'environ'
p2063
asbag68
(g89
g70
NtRp2064
(dp2065
g73
(dp2066
g100
g101
ssg82
g2055
sg75
(lp2067
S':'
asbag68
(g89
g70
NtRp2068
(dp2069
g73
(dp2070
sg82
g2055
sg75
(lp2071
g68
(g69
g70
NtRp2072
(dp2073
g73
(dp2074
g81
I4
ssg82
g2068
sg75
(lp2075
g68
(g77
g70
NtRp2076
(dp2077
g73
(dp2078
g81
I3
ssg82
Nsg75
(lp2079
g68
(g84
g70
NtRp2080
(dp2081
g73
(dp2082
sg82
g2076
sg75
(lp2083
g68
(g89
g70
NtRp2084
(dp2085
g73
(dp2086
g93
g94
ssg82
g2080
sg75
(lp2087
S'HTTP_ACCEPT'
p2088
asbag68
(g89
g70
NtRp2089
(dp2090
g73
(dp2091
g100
g101
ssg82
g2080
sg75
(lp2092
S':'
asbag68
(g89
g70
NtRp2093
(dp2094
g73
(dp2095
sg82
g2080
sg75
(lp2096
g68
(g69
g70
NtRp2097
(dp2098
g73
(dp2099
g81
I3
ssg82
g2093
sg75
(lp2100
g1014
asbasbasbag68
(g84
g70
NtRp2101
(dp2102
g73
(dp2103
sg82
g2076
sg75
(lp2104
g68
(g89
g70
NtRp2105
(dp2106
g73
(dp2107
g93
g94
ssg82
g2101
sg75
(lp2108
S'HTTP_ACCEPT_CHARSET'
p2109
asbag68
(g89
g70
NtRp2110
(dp2111
g73
(dp2112
g100
g101
ssg82
g2101
sg75
(lp2113
S':'
asbag68
(g89
g70
NtRp2114
(dp2115
g73
(dp2116
sg82
g2101
sg75
(lp2117
g68
(g69
g70
NtRp2118
(dp2119
g73
(dp2120
g81
I3
ssg82
g2114
sg75
(lp2121
g1036
asbasbasbag68
(g84
g70
NtRp2122
(dp2123
g73
(dp2124
sg82
g2076
sg75
(lp2125
g68
(g89
g70
NtRp2126
(dp2127
g73
(dp2128
g93
g94
ssg82
g2122
sg75
(lp2129
S'HTTP_ACCEPT_ENCODING'
p2130
asbag68
(g89
g70
NtRp2131
(dp2132
g73
(dp2133
g100
g101
ssg82
g2122
sg75
(lp2134
S':'
asbag68
(g89
g70
NtRp2135
(dp2136
g73
(dp2137
sg82
g2122
sg75
(lp2138
g68
(g69
g70
NtRp2139
(dp2140
g73
(dp2141
g81
I3
ssg82
g2135
sg75
(lp2142
g1058
asbasbasbag68
(g84
g70
NtRp2143
(dp2144
g73
(dp2145
sg82
g2076
sg75
(lp2146
g68
(g89
g70
NtRp2147
(dp2148
g73
(dp2149
g93
g94
ssg82
g2143
sg75
(lp2150
S'HTTP_ACCEPT_LANGUAGE'
p2151
asbag68
(g89
g70
NtRp2152
(dp2153
g73
(dp2154
g100
g101
ssg82
g2143
sg75
(lp2155
S':'
asbag68
(g89
g70
NtRp2156
(dp2157
g73
(dp2158
sg82
g2143
sg75
(lp2159
g68
(g69
g70
NtRp2160
(dp2161
g73
(dp2162
g81
I3
ssg82
g2156
sg75
(lp2163
g1080
asbasbasbag68
(g84
g70
NtRp2164
(dp2165
g73
(dp2166
sg82
g2076
sg75
(lp2167
g68
(g89
g70
NtRp2168
(dp2169
g73
(dp2170
g93
g94
ssg82
g2164
sg75
(lp2171
S'HTTP_CACHE_CONTROL'
p2172
asbag68
(g89
g70
NtRp2173
(dp2174
g73
(dp2175
g100
g101
ssg82
g2164
sg75
(lp2176
S':'
asbag68
(g89
g70
NtRp2177
(dp2178
g73
(dp2179
sg82
g2164
sg75
(lp2180
g68
(g69
g70
NtRp2181
(dp2182
g73
(dp2183
g81
I3
ssg82
g2177
sg75
(lp2184
g1102
asbasbasbag68
(g84
g70
NtRp2185
(dp2186
g73
(dp2187
sg82
g2076
sg75
(lp2188
g68
(g89
g70
NtRp2189
(dp2190
g73
(dp2191
g93
g94
ssg82
g2185
sg75
(lp2192
S'HTTP_CONNECTION'
p2193
asbag68
(g89
g70
NtRp2194
(dp2195
g73
(dp2196
g100
g101
ssg82
g2185
sg75
(lp2197
S':'
asbag68
(g89
g70
NtRp2198
(dp2199
g73
(dp2200
sg82
g2185
sg75
(lp2201
g68
(g69
g70
NtRp2202
(dp2203
g73
(dp2204
g81
I3
ssg82
g2198
sg75
(lp2205
g1124
asbasbasbag68
(g84
g70
NtRp2206
(dp2207
g73
(dp2208
sg82
g2076
sg75
(lp2209
g68
(g89
g70
NtRp2210
(dp2211
g73
(dp2212
g93
g94
ssg82
g2206
sg75
(lp2213
S'HTTP_COOKIE'
p2214
asbag68
(g89
g70
NtRp2215
(dp2216
g73
(dp2217
g100
g101
ssg82
g2206
sg75
(lp2218
S':'
asbag68
(g89
g70
NtRp2219
(dp2220
g73
(dp2221
sg82
g2206
sg75
(lp2222
g68
(g69
g70
NtRp2223
(dp2224
g73
(dp2225
g81
I3
ssg82
g2219
sg75
(lp2226
g1146
asbasbasbag68
(g84
g70
NtRp2227
(dp2228
g73
(dp2229
sg82
g2076
sg75
(lp2230
g68
(g89
g70
NtRp2231
(dp2232
g73
(dp2233
g93
g94
ssg82
g2227
sg75
(lp2234
S'HTTP_HOST'
p2235
asbag68
(g89
g70
NtRp2236
(dp2237
g73
(dp2238
g100
g101
ssg82
g2227
sg75
(lp2239
S':'
asbag68
(g89
g70
NtRp2240
(dp2241
g73
(dp2242
sg82
g2227
sg75
(lp2243
g68
(g69
g70
NtRp2244
(dp2245
g73
(dp2246
g81
I3
ssg82
g2240
sg75
(lp2247
g1168
asbasbasbag68
(g84
g70
NtRp2248
(dp2249
g73
(dp2250
sg82
g2076
sg75
(lp2251
g68
(g89
g70
NtRp2252
(dp2253
g73
(dp2254
g93
g94
ssg82
g2248
sg75
(lp2255
S'HTTP_KEEP_ALIVE'
p2256
asbag68
(g89
g70
NtRp2257
(dp2258
g73
(dp2259
g100
g101
ssg82
g2248
sg75
(lp2260
S':'
asbag68
(g89
g70
NtRp2261
(dp2262
g73
(dp2263
sg82
g2248
sg75
(lp2264
g68
(g69
g70
NtRp2265
(dp2266
g73
(dp2267
g81
I3
ssg82
g2261
sg75
(lp2268
g1190
asbasbasbag68
(g84
g70
NtRp2269
(dp2270
g73
(dp2271
sg82
g2076
sg75
(lp2272
g68
(g89
g70
NtRp2273
(dp2274
g73
(dp2275
g93
g94
ssg82
g2269
sg75
(lp2276
S'HTTP_REFERER'
p2277
asbag68
(g89
g70
NtRp2278
(dp2279
g73
(dp2280
g100
g101
ssg82
g2269
sg75
(lp2281
S':'
asbag68
(g89
g70
NtRp2282
(dp2283
g73
(dp2284
sg82
g2269
sg75
(lp2285
g68
(g69
g70
NtRp2286
(dp2287
g73
(dp2288
g81
I3
ssg82
g2282
sg75
(lp2289
g1212
asbasbasbag68
(g84
g70
NtRp2290
(dp2291
g73
(dp2292
sg82
g2076
sg75
(lp2293
g68
(g89
g70
NtRp2294
(dp2295
g73
(dp2296
g93
g94
ssg82
g2290
sg75
(lp2297
S'HTTP_USER_AGENT'
p2298
asbag68
(g89
g70
NtRp2299
(dp2300
g73
(dp2301
g100
g101
ssg82
g2290
sg75
(lp2302
S':'
asbag68
(g89
g70
NtRp2303
(dp2304
g73
(dp2305
sg82
g2290
sg75
(lp2306
g68
(g69
g70
NtRp2307
(dp2308
g73
(dp2309
g81
I3
ssg82
g2303
sg75
(lp2310
g1234
asbasbasbag68
(g84
g70
NtRp2311
(dp2312
g73
(dp2313
sg82
g2076
sg75
(lp2314
g68
(g89
g70
NtRp2315
(dp2316
g73
(dp2317
g93
g94
ssg82
g2311
sg75
(lp2318
S'PATH_INFO'
p2319
asbag68
(g89
g70
NtRp2320
(dp2321
g73
(dp2322
g100
g101
ssg82
g2311
sg75
(lp2323
S':'
asbag68
(g89
g70
NtRp2324
(dp2325
g73
(dp2326
sg82
g2311
sg75
(lp2327
g68
(g69
g70
NtRp2328
(dp2329
g73
(dp2330
g81
I3
ssg82
g2324
sg75
(lp2331
g1277
asbasbasbag68
(g84
g70
NtRp2332
(dp2333
g73
(dp2334
sg82
g2076
sg75
(lp2335
g68
(g89
g70
NtRp2336
(dp2337
g73
(dp2338
g93
g94
ssg82
g2332
sg75
(lp2339
S'QUERY_STRING'
p2340
asbag68
(g89
g70
NtRp2341
(dp2342
g73
(dp2343
g100
g101
ssg82
g2332
sg75
(lp2344
S':'
asbag68
(g89
g70
NtRp2345
(dp2346
g73
(dp2347
sg82
g2332
sg75
(lp2348
g68
(g69
g70
NtRp2349
(dp2350
g73
(dp2351
g81
I3
ssg82
g2345
sg75
(lp2352
S''
asbasbasbag68
(g84
g70
NtRp2353
(dp2354
g73
(dp2355
sg82
g2076
sg75
(lp2356
g68
(g89
g70
NtRp2357
(dp2358
g73
(dp2359
g93
g94
ssg82
g2353
sg75
(lp2360
S'REMOTE_ADDR'
p2361
asbag68
(g89
g70
NtRp2362
(dp2363
g73
(dp2364
g100
g101
ssg82
g2353
sg75
(lp2365
S':'
asbag68
(g89
g70
NtRp2366
(dp2367
g73
(dp2368
sg82
g2353
sg75
(lp2369
g68
(g69
g70
NtRp2370
(dp2371
g73
(dp2372
g81
I3
ssg82
g2366
sg75
(lp2373
g201
asbasbasbag68
(g84
g70
NtRp2374
(dp2375
g73
(dp2376
sg82
g2076
sg75
(lp2377
g68
(g89
g70
NtRp2378
(dp2379
g73
(dp2380
g93
g94
ssg82
g2374
sg75
(lp2381
S'REMOTE_PORT'
p2382
asbag68
(g89
g70
NtRp2383
(dp2384
g73
(dp2385
g100
g101
ssg82
g2374
sg75
(lp2386
S':'
asbag68
(g89
g70
NtRp2387
(dp2388
g73
(dp2389
sg82
g2374
sg75
(lp2390
g68
(g69
g70
NtRp2391
(dp2392
g73
(dp2393
g81
I3
ssg82
g2387
sg75
(lp2394
g1341
asbasbasbag68
(g84
g70
NtRp2395
(dp2396
g73
(dp2397
sg82
g2076
sg75
(lp2398
g68
(g89
g70
NtRp2399
(dp2400
g73
(dp2401
g93
g94
ssg82
g2395
sg75
(lp2402
S'REQUEST_METHOD'
p2403
asbag68
(g89
g70
NtRp2404
(dp2405
g73
(dp2406
g100
g101
ssg82
g2395
sg75
(lp2407
S':'
asbag68
(g89
g70
NtRp2408
(dp2409
g73
(dp2410
sg82
g2395
sg75
(lp2411
g68
(g69
g70
NtRp2412
(dp2413
g73
(dp2414
g81
I3
ssg82
g2408
sg75
(lp2415
g1363
asbasbasbag68
(g84
g70
NtRp2416
(dp2417
g73
(dp2418
sg82
g2076
sg75
(lp2419
g68
(g89
g70
NtRp2420
(dp2421
g73
(dp2422
g93
g94
ssg82
g2416
sg75
(lp2423
S'SCRIPT_NAME'
p2424
asbag68
(g89
g70
NtRp2425
(dp2426
g73
(dp2427
g100
g101
ssg82
g2416
sg75
(lp2428
S':'
asbag68
(g89
g70
NtRp2429
(dp2430
g73
(dp2431
sg82
g2416
sg75
(lp2432
g68
(g69
g70
NtRp2433
(dp2434
g73
(dp2435
g81
I3
ssg82
g2429
sg75
(lp2436
S''
asbasbasbag68
(g84
g70
NtRp2437
(dp2438
g73
(dp2439
sg82
g2076
sg75
(lp2440
g68
(g89
g70
NtRp2441
(dp2442
g73
(dp2443
g93
g94
ssg82
g2437
sg75
(lp2444
S'SERVER_NAME'
p2445
asbag68
(g89
g70
NtRp2446
(dp2447
g73
(dp2448
g100
g101
ssg82
g2437
sg75
(lp2449
S':'
asbag68
(g89
g70
NtRp2450
(dp2451
g73
(dp2452
sg82
g2437
sg75
(lp2453
g68
(g69
g70
NtRp2454
(dp2455
g73
(dp2456
g81
I3
ssg82
g2450
sg75
(lp2457
g1406
asbasbasbag68
(g84
g70
NtRp2458
(dp2459
g73
(dp2460
sg82
g2076
sg75
(lp2461
g68
(g89
g70
NtRp2462
(dp2463
g73
(dp2464
g93
g94
ssg82
g2458
sg75
(lp2465
S'SERVER_PORT'
p2466
asbag68
(g89
g70
NtRp2467
(dp2468
g73
(dp2469
g100
g101
ssg82
g2458
sg75
(lp2470
S':'
asbag68
(g89
g70
NtRp2471
(dp2472
g73
(dp2473
sg82
g2458
sg75
(lp2474
g68
(g69
g70
NtRp2475
(dp2476
g73
(dp2477
g81
I3
ssg82
g2471
sg75
(lp2478
g1428
asbasbasbag68
(g84
g70
NtRp2479
(dp2480
g73
(dp2481
sg82
g2076
sg75
(lp2482
g68
(g89
g70
NtRp2483
(dp2484
g73
(dp2485
g93
g94
ssg82
g2479
sg75
(lp2486
S'SERVER_PROTOCOL'
p2487
asbag68
(g89
g70
NtRp2488
(dp2489
g73
(dp2490
g100
g101
ssg82
g2479
sg75
(lp2491
S':'
asbag68
(g89
g70
NtRp2492
(dp2493
g73
(dp2494
sg82
g2479
sg75
(lp2495
g68
(g69
g70
NtRp2496
(dp2497
g73
(dp2498
g81
I3
ssg82
g2492
sg75
(lp2499
g1450
asbasbasbag68
(g84
g70
NtRp2500
(dp2501
g73
(dp2502
sg82
g2076
sg75
(lp2503
g68
(g89
g70
NtRp2504
(dp2505
g73
(dp2506
g93
g94
ssg82
g2500
sg75
(lp2507
S'SERVER_SOFTWARE'
p2508
asbag68
(g89
g70
NtRp2509
(dp2510
g73
(dp2511
g100
g101
ssg82
g2500
sg75
(lp2512
S':'
asbag68
(g89
g70
NtRp2513
(dp2514
g73
(dp2515
sg82
g2500
sg75
(lp2516
g68
(g69
g70
NtRp2517
(dp2518
g73
(dp2519
g81
I3
ssg82
g2513
sg75
(lp2520
g1472
asbasbasbag68
(g84
g70
NtRp2521
(dp2522
g73
(dp2523
sg82
g2076
sg75
(lp2524
g68
(g89
g70
NtRp2525
(dp2526
g73
(dp2527
g93
g94
ssg82
g2521
sg75
(lp2528
S'wsgi.errors'
p2529
asbag68
(g89
g70
NtRp2530
(dp2531
g73
(dp2532
g100
g101
ssg82
g2521
sg75
(lp2533
S':'
asbag68
(g89
g70
NtRp2534
(dp2535
g73
(dp2536
sg82
g2521
sg75
(lp2537
g68
(g69
g70
NtRp2538
(dp2539
g73
(dp2540
g81
I3
ssg82
g2534
sg75
(lp2541
S"<open file '<stderr>', mode 'w' at 0xb77c10d0>"
p2542
asbasbasbag68
(g84
g70
NtRp2543
(dp2544
g73
(dp2545
sg82
g2076
sg75
(lp2546
g68
(g89
g70
NtRp2547
(dp2548
g73
(dp2549
g93
g94
ssg82
g2543
sg75
(lp2550
S'wsgi.file_wrapper'
p2551
asbag68
(g89
g70
NtRp2552
(dp2553
g73
(dp2554
g100
g101
ssg82
g2543
sg75
(lp2555
S':'
asbag68
(g89
g70
NtRp2556
(dp2557
g73
(dp2558
sg82
g2543
sg75
(lp2559
g68
(g69
g70
NtRp2560
(dp2561
g73
(dp2562
g81
I3
ssg82
g2556
sg75
(lp2563
S'<class gluon.rocket.FileWrapper at 0x8e4d08c>'
p2564
asbasbasbag68
(g84
g70
NtRp2565
(dp2566
g73
(dp2567
sg82
g2076
sg75
(lp2568
g68
(g89
g70
NtRp2569
(dp2570
g73
(dp2571
g93
g94
ssg82
g2565
sg75
(lp2572
S'wsgi.input'
p2573
asbag68
(g89
g70
NtRp2574
(dp2575
g73
(dp2576
g100
g101
ssg82
g2565
sg75
(lp2577
S':'
asbag68
(g89
g70
NtRp2578
(dp2579
g73
(dp2580
sg82
g2565
sg75
(lp2581
g68
(g69
g70
NtRp2582
(dp2583
g73
(dp2584
g81
I3
ssg82
g2578
sg75
(lp2585
S'<cStringIO.StringO object at 0x95b66c0>'
p2586
asbasbasbag68
(g84
g70
NtRp2587
(dp2588
g73
(dp2589
sg82
g2076
sg75
(lp2590
g68
(g89
g70
NtRp2591
(dp2592
g73
(dp2593
g93
g94
ssg82
g2587
sg75
(lp2594
S'wsgi.multiprocess'
p2595
asbag68
(g89
g70
NtRp2596
(dp2597
g73
(dp2598
g100
g101
ssg82
g2587
sg75
(lp2599
S':'
asbag68
(g89
g70
NtRp2600
(dp2601
g73
(dp2602
sg82
g2587
sg75
(lp2603
g68
(g69
g70
NtRp2604
(dp2605
g73
(dp2606
g81
I3
ssg82
g2600
sg75
(lp2607
g111
asbasbasbag68
(g84
g70
NtRp2608
(dp2609
g73
(dp2610
sg82
g2076
sg75
(lp2611
g68
(g89
g70
NtRp2612
(dp2613
g73
(dp2614
g93
g94
ssg82
g2608
sg75
(lp2615
S'wsgi.multithread'
p2616
asbag68
(g89
g70
NtRp2617
(dp2618
g73
(dp2619
g100
g101
ssg82
g2608
sg75
(lp2620
S':'
asbag68
(g89
g70
NtRp2621
(dp2622
g73
(dp2623
sg82
g2608
sg75
(lp2624
g68
(g69
g70
NtRp2625
(dp2626
g73
(dp2627
g81
I3
ssg82
g2621
sg75
(lp2628
g1646
asbasbasbag68
(g84
g70
NtRp2629
(dp2630
g73
(dp2631
sg82
g2076
sg75
(lp2632
g68
(g89
g70
NtRp2633
(dp2634
g73
(dp2635
g93
g94
ssg82
g2629
sg75
(lp2636
S'wsgi.run_once'
p2637
asbag68
(g89
g70
NtRp2638
(dp2639
g73
(dp2640
g100
g101
ssg82
g2629
sg75
(lp2641
S':'
asbag68
(g89
g70
NtRp2642
(dp2643
g73
(dp2644
sg82
g2629
sg75
(lp2645
g68
(g69
g70
NtRp2646
(dp2647
g73
(dp2648
g81
I3
ssg82
g2642
sg75
(lp2649
g111
asbasbasbag68
(g84
g70
NtRp2650
(dp2651
g73
(dp2652
sg82
g2076
sg75
(lp2653
g68
(g89
g70
NtRp2654
(dp2655
g73
(dp2656
g93
g94
ssg82
g2650
sg75
(lp2657
S'wsgi.url_scheme'
p2658
asbag68
(g89
g70
NtRp2659
(dp2660
g73
(dp2661
g100
g101
ssg82
g2650
sg75
(lp2662
S':'
asbag68
(g89
g70
NtRp2663
(dp2664
g73
(dp2665
sg82
g2650
sg75
(lp2666
g68
(g69
g70
NtRp2667
(dp2668
g73
(dp2669
g81
I3
ssg82
g2663
sg75
(lp2670
g1689
asbasbasbag68
(g84
g70
NtRp2671
(dp2672
g73
(dp2673
sg82
g2076
sg75
(lp2674
g68
(g89
g70
NtRp2675
(dp2676
g73
(dp2677
g93
g94
ssg82
g2671
sg75
(lp2678
S'wsgi.version'
p2679
asbag68
(g89
g70
NtRp2680
(dp2681
g73
(dp2682
g100
g101
ssg82
g2671
sg75
(lp2683
S':'
asbag68
(g89
g70
NtRp2684
(dp2685
g73
(dp2686
sg82
g2671
sg75
(lp2687
g68
(g69
g70
NtRp2688
(dp2689
g73
(dp2690
g81
I3
ssg82
g2684
sg75
(lp2691
S'1'
asbasbasbasbasbasbasbasbasbasbasbasbasbsS'frames'
p2692
(lp2693
(dp2694
S'file'
p2695
S'/home/vsvah/Desktop/Coursework/Sem3/SSAD/web2py/gluon/restricted.py'
p2696
sS'dump'
p2697
(dp2698
S'code'
p2699
S'\'# -*- coding: utf-8 -*-\\n# this file is released ...cess")\\n\\t\\n\\nresponse._vars=response._caller(index)\\n\''
p2700
sS'layer'
p2701
S"'/home/vsvah/Desktop/Coursework/Sem3/SSAD/web2py/applications/Music_Repo/controllers/default.py'"
p2702
sS'global compile2'
p2703
S'<function compile2>'
p2704
sS'ccode'
p2705
S'undefined'
p2706
ssS'lnum'
p2707
I191
sS'lines'
p2708
(dp2709
I192
S'        exec ccode in environment'
p2710
sI193
S'    except HTTP:'
p2711
sI194
S'        raise'
p2712
sI195
S'    except Exception, error:'
p2713
sI186
S"    environment['__file__'] = layer"
p2714
sI187
S'    try:'
p2715
sI188
S'        if type(code) == types.CodeType:'
p2716
sI189
S'            ccode = code'
p2717
sI190
S'        else:'
p2718
sI191
S'            ccode = compile2(code,layer)'
p2719
ssS'call'
p2720
S'(code=\'# -*- coding: utf-8 -*-\\n# this file is released ...cess")\\n\\t\\n\\nresponse._vars=response._caller(index)\\n\', environment={\'A\': <class \'gluon.html.A\'>, \'Auth\': <class \'gluon.tools.Auth\'>, \'B\': <class \'gluon.html.B\'>, \'BEAUTIFY\': <class \'gluon.html.BEAUTIFY\'>, \'BODY\': <class \'gluon.html.BODY\'>, \'BR\': <class \'gluon.html.BR\'>, \'BUTTON\': <class \'gluon.html.BUTTON\'>, \'CAT\': <class \'gluon.html.CAT\'>, \'CENTER\': <class \'gluon.html.CENTER\'>, \'CLEANUP\': <class \'gluon.validators.CLEANUP\'>, ...}, layer=\'/home/vsvah/Desktop/Coursework/Sem3/SSAD/web2py/applications/Music_Repo/controllers/default.py\')'
p2721
sS'func'
p2722
S'restricted'
p2723
sa(dp2724
g2695
S'/home/vsvah/Desktop/Coursework/Sem3/SSAD/web2py/gluon/restricted.py'
p2725
sg2697
(dp2726
S'builtincompile'
p2727
S'<built-in function compile>'
p2728
sS'code'
p2729
S'\'# -*- coding: utf-8 -*-\\n# this file is released ...cess")\\n\\t\\n\\nresponse._vars=response._caller(index)\\n\''
p2730
sS'code.rstrip'
p2731
S'<built-in method rstrip of str object>'
p2732
sS').replace'
p2733
g2706
sS'layer'
p2734
S"'/home/vsvah/Desktop/Coursework/Sem3/SSAD/web2py/applications/Music_Repo/controllers/default.py'"
p2735
ssg2707
I178
sg2708
(dp2736
I173
S''
sI174
S'def compile2(code,layer):'
p2737
sI175
S'    """'
p2738
sI176
S"    The +'\\n' is necessary else compile fails when code ends in a comment."
p2739
sI177
S'    """'
p2740
sI178
S"    return compile(code.rstrip().replace('\\r\\n','\\n')+'\\n', layer, 'exec')"
p2741
sI179
S''
sI180
S"def restricted(code, environment={}, layer='Unknown'):"
p2742
sI181
S'    """'
p2743
sI182
S'    runs code in environment and returns the output. if an exception occurs'
p2744
ssg2720
S'(code=\'# -*- coding: utf-8 -*-\\n# this file is released ...cess")\\n\\t\\n\\nresponse._vars=response._caller(index)\\n\', layer=\'/home/vsvah/Desktop/Coursework/Sem3/SSAD/web2py/applications/Music_Repo/controllers/default.py\')'
p2745
sg2722
S'compile2'
p2746
sasS'pyver'
p2747
S'Python 2.6.5: /usr/bin/python'
p2748
sS'session'
p2749
g68
(g69
g70
NtRp2750
(dp2751
g73
(dp2752
sg75
(lp2753
g68
(g77
g70
NtRp2754
(dp2755
g73
(dp2756
g81
I5
ssg82
Nsg75
(lp2757
g68
(g84
g70
NtRp2758
(dp2759
g73
(dp2760
sg82
g2754
sg75
(lp2761
g68
(g89
g70
NtRp2762
(dp2763
g73
(dp2764
g93
g94
ssg82
g2758
sg75
(lp2765
S'last_query'
p2766
asbag68
(g89
g70
NtRp2767
(dp2768
g73
(dp2769
g100
g101
ssg82
g2758
sg75
(lp2770
S':'
asbag68
(g89
g70
NtRp2771
(dp2772
g73
(dp2773
sg82
g2758
sg75
(lp2774
g68
(g69
g70
NtRp2775
(dp2776
g73
(dp2777
g81
I5
ssg82
g2771
sg75
(lp2778
S'db.artist.id>0'
p2779
asbasbasbasbasbsS'etype'
p2780
S"<type 'exceptions.SyntaxError'>"
p2781
sS'date'
p2782
S'Wed Aug 24 16:02:35 2011'
p2783
sS'response'
p2784
g68
(g69
g70
NtRp2785
(dp2786
g73
(dp2787
sg75
(lp2788
g68
(g77
g70
NtRp2789
(dp2790
g73
(dp2791
g81
I5
ssg82
Nsg75
(lp2792
g68
(g84
g70
NtRp2793
(dp2794
g73
(dp2795
sg82
g2789
sg75
(lp2796
g68
(g89
g70
NtRp2797
(dp2798
g73
(dp2799
g93
g94
ssg82
g2793
sg75
(lp2800
g166
asbag68
(g89
g70
NtRp2801
(dp2802
g73
(dp2803
g100
g101
ssg82
g2793
sg75
(lp2804
S':'
asbag68
(g89
g70
NtRp2805
(dp2806
g73
(dp2807
sg82
g2793
sg75
(lp2808
g68
(g69
g70
NtRp2809
(dp2810
g73
(dp2811
g81
I5
ssg82
g2805
sg75
(lp2812
S'<cStringIO.StringO object at 0x9515b00>'
p2813
asbasbasbag68
(g84
g70
NtRp2814
(dp2815
g73
(dp2816
sg82
g2789
sg75
(lp2817
g68
(g89
g70
NtRp2818
(dp2819
g73
(dp2820
g93
g94
ssg82
g2814
sg75
(lp2821
g232
asbag68
(g89
g70
NtRp2822
(dp2823
g73
(dp2824
g100
g101
ssg82
g2814
sg75
(lp2825
S':'
asbag68
(g89
g70
NtRp2826
(dp2827
g73
(dp2828
sg82
g2814
sg75
(lp2829
g68
(g69
g70
NtRp2830
(dp2831
g73
(dp2832
g81
I5
ssg82
g2826
sg75
(lp2833
g68
(g77
g70
NtRp2834
(dp2835
g73
(dp2836
g81
I4
ssg82
Nsg75
(lp2837
g68
(g84
g70
NtRp2838
(dp2839
g73
(dp2840
sg82
g2834
sg75
(lp2841
g68
(g89
g70
NtRp2842
(dp2843
g73
(dp2844
g93
g94
ssg82
g2838
sg75
(lp2845
S'session_id_music_repo'
p2846
asbag68
(g89
g70
NtRp2847
(dp2848
g73
(dp2849
g100
g101
ssg82
g2838
sg75
(lp2850
S':'
asbag68
(g89
g70
NtRp2851
(dp2852
g73
(dp2853
sg82
g2838
sg75
(lp2854
g68
(g69
g70
NtRp2855
(dp2856
g73
(dp2857
g81
I4
ssg82
g2851
sg75
(lp2858
g68
(g77
g70
NtRp2859
(dp2860
g73
(dp2861
g81
I3
ssg82
Nsg75
(lp2862
g68
(g84
g70
NtRp2863
(dp2864
g73
(dp2865
sg82
g2859
sg75
(lp2866
g68
(g89
g70
NtRp2867
(dp2868
g73
(dp2869
g93
g94
ssg82
g2863
sg75
(lp2870
g282
asbag68
(g89
g70
NtRp2871
(dp2872
g73
(dp2873
g100
g101
ssg82
g2863
sg75
(lp2874
S':'
asbag68
(g89
g70
NtRp2875
(dp2876
g73
(dp2877
sg82
g2863
sg75
(lp2878
g68
(g69
g70
NtRp2879
(dp2880
g73
(dp2881
g81
I3
ssg82
g2875
sg75
(lp2882
S''
asbasbasbag68
(g84
g70
NtRp2883
(dp2884
g73
(dp2885
sg82
g2859
sg75
(lp2886
g68
(g89
g70
NtRp2887
(dp2888
g73
(dp2889
g93
g94
ssg82
g2883
sg75
(lp2890
g303
asbag68
(g89
g70
NtRp2891
(dp2892
g73
(dp2893
g100
g101
ssg82
g2883
sg75
(lp2894
S':'
asbag68
(g89
g70
NtRp2895
(dp2896
g73
(dp2897
sg82
g2883
sg75
(lp2898
g68
(g69
g70
NtRp2899
(dp2900
g73
(dp2901
g81
I3
ssg82
g2895
sg75
(lp2902
S''
asbasbasbag68
(g84
g70
NtRp2903
(dp2904
g73
(dp2905
sg82
g2859
sg75
(lp2906
g68
(g89
g70
NtRp2907
(dp2908
g73
(dp2909
g93
g94
ssg82
g2903
sg75
(lp2910
g324
asbag68
(g89
g70
NtRp2911
(dp2912
g73
(dp2913
g100
g101
ssg82
g2903
sg75
(lp2914
S':'
asbag68
(g89
g70
NtRp2915
(dp2916
g73
(dp2917
sg82
g2903
sg75
(lp2918
g68
(g69
g70
NtRp2919
(dp2920
g73
(dp2921
g81
I3
ssg82
g2915
sg75
(lp2922
S''
asbasbasbag68
(g84
g70
NtRp2923
(dp2924
g73
(dp2925
sg82
g2859
sg75
(lp2926
g68
(g89
g70
NtRp2927
(dp2928
g73
(dp2929
g93
g94
ssg82
g2923
sg75
(lp2930
g345
asbag68
(g89
g70
NtRp2931
(dp2932
g73
(dp2933
g100
g101
ssg82
g2923
sg75
(lp2934
S':'
asbag68
(g89
g70
NtRp2935
(dp2936
g73
(dp2937
sg82
g2923
sg75
(lp2938
g68
(g69
g70
NtRp2939
(dp2940
g73
(dp2941
g81
I3
ssg82
g2935
sg75
(lp2942
S''
asbasbasbag68
(g84
g70
NtRp2943
(dp2944
g73
(dp2945
sg82
g2859
sg75
(lp2946
g68
(g89
g70
NtRp2947
(dp2948
g73
(dp2949
g93
g94
ssg82
g2943
sg75
(lp2950
g366
asbag68
(g89
g70
NtRp2951
(dp2952
g73
(dp2953
g100
g101
ssg82
g2943
sg75
(lp2954
S':'
asbag68
(g89
g70
NtRp2955
(dp2956
g73
(dp2957
sg82
g2943
sg75
(lp2958
g68
(g69
g70
NtRp2959
(dp2960
g73
(dp2961
g81
I3
ssg82
g2955
sg75
(lp2962
S''
asbasbasbag68
(g84
g70
NtRp2963
(dp2964
g73
(dp2965
sg82
g2859
sg75
(lp2966
g68
(g89
g70
NtRp2967
(dp2968
g73
(dp2969
g93
g94
ssg82
g2963
sg75
(lp2970
g387
asbag68
(g89
g70
NtRp2971
(dp2972
g73
(dp2973
g100
g101
ssg82
g2963
sg75
(lp2974
S':'
asbag68
(g89
g70
NtRp2975
(dp2976
g73
(dp2977
sg82
g2963
sg75
(lp2978
g68
(g69
g70
NtRp2979
(dp2980
g73
(dp2981
g81
I3
ssg82
g2975
sg75
(lp2982
S'/'
asbasbasbag68
(g84
g70
NtRp2983
(dp2984
g73
(dp2985
sg82
g2859
sg75
(lp2986
g68
(g89
g70
NtRp2987
(dp2988
g73
(dp2989
g93
g94
ssg82
g2983
sg75
(lp2990
g408
asbag68
(g89
g70
NtRp2991
(dp2992
g73
(dp2993
g100
g101
ssg82
g2983
sg75
(lp2994
S':'
asbag68
(g89
g70
NtRp2995
(dp2996
g73
(dp2997
sg82
g2983
sg75
(lp2998
g68
(g69
g70
NtRp2999
(dp3000
g73
(dp3001
g81
I3
ssg82
g2995
sg75
(lp3002
S''
asbasbasbag68
(g84
g70
NtRp3003
(dp3004
g73
(dp3005
sg82
g2859
sg75
(lp3006
g68
(g89
g70
NtRp3007
(dp3008
g73
(dp3009
g93
g94
ssg82
g3003
sg75
(lp3010
g429
asbag68
(g89
g70
NtRp3011
(dp3012
g73
(dp3013
g100
g101
ssg82
g3003
sg75
(lp3014
S':'
asbag68
(g89
g70
NtRp3015
(dp3016
g73
(dp3017
sg82
g3003
sg75
(lp3018
g68
(g69
g70
NtRp3019
(dp3020
g73
(dp3021
g81
I3
ssg82
g3015
sg75
(lp3022
S''
asbasbasbasbasbasbasbasbasbasbasbag68
(g84
g70
NtRp3023
(dp3024
g73
(dp3025
sg82
g2789
sg75
(lp3026
g68
(g89
g70
NtRp3027
(dp3028
g73
(dp3029
g93
g94
ssg82
g3023
sg75
(lp3030
S'files'
p3031
asbag68
(g89
g70
NtRp3032
(dp3033
g73
(dp3034
g100
g101
ssg82
g3023
sg75
(lp3035
S':'
asbag68
(g89
g70
NtRp3036
(dp3037
g73
(dp3038
sg82
g3023
sg75
(lp3039
g68
(g69
g70
NtRp3040
(dp3041
g73
(dp3042
g81
I5
ssg82
g3036
sg75
(lp3043
g68
(g77
g70
NtRp3044
(dp3045
g73
(dp3046
g81
I4
ssg82
Nsg75
(lp3047
sbasbasbasbag68
(g84
g70
NtRp3048
(dp3049
g73
(dp3050
sg82
g2789
sg75
(lp3051
g68
(g89
g70
NtRp3052
(dp3053
g73
(dp3054
g93
g94
ssg82
g3048
sg75
(lp3055
S'flash'
p3056
asbag68
(g89
g70
NtRp3057
(dp3058
g73
(dp3059
g100
g101
ssg82
g3048
sg75
(lp3060
S':'
asbag68
(g89
g70
NtRp3061
(dp3062
g73
(dp3063
sg82
g3048
sg75
(lp3064
g68
(g69
g70
NtRp3065
(dp3066
g73
(dp3067
g81
I5
ssg82
g3061
sg75
(lp3068
S''
asbasbasbag68
(g84
g70
NtRp3069
(dp3070
g73
(dp3071
sg82
g2789
sg75
(lp3072
g68
(g89
g70
NtRp3073
(dp3074
g73
(dp3075
g93
g94
ssg82
g3069
sg75
(lp3076
S'generic_patterns'
p3077
asbag68
(g89
g70
NtRp3078
(dp3079
g73
(dp3080
g100
g101
ssg82
g3069
sg75
(lp3081
S':'
asbag68
(g89
g70
NtRp3082
(dp3083
g73
(dp3084
sg82
g3069
sg75
(lp3085
g68
(g69
g70
NtRp3086
(dp3087
g73
(dp3088
g81
I5
ssg82
g3082
sg75
(lp3089
g68
(g77
g70
NtRp3090
(dp3091
g73
(dp3092
g81
I4
ssg82
Nsg75
(lp3093
g68
(g84
g70
NtRp3094
(dp3095
g73
(dp3096
sg82
g3090
sg75
(lp3097
g68
(g89
g70
NtRp3098
(dp3099
g73
(dp3100
sg82
g3094
sg75
(lp3101
g68
(g69
g70
NtRp3102
(dp3103
g73
(dp3104
g81
I4
ssg82
g3098
sg75
(lp3105
S'*'
asbasbasbasbasbasbasbag68
(g84
g70
NtRp3106
(dp3107
g73
(dp3108
sg82
g2789
sg75
(lp3109
g68
(g89
g70
NtRp3110
(dp3111
g73
(dp3112
g93
g94
ssg82
g3106
sg75
(lp3113
S'headers'
p3114
asbag68
(g89
g70
NtRp3115
(dp3116
g73
(dp3117
g100
g101
ssg82
g3106
sg75
(lp3118
S':'
asbag68
(g89
g70
NtRp3119
(dp3120
g73
(dp3121
sg82
g3106
sg75
(lp3122
g68
(g69
g70
NtRp3123
(dp3124
g73
(dp3125
g81
I5
ssg82
g3119
sg75
(lp3126
g68
(g77
g70
NtRp3127
(dp3128
g73
(dp3129
g81
I4
ssg82
Nsg75
(lp3130
g68
(g84
g70
NtRp3131
(dp3132
g73
(dp3133
sg82
g3127
sg75
(lp3134
g68
(g89
g70
NtRp3135
(dp3136
g73
(dp3137
g93
g94
ssg82
g3131
sg75
(lp3138
S'Cache-Control'
p3139
asbag68
(g89
g70
NtRp3140
(dp3141
g73
(dp3142
g100
g101
ssg82
g3131
sg75
(lp3143
S':'
asbag68
(g89
g70
NtRp3144
(dp3145
g73
(dp3146
sg82
g3131
sg75
(lp3147
g68
(g69
g70
NtRp3148
(dp3149
g73
(dp3150
g81
I4
ssg82
g3144
sg75
(lp3151
S'no-store, no-cache, must-revalidate, post-check=0, pre-check=0'
p3152
asbasbasbag68
(g84
g70
NtRp3153
(dp3154
g73
(dp3155
sg82
g3127
sg75
(lp3156
g68
(g89
g70
NtRp3157
(dp3158
g73
(dp3159
g93
g94
ssg82
g3153
sg75
(lp3160
S'Content-Type'
p3161
asbag68
(g89
g70
NtRp3162
(dp3163
g73
(dp3164
g100
g101
ssg82
g3153
sg75
(lp3165
S':'
asbag68
(g89
g70
NtRp3166
(dp3167
g73
(dp3168
sg82
g3153
sg75
(lp3169
g68
(g69
g70
NtRp3170
(dp3171
g73
(dp3172
g81
I4
ssg82
g3166
sg75
(lp3173
S'text/html; charset=utf-8'
p3174
asbasbasbag68
(g84
g70
NtRp3175
(dp3176
g73
(dp3177
sg82
g3127
sg75
(lp3178
g68
(g89
g70
NtRp3179
(dp3180
g73
(dp3181
g93
g94
ssg82
g3175
sg75
(lp3182
S'Expires'
p3183
asbag68
(g89
g70
NtRp3184
(dp3185
g73
(dp3186
g100
g101
ssg82
g3175
sg75
(lp3187
S':'
asbag68
(g89
g70
NtRp3188
(dp3189
g73
(dp3190
sg82
g3175
sg75
(lp3191
g68
(g69
g70
NtRp3192
(dp3193
g73
(dp3194
g81
I4
ssg82
g3188
sg75
(lp3195
S'Wed, 24 Aug 2011 10:32:35 GMT'
p3196
asbasbasbag68
(g84
g70
NtRp3197
(dp3198
g73
(dp3199
sg82
g3127
sg75
(lp3200
g68
(g89
g70
NtRp3201
(dp3202
g73
(dp3203
g93
g94
ssg82
g3197
sg75
(lp3204
S'Pragma'
p3205
asbag68
(g89
g70
NtRp3206
(dp3207
g73
(dp3208
g100
g101
ssg82
g3197
sg75
(lp3209
S':'
asbag68
(g89
g70
NtRp3210
(dp3211
g73
(dp3212
sg82
g3197
sg75
(lp3213
g68
(g69
g70
NtRp3214
(dp3215
g73
(dp3216
g81
I4
ssg82
g3210
sg75
(lp3217
S'no-cache'
p3218
asbasbasbag68
(g84
g70
NtRp3219
(dp3220
g73
(dp3221
sg82
g3127
sg75
(lp3222
g68
(g89
g70
NtRp3223
(dp3224
g73
(dp3225
g93
g94
ssg82
g3219
sg75
(lp3226
S'X-Powered-By'
p3227
asbag68
(g89
g70
NtRp3228
(dp3229
g73
(dp3230
g100
g101
ssg82
g3219
sg75
(lp3231
S':'
asbag68
(g89
g70
NtRp3232
(dp3233
g73
(dp3234
sg82
g3219
sg75
(lp3235
g68
(g69
g70
NtRp3236
(dp3237
g73
(dp3238
g81
I4
ssg82
g3232
sg75
(lp3239
S'web2py'
p3240
asbasbasbasbasbasbasbag68
(g84
g70
NtRp3241
(dp3242
g73
(dp3243
sg82
g2789
sg75
(lp3244
g68
(g89
g70
NtRp3245
(dp3246
g73
(dp3247
g93
g94
ssg82
g3241
sg75
(lp3248
S'menu'
p3249
asbag68
(g89
g70
NtRp3250
(dp3251
g73
(dp3252
g100
g101
ssg82
g3241
sg75
(lp3253
S':'
asbag68
(g89
g70
NtRp3254
(dp3255
g73
(dp3256
sg82
g3241
sg75
(lp3257
g68
(g69
g70
NtRp3258
(dp3259
g73
(dp3260
g81
I5
ssg82
g3254
sg75
(lp3261
g68
(g77
g70
NtRp3262
(dp3263
g73
(dp3264
g81
I4
ssg82
Nsg75
(lp3265
g68
(g84
g70
NtRp3266
(dp3267
g73
(dp3268
sg82
g3262
sg75
(lp3269
g68
(g89
g70
NtRp3270
(dp3271
g73
(dp3272
sg82
g3266
sg75
(lp3273
g68
(g69
g70
NtRp3274
(dp3275
g73
(dp3276
g81
I4
ssg82
g3270
sg75
(lp3277
g68
(g77
g70
NtRp3278
(dp3279
g73
(dp3280
g81
I3
ssg82
Nsg75
(lp3281
g68
(g84
g70
NtRp3282
(dp3283
g73
(dp3284
sg82
g3278
sg75
(lp3285
g68
(g89
g70
NtRp3286
(dp3287
g73
(dp3288
sg82
g3282
sg75
(lp3289
g68
(g69
g70
NtRp3290
(dp3291
g73
(dp3292
g81
I3
ssg82
g3286
sg75
(lp3293
cgluon.languages
lazyT_unpickle
p3294
(S's\x04\x00\x00\x00Home'
tRp3295
asbasbasbag68
(g84
g70
NtRp3296
(dp3297
g73
(dp3298
sg82
g3278
sg75
(lp3299
g68
(g89
g70
NtRp3300
(dp3301
g73
(dp3302
sg82
g3296
sg75
(lp3303
g68
(g69
g70
NtRp3304
(dp3305
g73
(dp3306
g81
I3
ssg82
g3300
sg75
(lp3307
g111
asbasbasbag68
(g84
g70
NtRp3308
(dp3309
g73
(dp3310
sg82
g3278
sg75
(lp3311
g68
(g89
g70
NtRp3312
(dp3313
g73
(dp3314
sg82
g3308
sg75
(lp3315
g68
(g69
g70
NtRp3316
(dp3317
g73
(dp3318
g81
I3
ssg82
g3312
sg75
(lp3319
S'/Music_Repo/default/index'
p3320
asbasbasbag68
(g84
g70
NtRp3321
(dp3322
g73
(dp3323
sg82
g3278
sg75
(lp3324
g68
(g89
g70
NtRp3325
(dp3326
g73
(dp3327
sg82
g3321
sg75
(lp3328
g68
(g69
g70
NtRp3329
(dp3330
g73
(dp3331
g81
I3
ssg82
g3325
sg75
(lp3332
g68
(g77
g70
NtRp3333
(dp3334
g73
(dp3335
g81
I2
ssg82
Nsg75
(lp3336
sbasbasbasbasbasbasbasbag68
(g84
g70
NtRp3337
(dp3338
g73
(dp3339
sg82
g3262
sg75
(lp3340
g68
(g89
g70
NtRp3341
(dp3342
g73
(dp3343
sg82
g3337
sg75
(lp3344
g68
(g69
g70
NtRp3345
(dp3346
g73
(dp3347
g81
I4
ssg82
g3341
sg75
(lp3348
g68
(g77
g70
NtRp3349
(dp3350
g73
(dp3351
g81
I3
ssg82
Nsg75
(lp3352
g68
(g84
g70
NtRp3353
(dp3354
g73
(dp3355
sg82
g3349
sg75
(lp3356
g68
(g89
g70
NtRp3357
(dp3358
g73
(dp3359
sg82
g3353
sg75
(lp3360
g68
(g69
g70
NtRp3361
(dp3362
g73
(dp3363
g81
I3
ssg82
g3357
sg75
(lp3364
g3294
(S's\x08\x00\x00\x00This App'
tRp3365
asbasbasbag68
(g84
g70
NtRp3366
(dp3367
g73
(dp3368
sg82
g3349
sg75
(lp3369
g68
(g89
g70
NtRp3370
(dp3371
g73
(dp3372
sg82
g3366
sg75
(lp3373
g68
(g69
g70
NtRp3374
(dp3375
g73
(dp3376
g81
I3
ssg82
g3370
sg75
(lp3377
g111
asbasbasbag68
(g84
g70
NtRp3378
(dp3379
g73
(dp3380
sg82
g3349
sg75
(lp3381
g68
(g89
g70
NtRp3382
(dp3383
g73
(dp3384
sg82
g3378
sg75
(lp3385
g68
(g69
g70
NtRp3386
(dp3387
g73
(dp3388
g81
I3
ssg82
g3382
sg75
(lp3389
S'/admin/default/design/Music_Repo'
p3390
asbasbasbag68
(g84
g70
NtRp3391
(dp3392
g73
(dp3393
sg82
g3349
sg75
(lp3394
g68
(g89
g70
NtRp3395
(dp3396
g73
(dp3397
sg82
g3391
sg75
(lp3398
g68
(g69
g70
NtRp3399
(dp3400
g73
(dp3401
g81
I3
ssg82
g3395
sg75
(lp3402
g68
(g77
g70
NtRp3403
(dp3404
g73
(dp3405
g81
I2
ssg82
Nsg75
(lp3406
g68
(g84
g70
NtRp3407
(dp3408
g73
(dp3409
sg82
g3403
sg75
(lp3410
g68
(g89
g70
NtRp3411
(dp3412
g73
(dp3413
sg82
g3407
sg75
(lp3414
g68
(g69
g70
NtRp3415
(dp3416
g73
(dp3417
g81
I2
ssg82
g3411
sg75
(lp3418
g68
(g77
g70
NtRp3419
(dp3420
g73
(dp3421
g81
I1
ssg82
Nsg75
(lp3422
g68
(g84
g70
NtRp3423
(dp3424
g73
(dp3425
sg82
g3419
sg75
(lp3426
g68
(g89
g70
NtRp3427
(dp3428
g73
(dp3429
sg82
g3423
sg75
(lp3430
g68
(g69
g70
NtRp3431
(dp3432
g73
(dp3433
g81
I1
ssg82
g3427
sg75
(lp3434
g3294
(S's\n\x00\x00\x00Controller'
tRp3435
asbasbasbag68
(g84
g70
NtRp3436
(dp3437
g73
(dp3438
sg82
g3419
sg75
(lp3439
g68
(g89
g70
NtRp3440
(dp3441
g73
(dp3442
sg82
g3436
sg75
(lp3443
g68
(g69
g70
NtRp3444
(dp3445
g73
(dp3446
g81
I1
ssg82
g3440
sg75
(lp3447
I00
asbasbasbag68
(g84
g70
NtRp3448
(dp3449
g73
(dp3450
sg82
g3419
sg75
(lp3451
g68
(g89
g70
NtRp3452
(dp3453
g73
(dp3454
sg82
g3448
sg75
(lp3455
g68
(g69
g70
NtRp3456
(dp3457
g73
(dp3458
g81
I1
ssg82
g3452
sg75
(lp3459
S'/admin/default/edit/Music_Repo/controllers/default.py'
p3460
asbasbasbasbasbasbasbag68
(g84
g70
NtRp3461
(dp3462
g73
(dp3463
sg82
g3403
sg75
(lp3464
g68
(g89
g70
NtRp3465
(dp3466
g73
(dp3467
sg82
g3461
sg75
(lp3468
g68
(g69
g70
NtRp3469
(dp3470
g73
(dp3471
g81
I2
ssg82
g3465
sg75
(lp3472
g68
(g77
g70
NtRp3473
(dp3474
g73
(dp3475
g81
I1
ssg82
Nsg75
(lp3476
g68
(g84
g70
NtRp3477
(dp3478
g73
(dp3479
sg82
g3473
sg75
(lp3480
g68
(g89
g70
NtRp3481
(dp3482
g73
(dp3483
sg82
g3477
sg75
(lp3484
g68
(g69
g70
NtRp3485
(dp3486
g73
(dp3487
g81
I1
ssg82
g3481
sg75
(lp3488
g3294
(S's\x04\x00\x00\x00View'
tRp3489
asbasbasbag68
(g84
g70
NtRp3490
(dp3491
g73
(dp3492
sg82
g3473
sg75
(lp3493
g68
(g89
g70
NtRp3494
(dp3495
g73
(dp3496
sg82
g3490
sg75
(lp3497
g68
(g69
g70
NtRp3498
(dp3499
g73
(dp3500
g81
I1
ssg82
g3494
sg75
(lp3501
I00
asbasbasbag68
(g84
g70
NtRp3502
(dp3503
g73
(dp3504
sg82
g3473
sg75
(lp3505
g68
(g89
g70
NtRp3506
(dp3507
g73
(dp3508
sg82
g3502
sg75
(lp3509
g68
(g69
g70
NtRp3510
(dp3511
g73
(dp3512
g81
I1
ssg82
g3506
sg75
(lp3513
S'/admin/default/edit/Music_Repo/views/default/index.html'
p3514
asbasbasbasbasbasbasbag68
(g84
g70
NtRp3515
(dp3516
g73
(dp3517
sg82
g3403
sg75
(lp3518
g68
(g89
g70
NtRp3519
(dp3520
g73
(dp3521
sg82
g3515
sg75
(lp3522
g68
(g69
g70
NtRp3523
(dp3524
g73
(dp3525
g81
I2
ssg82
g3519
sg75
(lp3526
g68
(g77
g70
NtRp3527
(dp3528
g73
(dp3529
g81
I1
ssg82
Nsg75
(lp3530
g68
(g84
g70
NtRp3531
(dp3532
g73
(dp3533
sg82
g3527
sg75
(lp3534
g68
(g89
g70
NtRp3535
(dp3536
g73
(dp3537
sg82
g3531
sg75
(lp3538
g68
(g69
g70
NtRp3539
(dp3540
g73
(dp3541
g81
I1
ssg82
g3535
sg75
(lp3542
g3294
(S's\x06\x00\x00\x00Layout'
tRp3543
asbasbasbag68
(g84
g70
NtRp3544
(dp3545
g73
(dp3546
sg82
g3527
sg75
(lp3547
g68
(g89
g70
NtRp3548
(dp3549
g73
(dp3550
sg82
g3544
sg75
(lp3551
g68
(g69
g70
NtRp3552
(dp3553
g73
(dp3554
g81
I1
ssg82
g3548
sg75
(lp3555
I00
asbasbasbag68
(g84
g70
NtRp3556
(dp3557
g73
(dp3558
sg82
g3527
sg75
(lp3559
g68
(g89
g70
NtRp3560
(dp3561
g73
(dp3562
sg82
g3556
sg75
(lp3563
g68
(g69
g70
NtRp3564
(dp3565
g73
(dp3566
g81
I1
ssg82
g3560
sg75
(lp3567
S'/admin/default/edit/Music_Repo/views/layout.html'
p3568
asbasbasbasbasbasbasbag68
(g84
g70
NtRp3569
(dp3570
g73
(dp3571
sg82
g3403
sg75
(lp3572
g68
(g89
g70
NtRp3573
(dp3574
g73
(dp3575
sg82
g3569
sg75
(lp3576
g68
(g69
g70
NtRp3577
(dp3578
g73
(dp3579
g81
I2
ssg82
g3573
sg75
(lp3580
g68
(g77
g70
NtRp3581
(dp3582
g73
(dp3583
g81
I1
ssg82
Nsg75
(lp3584
g68
(g84
g70
NtRp3585
(dp3586
g73
(dp3587
sg82
g3581
sg75
(lp3588
g68
(g89
g70
NtRp3589
(dp3590
g73
(dp3591
sg82
g3585
sg75
(lp3592
g68
(g69
g70
NtRp3593
(dp3594
g73
(dp3595
g81
I1
ssg82
g3589
sg75
(lp3596
g3294
(S's\n\x00\x00\x00Stylesheet'
tRp3597
asbasbasbag68
(g84
g70
NtRp3598
(dp3599
g73
(dp3600
sg82
g3581
sg75
(lp3601
g68
(g89
g70
NtRp3602
(dp3603
g73
(dp3604
sg82
g3598
sg75
(lp3605
g68
(g69
g70
NtRp3606
(dp3607
g73
(dp3608
g81
I1
ssg82
g3602
sg75
(lp3609
I00
asbasbasbag68
(g84
g70
NtRp3610
(dp3611
g73
(dp3612
sg82
g3581
sg75
(lp3613
g68
(g89
g70
NtRp3614
(dp3615
g73
(dp3616
sg82
g3610
sg75
(lp3617
g68
(g69
g70
NtRp3618
(dp3619
g73
(dp3620
g81
I1
ssg82
g3614
sg75
(lp3621
S'/admin/default/edit/Music_Repo/static/base.css'
p3622
asbasbasbasbasbasbasbag68
(g84
g70
NtRp3623
(dp3624
g73
(dp3625
sg82
g3403
sg75
(lp3626
g68
(g89
g70
NtRp3627
(dp3628
g73
(dp3629
sg82
g3623
sg75
(lp3630
g68
(g69
g70
NtRp3631
(dp3632
g73
(dp3633
g81
I2
ssg82
g3627
sg75
(lp3634
g68
(g77
g70
NtRp3635
(dp3636
g73
(dp3637
g81
I1
ssg82
Nsg75
(lp3638
g68
(g84
g70
NtRp3639
(dp3640
g73
(dp3641
sg82
g3635
sg75
(lp3642
g68
(g89
g70
NtRp3643
(dp3644
g73
(dp3645
sg82
g3639
sg75
(lp3646
g68
(g69
g70
NtRp3647
(dp3648
g73
(dp3649
g81
I1
ssg82
g3643
sg75
(lp3650
g3294
(S's\x08\x00\x00\x00DB Model'
tRp3651
asbasbasbag68
(g84
g70
NtRp3652
(dp3653
g73
(dp3654
sg82
g3635
sg75
(lp3655
g68
(g89
g70
NtRp3656
(dp3657
g73
(dp3658
sg82
g3652
sg75
(lp3659
g68
(g69
g70
NtRp3660
(dp3661
g73
(dp3662
g81
I1
ssg82
g3656
sg75
(lp3663
I00
asbasbasbag68
(g84
g70
NtRp3664
(dp3665
g73
(dp3666
sg82
g3635
sg75
(lp3667
g68
(g89
g70
NtRp3668
(dp3669
g73
(dp3670
sg82
g3664
sg75
(lp3671
g68
(g69
g70
NtRp3672
(dp3673
g73
(dp3674
g81
I1
ssg82
g3668
sg75
(lp3675
S'/admin/default/edit/Music_Repo/models/db.py'
p3676
asbasbasbasbasbasbasbag68
(g84
g70
NtRp3677
(dp3678
g73
(dp3679
sg82
g3403
sg75
(lp3680
g68
(g89
g70
NtRp3681
(dp3682
g73
(dp3683
sg82
g3677
sg75
(lp3684
g68
(g69
g70
NtRp3685
(dp3686
g73
(dp3687
g81
I2
ssg82
g3681
sg75
(lp3688
g68
(g77
g70
NtRp3689
(dp3690
g73
(dp3691
g81
I1
ssg82
Nsg75
(lp3692
g68
(g84
g70
NtRp3693
(dp3694
g73
(dp3695
sg82
g3689
sg75
(lp3696
g68
(g89
g70
NtRp3697
(dp3698
g73
(dp3699
sg82
g3693
sg75
(lp3700
g68
(g69
g70
NtRp3701
(dp3702
g73
(dp3703
g81
I1
ssg82
g3697
sg75
(lp3704
g3294
(S's\n\x00\x00\x00Menu Model'
tRp3705
asbasbasbag68
(g84
g70
NtRp3706
(dp3707
g73
(dp3708
sg82
g3689
sg75
(lp3709
g68
(g89
g70
NtRp3710
(dp3711
g73
(dp3712
sg82
g3706
sg75
(lp3713
g68
(g69
g70
NtRp3714
(dp3715
g73
(dp3716
g81
I1
ssg82
g3710
sg75
(lp3717
I00
asbasbasbag68
(g84
g70
NtRp3718
(dp3719
g73
(dp3720
sg82
g3689
sg75
(lp3721
g68
(g89
g70
NtRp3722
(dp3723
g73
(dp3724
sg82
g3718
sg75
(lp3725
g68
(g69
g70
NtRp3726
(dp3727
g73
(dp3728
g81
I1
ssg82
g3722
sg75
(lp3729
S'/admin/default/edit/Music_Repo/models/menu.py'
p3730
asbasbasbasbasbasbasbag68
(g84
g70
NtRp3731
(dp3732
g73
(dp3733
sg82
g3403
sg75
(lp3734
g68
(g89
g70
NtRp3735
(dp3736
g73
(dp3737
sg82
g3731
sg75
(lp3738
g68
(g69
g70
NtRp3739
(dp3740
g73
(dp3741
g81
I2
ssg82
g3735
sg75
(lp3742
g68
(g77
g70
NtRp3743
(dp3744
g73
(dp3745
g81
I1
ssg82
Nsg75
(lp3746
g68
(g84
g70
NtRp3747
(dp3748
g73
(dp3749
sg82
g3743
sg75
(lp3750
g68
(g89
g70
NtRp3751
(dp3752
g73
(dp3753
sg82
g3747
sg75
(lp3754
g68
(g69
g70
NtRp3755
(dp3756
g73
(dp3757
g81
I1
ssg82
g3751
sg75
(lp3758
g3294
(S's\x08\x00\x00\x00Database'
tRp3759
asbasbasbag68
(g84
g70
NtRp3760
(dp3761
g73
(dp3762
sg82
g3743
sg75
(lp3763
g68
(g89
g70
NtRp3764
(dp3765
g73
(dp3766
sg82
g3760
sg75
(lp3767
g68
(g69
g70
NtRp3768
(dp3769
g73
(dp3770
g81
I1
ssg82
g3764
sg75
(lp3771
I00
asbasbasbag68
(g84
g70
NtRp3772
(dp3773
g73
(dp3774
sg82
g3743
sg75
(lp3775
g68
(g89
g70
NtRp3776
(dp3777
g73
(dp3778
sg82
g3772
sg75
(lp3779
g68
(g69
g70
NtRp3780
(dp3781
g73
(dp3782
g81
I1
ssg82
g3776
sg75
(lp3783
S'/Music_Repo/appadmin/index'
p3784
asbasbasbasbasbasbasbag68
(g84
g70
NtRp3785
(dp3786
g73
(dp3787
sg82
g3403
sg75
(lp3788
g68
(g89
g70
NtRp3789
(dp3790
g73
(dp3791
sg82
g3785
sg75
(lp3792
g68
(g69
g70
NtRp3793
(dp3794
g73
(dp3795
g81
I2
ssg82
g3789
sg75
(lp3796
g68
(g77
g70
NtRp3797
(dp3798
g73
(dp3799
g81
I1
ssg82
Nsg75
(lp3800
g68
(g84
g70
NtRp3801
(dp3802
g73
(dp3803
sg82
g3797
sg75
(lp3804
g68
(g89
g70
NtRp3805
(dp3806
g73
(dp3807
sg82
g3801
sg75
(lp3808
g68
(g69
g70
NtRp3809
(dp3810
g73
(dp3811
g81
I1
ssg82
g3805
sg75
(lp3812
g3294
(S's\x06\x00\x00\x00Errors'
tRp3813
asbasbasbag68
(g84
g70
NtRp3814
(dp3815
g73
(dp3816
sg82
g3797
sg75
(lp3817
g68
(g89
g70
NtRp3818
(dp3819
g73
(dp3820
sg82
g3814
sg75
(lp3821
g68
(g69
g70
NtRp3822
(dp3823
g73
(dp3824
g81
I1
ssg82
g3818
sg75
(lp3825
I00
asbasbasbag68
(g84
g70
NtRp3826
(dp3827
g73
(dp3828
sg82
g3797
sg75
(lp3829
g68
(g89
g70
NtRp3830
(dp3831
g73
(dp3832
sg82
g3826
sg75
(lp3833
g68
(g69
g70
NtRp3834
(dp3835
g73
(dp3836
g81
I1
ssg82
g3830
sg75
(lp3837
S'/admin/default/errors/Music_Repo'
p3838
asbasbasbasbasbasbasbag68
(g84
g70
NtRp3839
(dp3840
g73
(dp3841
sg82
g3403
sg75
(lp3842
g68
(g89
g70
NtRp3843
(dp3844
g73
(dp3845
sg82
g3839
sg75
(lp3846
g68
(g69
g70
NtRp3847
(dp3848
g73
(dp3849
g81
I2
ssg82
g3843
sg75
(lp3850
g68
(g77
g70
NtRp3851
(dp3852
g73
(dp3853
g81
I1
ssg82
Nsg75
(lp3854
g68
(g84
g70
NtRp3855
(dp3856
g73
(dp3857
sg82
g3851
sg75
(lp3858
g68
(g89
g70
NtRp3859
(dp3860
g73
(dp3861
sg82
g3855
sg75
(lp3862
g68
(g69
g70
NtRp3863
(dp3864
g73
(dp3865
g81
I1
ssg82
g3859
sg75
(lp3866
g3294
(S's\x05\x00\x00\x00About'
tRp3867
asbasbasbag68
(g84
g70
NtRp3868
(dp3869
g73
(dp3870
sg82
g3851
sg75
(lp3871
g68
(g89
g70
NtRp3872
(dp3873
g73
(dp3874
sg82
g3868
sg75
(lp3875
g68
(g69
g70
NtRp3876
(dp3877
g73
(dp3878
g81
I1
ssg82
g3872
sg75
(lp3879
I00
asbasbasbag68
(g84
g70
NtRp3880
(dp3881
g73
(dp3882
sg82
g3851
sg75
(lp3883
g68
(g89
g70
NtRp3884
(dp3885
g73
(dp3886
sg82
g3880
sg75
(lp3887
g68
(g69
g70
NtRp3888
(dp3889
g73
(dp3890
g81
I1
ssg82
g3884
sg75
(lp3891
S'/admin/default/about/Music_Repo'
p3892
asbasbasbasbasbasbasbasbasbasbasbasbasbasbasbag68
(g84
g70
NtRp3893
(dp3894
g73
(dp3895
sg82
g3262
sg75
(lp3896
g68
(g89
g70
NtRp3897
(dp3898
g73
(dp3899
sg82
g3893
sg75
(lp3900
g68
(g69
g70
NtRp3901
(dp3902
g73
(dp3903
g81
I4
ssg82
g3897
sg75
(lp3904
g68
(g77
g70
NtRp3905
(dp3906
g73
(dp3907
g81
I3
ssg82
Nsg75
(lp3908
g68
(g84
g70
NtRp3909
(dp3910
g73
(dp3911
sg82
g3905
sg75
(lp3912
g68
(g89
g70
NtRp3913
(dp3914
g73
(dp3915
sg82
g3909
sg75
(lp3916
g68
(g69
g70
NtRp3917
(dp3918
g73
(dp3919
g81
I3
ssg82
g3913
sg75
(lp3920
g3294
(S's\t\x00\x00\x00Resources'
tRp3921
asbasbasbag68
(g84
g70
NtRp3922
(dp3923
g73
(dp3924
sg82
g3905
sg75
(lp3925
g68
(g89
g70
NtRp3926
(dp3927
g73
(dp3928
sg82
g3922
sg75
(lp3929
g68
(g69
g70
NtRp3930
(dp3931
g73
(dp3932
g81
I3
ssg82
g3926
sg75
(lp3933
g111
asbasbasbag68
(g84
g70
NtRp3934
(dp3935
g73
(dp3936
sg82
g3905
sg75
(lp3937
g68
(g89
g70
NtRp3938
(dp3939
g73
(dp3940
sg82
g3934
sg75
(lp3941
g68
(g69
g70
NtRp3942
(dp3943
g73
(dp3944
g81
I3
ssg82
g3938
sg75
(lp3945
S'None'
p3946
asbasbasbag68
(g84
g70
NtRp3947
(dp3948
g73
(dp3949
sg82
g3905
sg75
(lp3950
g68
(g89
g70
NtRp3951
(dp3952
g73
(dp3953
sg82
g3947
sg75
(lp3954
g68
(g69
g70
NtRp3955
(dp3956
g73
(dp3957
g81
I3
ssg82
g3951
sg75
(lp3958
g68
(g77
g70
NtRp3959
(dp3960
g73
(dp3961
g81
I2
ssg82
Nsg75
(lp3962
g68
(g84
g70
NtRp3963
(dp3964
g73
(dp3965
sg82
g3959
sg75
(lp3966
g68
(g89
g70
NtRp3967
(dp3968
g73
(dp3969
sg82
g3963
sg75
(lp3970
g68
(g69
g70
NtRp3971
(dp3972
g73
(dp3973
g81
I2
ssg82
g3967
sg75
(lp3974
g68
(g77
g70
NtRp3975
(dp3976
g73
(dp3977
g81
I1
ssg82
Nsg75
(lp3978
g68
(g84
g70
NtRp3979
(dp3980
g73
(dp3981
sg82
g3975
sg75
(lp3982
g68
(g89
g70
NtRp3983
(dp3984
g73
(dp3985
sg82
g3979
sg75
(lp3986
g68
(g69
g70
NtRp3987
(dp3988
g73
(dp3989
g81
I1
ssg82
g3983
sg75
(lp3990
g3294
(S's\r\x00\x00\x00Documentation'
tRp3991
asbasbasbag68
(g84
g70
NtRp3992
(dp3993
g73
(dp3994
sg82
g3975
sg75
(lp3995
g68
(g89
g70
NtRp3996
(dp3997
g73
(dp3998
sg82
g3992
sg75
(lp3999
g68
(g69
g70
NtRp4000
(dp4001
g73
(dp4002
g81
I1
ssg82
g3996
sg75
(lp4003
I00
asbasbasbag68
(g84
g70
NtRp4004
(dp4005
g73
(dp4006
sg82
g3975
sg75
(lp4007
g68
(g89
g70
NtRp4008
(dp4009
g73
(dp4010
sg82
g4004
sg75
(lp4011
g68
(g69
g70
NtRp4012
(dp4013
g73
(dp4014
g81
I1
ssg82
g4008
sg75
(lp4015
S'http://www.web2py.com/book'
p4016
asbasbasbag68
(g84
g70
NtRp4017
(dp4018
g73
(dp4019
sg82
g3975
sg75
(lp4020
g68
(g89
g70
NtRp4021
(dp4022
g73
(dp4023
sg82
g4017
sg75
(lp4024
g68
(g69
g70
NtRp4025
(dp4026
g73
(dp4027
g81
I1
ssg82
g4021
sg75
(lp4028
(lp4029
(g3294
(S's\x07\x00\x00\x00Preface'
tRp4030
I00
S'http://www.web2py.com/book/default/chapter/00'
tp4031
a(g3294
(S's\x0c\x00\x00\x00Introduction'
tRp4032
I00
S'http://www.web2py.com/book/default/chapter/01'
tp4033
a(g3294
(S's\x06\x00\x00\x00Python'
tRp4034
I00
S'http://www.web2py.com/book/default/chapter/02'
tp4035
a(g3294
(S's\x08\x00\x00\x00Overview'
tRp4036
I00
S'http://www.web2py.com/book/default/chapter/03'
tp4037
a(g3294
(S's\x08\x00\x00\x00The Core'
tRp4038
I00
S'http://www.web2py.com/book/default/chapter/04'
tp4039
a(g3294
(S's\t\x00\x00\x00The Views'
tRp4040
I00
S'http://www.web2py.com/book/default/chapter/05'
tp4041
a(g3294
(S's\x08\x00\x00\x00Database'
tRp4042
I00
S'http://www.web2py.com/book/default/chapter/06'
tp4043
a(g3294
(S's\x14\x00\x00\x00Forms and Validators'
tRp4044
I00
S'http://www.web2py.com/book/default/chapter/07'
tp4045
a(g3294
(S's\x0e\x00\x00\x00Access Control'
tRp4046
I00
S'http://www.web2py.com/book/default/chapter/08'
tp4047
a(g3294
(S's\x08\x00\x00\x00Services'
tRp4048
I00
S'http://www.web2py.com/book/default/chapter/09'
tp4049
a(g3294
(S's\x0c\x00\x00\x00Ajax Recipes'
tRp4050
I00
S'http://www.web2py.com/book/default/chapter/10'
tp4051
a(g3294
(S's\x12\x00\x00\x00Deployment Recipes'
tRp4052
I00
S'http://www.web2py.com/book/default/chapter/11'
tp4053
a(g3294
(S's\r\x00\x00\x00Other Recipes'
tRp4054
I00
S'http://www.web2py.com/book/default/chapter/12'
tp4055
a(g3294
(S's\r\x00\x00\x00Buy this book'
tRp4056
I00
S'http://stores.lulu.com/web2py'
tp4057
aasbasbasbasbasbasbasbag68
(g84
g70
NtRp4058
(dp4059
g73
(dp4060
sg82
g3959
sg75
(lp4061
g68
(g89
g70
NtRp4062
(dp4063
g73
(dp4064
sg82
g4058
sg75
(lp4065
g68
(g69
g70
NtRp4066
(dp4067
g73
(dp4068
g81
I2
ssg82
g4062
sg75
(lp4069
g68
(g77
g70
NtRp4070
(dp4071
g73
(dp4072
g81
I1
ssg82
Nsg75
(lp4073
g68
(g84
g70
NtRp4074
(dp4075
g73
(dp4076
sg82
g4070
sg75
(lp4077
g68
(g89
g70
NtRp4078
(dp4079
g73
(dp4080
sg82
g4074
sg75
(lp4081
g68
(g69
g70
NtRp4082
(dp4083
g73
(dp4084
g81
I1
ssg82
g4078
sg75
(lp4085
g3294
(S's\t\x00\x00\x00Community'
tRp4086
asbasbasbag68
(g84
g70
NtRp4087
(dp4088
g73
(dp4089
sg82
g4070
sg75
(lp4090
g68
(g89
g70
NtRp4091
(dp4092
g73
(dp4093
sg82
g4087
sg75
(lp4094
g68
(g69
g70
NtRp4095
(dp4096
g73
(dp4097
g81
I1
ssg82
g4091
sg75
(lp4098
I00
asbasbasbag68
(g84
g70
NtRp4099
(dp4100
g73
(dp4101
sg82
g4070
sg75
(lp4102
g68
(g89
g70
NtRp4103
(dp4104
g73
(dp4105
sg82
g4099
sg75
(lp4106
g68
(g69
g70
NtRp4107
(dp4108
g73
(dp4109
g81
I1
ssg82
g4103
sg75
(lp4110
Nasbasbasbag68
(g84
g70
NtRp4111
(dp4112
g73
(dp4113
sg82
g4070
sg75
(lp4114
g68
(g89
g70
NtRp4115
(dp4116
g73
(dp4117
sg82
g4111
sg75
(lp4118
g68
(g69
g70
NtRp4119
(dp4120
g73
(dp4121
g81
I1
ssg82
g4115
sg75
(lp4122
(lp4123
(g3294
(S's\x06\x00\x00\x00Groups'
tRp4124
I00
S'http://www.web2py.com/examples/default/usergroups'
tp4125
a(g3294
(S's\x07\x00\x00\x00Twitter'
tRp4126
I00
S'http://twitter.com/web2py'
tp4127
a(g3294
(S's\t\x00\x00\x00Live chat'
tRp4128
I00
S'http://mibbit.com/?channel=%23web2py&server=irc.mibbit.net'
tp4129
a(g3294
(S's\n\x00\x00\x00User Voice'
tRp4130
I00
S'http://web2py.uservoice.com/'
tp4131
aasbasbasbasbasbasbasbag68
(g84
g70
NtRp4132
(dp4133
g73
(dp4134
sg82
g3959
sg75
(lp4135
g68
(g89
g70
NtRp4136
(dp4137
g73
(dp4138
sg82
g4132
sg75
(lp4139
g68
(g69
g70
NtRp4140
(dp4141
g73
(dp4142
g81
I2
ssg82
g4136
sg75
(lp4143
g68
(g77
g70
NtRp4144
(dp4145
g73
(dp4146
g81
I1
ssg82
Nsg75
(lp4147
g68
(g84
g70
NtRp4148
(dp4149
g73
(dp4150
sg82
g4144
sg75
(lp4151
g68
(g89
g70
NtRp4152
(dp4153
g73
(dp4154
sg82
g4148
sg75
(lp4155
g68
(g69
g70
NtRp4156
(dp4157
g73
(dp4158
g81
I1
ssg82
g4152
sg75
(lp4159
g3294
(S's\x06\x00\x00\x00Web2py'
tRp4160
asbasbasbag68
(g84
g70
NtRp4161
(dp4162
g73
(dp4163
sg82
g4144
sg75
(lp4164
g68
(g89
g70
NtRp4165
(dp4166
g73
(dp4167
sg82
g4161
sg75
(lp4168
g68
(g69
g70
NtRp4169
(dp4170
g73
(dp4171
g81
I1
ssg82
g4165
sg75
(lp4172
I00
asbasbasbag68
(g84
g70
NtRp4173
(dp4174
g73
(dp4175
sg82
g4144
sg75
(lp4176
g68
(g89
g70
NtRp4177
(dp4178
g73
(dp4179
sg82
g4173
sg75
(lp4180
g68
(g69
g70
NtRp4181
(dp4182
g73
(dp4183
g81
I1
ssg82
g4177
sg75
(lp4184
S'http://www.web2py.com'
p4185
asbasbasbag68
(g84
g70
NtRp4186
(dp4187
g73
(dp4188
sg82
g4144
sg75
(lp4189
g68
(g89
g70
NtRp4190
(dp4191
g73
(dp4192
sg82
g4186
sg75
(lp4193
g68
(g69
g70
NtRp4194
(dp4195
g73
(dp4196
g81
I1
ssg82
g4190
sg75
(lp4197
(lp4198
(g3294
(S's\x08\x00\x00\x00Download'
tRp4199
I00
S'http://www.web2py.com/examples/default/download'
tp4200
a(g3294
(S's\x07\x00\x00\x00Support'
tRp4201
I00
S'http://www.web2py.com/examples/default/support'
tp4202
a(g3294
(S's\x0e\x00\x00\x00Quick Examples'
tRp4203
I00
S'http://web2py.com/examples/default/examples'
tp4204
a(g3294
(S's\x03\x00\x00\x00FAQ'
tRp4205
I00
S'http://web2py.com/AlterEgo'
tp4206
a(g3294
(S's\x11\x00\x00\x00Free Applications'
tRp4207
I00
S'http://web2py.com/appliances'
tp4208
a(g3294
(S's\x07\x00\x00\x00Plugins'
tRp4209
I00
S'http://web2py.com/plugins'
tp4210
a(g3294
(S's\x07\x00\x00\x00Recipes'
tRp4211
I00
S'http://web2pyslices.com/'
tp4212
a(g3294
(S's\x04\x00\x00\x00Demo'
tRp4213
I00
S'http://web2py.com/demo_admin'
tp4214
a(g3294
(S's\x08\x00\x00\x00Semantic'
tRp4215
I00
S'http://web2py.com/semantic'
tp4216
a(g3294
(S's\x07\x00\x00\x00Layouts'
tRp4217
I00
S'http://web2py.com/layouts'
tp4218
a(g3294
(S's\x06\x00\x00\x00Videos'
tRp4219
I00
S'http://www.web2py.com/examples/default/videos/'
tp4220
aasbasbasbasbasbasbasbasbasbasbasbasbasbasbasbasbasbasbasbag68
(g84
g70
NtRp4221
(dp4222
g73
(dp4223
sg82
g2789
sg75
(lp4224
g68
(g89
g70
NtRp4225
(dp4226
g73
(dp4227
g93
g94
ssg82
g4221
sg75
(lp4228
S'meta'
p4229
asbag68
(g89
g70
NtRp4230
(dp4231
g73
(dp4232
g100
g101
ssg82
g4221
sg75
(lp4233
S':'
asbag68
(g89
g70
NtRp4234
(dp4235
g73
(dp4236
sg82
g4221
sg75
(lp4237
g68
(g69
g70
NtRp4238
(dp4239
g73
(dp4240
g81
I5
ssg82
g4234
sg75
(lp4241
g68
(g77
g70
NtRp4242
(dp4243
g73
(dp4244
g81
I4
ssg82
Nsg75
(lp4245
g68
(g84
g70
NtRp4246
(dp4247
g73
(dp4248
sg82
g4242
sg75
(lp4249
g68
(g89
g70
NtRp4250
(dp4251
g73
(dp4252
g93
g94
ssg82
g4246
sg75
(lp4253
S'author'
p4254
asbag68
(g89
g70
NtRp4255
(dp4256
g73
(dp4257
g100
g101
ssg82
g4246
sg75
(lp4258
S':'
asbag68
(g89
g70
NtRp4259
(dp4260
g73
(dp4261
sg82
g4246
sg75
(lp4262
g68
(g69
g70
NtRp4263
(dp4264
g73
(dp4265
g81
I4
ssg82
g4259
sg75
(lp4266
S'you'
p4267
asbasbasbag68
(g84
g70
NtRp4268
(dp4269
g73
(dp4270
sg82
g4242
sg75
(lp4271
g68
(g89
g70
NtRp4272
(dp4273
g73
(dp4274
g93
g94
ssg82
g4268
sg75
(lp4275
S'copyright'
p4276
asbag68
(g89
g70
NtRp4277
(dp4278
g73
(dp4279
g100
g101
ssg82
g4268
sg75
(lp4280
S':'
asbag68
(g89
g70
NtRp4281
(dp4282
g73
(dp4283
sg82
g4268
sg75
(lp4284
g68
(g69
g70
NtRp4285
(dp4286
g73
(dp4287
g81
I4
ssg82
g4281
sg75
(lp4288
S'Copyright 2007-2010'
p4289
asbasbasbag68
(g84
g70
NtRp4290
(dp4291
g73
(dp4292
sg82
g4242
sg75
(lp4293
g68
(g89
g70
NtRp4294
(dp4295
g73
(dp4296
g93
g94
ssg82
g4290
sg75
(lp4297
S'description'
p4298
asbag68
(g89
g70
NtRp4299
(dp4300
g73
(dp4301
g100
g101
ssg82
g4290
sg75
(lp4302
S':'
asbag68
(g89
g70
NtRp4303
(dp4304
g73
(dp4305
sg82
g4290
sg75
(lp4306
g68
(g69
g70
NtRp4307
(dp4308
g73
(dp4309
g81
I4
ssg82
g4303
sg75
(lp4310
S'Free and open source full-stack enterprise framework for agile development of fast, scalable, secure and portable database-driven web-based applications. Written and programmable in Python'
p4311
asbasbasbag68
(g84
g70
NtRp4312
(dp4313
g73
(dp4314
sg82
g4242
sg75
(lp4315
g68
(g89
g70
NtRp4316
(dp4317
g73
(dp4318
g93
g94
ssg82
g4312
sg75
(lp4319
S'generator'
p4320
asbag68
(g89
g70
NtRp4321
(dp4322
g73
(dp4323
g100
g101
ssg82
g4312
sg75
(lp4324
S':'
asbag68
(g89
g70
NtRp4325
(dp4326
g73
(dp4327
sg82
g4312
sg75
(lp4328
g68
(g69
g70
NtRp4329
(dp4330
g73
(dp4331
g81
I4
ssg82
g4325
sg75
(lp4332
S'Web2py Enterprise Framework'
p4333
asbasbasbag68
(g84
g70
NtRp4334
(dp4335
g73
(dp4336
sg82
g4242
sg75
(lp4337
g68
(g89
g70
NtRp4338
(dp4339
g73
(dp4340
g93
g94
ssg82
g4334
sg75
(lp4341
S'keywords'
p4342
asbag68
(g89
g70
NtRp4343
(dp4344
g73
(dp4345
g100
g101
ssg82
g4334
sg75
(lp4346
S':'
asbag68
(g89
g70
NtRp4347
(dp4348
g73
(dp4349
sg82
g4334
sg75
(lp4350
g68
(g69
g70
NtRp4351
(dp4352
g73
(dp4353
g81
I4
ssg82
g4347
sg75
(lp4354
S'web2py, python, framework'
p4355
asbasbasbasbasbasbasbag68
(g84
g70
NtRp4356
(dp4357
g73
(dp4358
sg82
g2789
sg75
(lp4359
g68
(g89
g70
NtRp4360
(dp4361
g73
(dp4362
g93
g94
ssg82
g4356
sg75
(lp4363
S'postprocessing'
p4364
asbag68
(g89
g70
NtRp4365
(dp4366
g73
(dp4367
g100
g101
ssg82
g4356
sg75
(lp4368
S':'
asbag68
(g89
g70
NtRp4369
(dp4370
g73
(dp4371
sg82
g4356
sg75
(lp4372
g68
(g69
g70
NtRp4373
(dp4374
g73
(dp4375
g81
I5
ssg82
g4369
sg75
(lp4376
g68
(g77
g70
NtRp4377
(dp4378
g73
(dp4379
g81
I4
ssg82
Nsg75
(lp4380
sbasbasbasbag68
(g84
g70
NtRp4381
(dp4382
g73
(dp4383
sg82
g2789
sg75
(lp4384
g68
(g89
g70
NtRp4385
(dp4386
g73
(dp4387
g93
g94
ssg82
g4381
sg75
(lp4388
S'session_file'
p4389
asbag68
(g89
g70
NtRp4390
(dp4391
g73
(dp4392
g100
g101
ssg82
g4381
sg75
(lp4393
S':'
asbag68
(g89
g70
NtRp4394
(dp4395
g73
(dp4396
sg82
g4381
sg75
(lp4397
g68
(g69
g70
NtRp4398
(dp4399
g73
(dp4400
g81
I5
ssg82
g4394
sg75
(lp4401
S"<open file '/home/vsvah/Desktop/Coursework/Sem3/SSAD/web2py/applications/Music_Repo/sessions/127.0.0.1-a1fc9e3c-8d9d-485b-be23-4f427d55ceaa', mode 'rb+' at 0x97f0cd8>"
p4402
asbasbasbag68
(g84
g70
NtRp4403
(dp4404
g73
(dp4405
sg82
g2789
sg75
(lp4406
g68
(g89
g70
NtRp4407
(dp4408
g73
(dp4409
g93
g94
ssg82
g4403
sg75
(lp4410
S'session_filename'
p4411
asbag68
(g89
g70
NtRp4412
(dp4413
g73
(dp4414
g100
g101
ssg82
g4403
sg75
(lp4415
S':'
asbag68
(g89
g70
NtRp4416
(dp4417
g73
(dp4418
sg82
g4403
sg75
(lp4419
g68
(g69
g70
NtRp4420
(dp4421
g73
(dp4422
g81
I5
ssg82
g4416
sg75
(lp4423
S'/home/vsvah/Desktop/Coursework/Sem3/SSAD/web2py/applications/Music_Repo/sessions/127.0.0.1-a1fc9e3c-8d9d-485b-be23-4f427d55ceaa'
p4424
asbasbasbag68
(g84
g70
NtRp4425
(dp4426
g73
(dp4427
sg82
g2789
sg75
(lp4428
g68
(g89
g70
NtRp4429
(dp4430
g73
(dp4431
g93
g94
ssg82
g4425
sg75
(lp4432
S'session_id'
p4433
asbag68
(g89
g70
NtRp4434
(dp4435
g73
(dp4436
g100
g101
ssg82
g4425
sg75
(lp4437
S':'
asbag68
(g89
g70
NtRp4438
(dp4439
g73
(dp4440
sg82
g4425
sg75
(lp4441
g68
(g69
g70
NtRp4442
(dp4443
g73
(dp4444
g81
I5
ssg82
g4438
sg75
(lp4445
S'127.0.0.1-a1fc9e3c-8d9d-485b-be23-4f427d55ceaa'
p4446
asbasbasbag68
(g84
g70
NtRp4447
(dp4448
g73
(dp4449
sg82
g2789
sg75
(lp4450
g68
(g89
g70
NtRp4451
(dp4452
g73
(dp4453
g93
g94
ssg82
g4447
sg75
(lp4454
S'session_id_name'
p4455
asbag68
(g89
g70
NtRp4456
(dp4457
g73
(dp4458
g100
g101
ssg82
g4447
sg75
(lp4459
S':'
asbag68
(g89
g70
NtRp4460
(dp4461
g73
(dp4462
sg82
g4447
sg75
(lp4463
g68
(g69
g70
NtRp4464
(dp4465
g73
(dp4466
g81
I5
ssg82
g4460
sg75
(lp4467
g2846
asbasbasbag68
(g84
g70
NtRp4468
(dp4469
g73
(dp4470
sg82
g2789
sg75
(lp4471
g68
(g89
g70
NtRp4472
(dp4473
g73
(dp4474
g93
g94
ssg82
g4468
sg75
(lp4475
S'session_locked'
p4476
asbag68
(g89
g70
NtRp4477
(dp4478
g73
(dp4479
g100
g101
ssg82
g4468
sg75
(lp4480
S':'
asbag68
(g89
g70
NtRp4481
(dp4482
g73
(dp4483
sg82
g4468
sg75
(lp4484
g68
(g69
g70
NtRp4485
(dp4486
g73
(dp4487
g81
I5
ssg82
g4481
sg75
(lp4488
g1646
asbasbasbag68
(g84
g70
NtRp4489
(dp4490
g73
(dp4491
sg82
g2789
sg75
(lp4492
g68
(g89
g70
NtRp4493
(dp4494
g73
(dp4495
g93
g94
ssg82
g4489
sg75
(lp4496
S'session_new'
p4497
asbag68
(g89
g70
NtRp4498
(dp4499
g73
(dp4500
g100
g101
ssg82
g4489
sg75
(lp4501
S':'
asbag68
(g89
g70
NtRp4502
(dp4503
g73
(dp4504
sg82
g4489
sg75
(lp4505
g68
(g69
g70
NtRp4506
(dp4507
g73
(dp4508
g81
I5
ssg82
g4502
sg75
(lp4509
g111
asbasbasbag68
(g84
g70
NtRp4510
(dp4511
g73
(dp4512
sg82
g2789
sg75
(lp4513
g68
(g89
g70
NtRp4514
(dp4515
g73
(dp4516
g93
g94
ssg82
g4510
sg75
(lp4517
S'status'
p4518
asbag68
(g89
g70
NtRp4519
(dp4520
g73
(dp4521
g100
g101
ssg82
g4510
sg75
(lp4522
S':'
asbag68
(g89
g70
NtRp4523
(dp4524
g73
(dp4525
sg82
g4510
sg75
(lp4526
g68
(g69
g70
NtRp4527
(dp4528
g73
(dp4529
g81
I5
ssg82
g4523
sg75
(lp4530
S'200'
p4531
asbasbasbag68
(g84
g70
NtRp4532
(dp4533
g73
(dp4534
sg82
g2789
sg75
(lp4535
g68
(g89
g70
NtRp4536
(dp4537
g73
(dp4538
g93
g94
ssg82
g4532
sg75
(lp4539
S'subtitle'
p4540
asbag68
(g89
g70
NtRp4541
(dp4542
g73
(dp4543
g100
g101
ssg82
g4532
sg75
(lp4544
S':'
asbag68
(g89
g70
NtRp4545
(dp4546
g73
(dp4547
sg82
g4532
sg75
(lp4548
g68
(g69
g70
NtRp4549
(dp4550
g73
(dp4551
g81
I5
ssg82
g4545
sg75
(lp4552
g3294
(S's\r\x00\x00\x00customize me!'
tRp4553
asbasbasbag68
(g84
g70
NtRp4554
(dp4555
g73
(dp4556
sg82
g2789
sg75
(lp4557
g68
(g89
g70
NtRp4558
(dp4559
g73
(dp4560
g93
g94
ssg82
g4554
sg75
(lp4561
S'title'
p4562
asbag68
(g89
g70
NtRp4563
(dp4564
g73
(dp4565
g100
g101
ssg82
g4554
sg75
(lp4566
S':'
asbag68
(g89
g70
NtRp4567
(dp4568
g73
(dp4569
sg82
g4554
sg75
(lp4570
g68
(g69
g70
NtRp4571
(dp4572
g73
(dp4573
g81
I5
ssg82
g4567
sg75
(lp4574
g133
asbasbasbag68
(g84
g70
NtRp4575
(dp4576
g73
(dp4577
sg82
g2789
sg75
(lp4578
g68
(g89
g70
NtRp4579
(dp4580
g73
(dp4581
g93
g94
ssg82
g4575
sg75
(lp4582
g1991
asbag68
(g89
g70
NtRp4583
(dp4584
g73
(dp4585
g100
g101
ssg82
g4575
sg75
(lp4586
S':'
asbag68
(g89
g70
NtRp4587
(dp4588
g73
(dp4589
sg82
g4575
sg75
(lp4590
g68
(g69
g70
NtRp4591
(dp4592
g73
(dp4593
g81
I5
ssg82
g4587
sg75
(lp4594
g2004
asbasbasbag68
(g84
g70
NtRp4595
(dp4596
g73
(dp4597
sg82
g2789
sg75
(lp4598
g68
(g89
g70
NtRp4599
(dp4600
g73
(dp4601
g93
g94
ssg82
g4595
sg75
(lp4602
S'view'
p4603
asbag68
(g89
g70
NtRp4604
(dp4605
g73
(dp4606
g100
g101
ssg82
g4595
sg75
(lp4607
S':'
asbag68
(g89
g70
NtRp4608
(dp4609
g73
(dp4610
sg82
g4595
sg75
(lp4611
g68
(g69
g70
NtRp4612
(dp4613
g73
(dp4614
g81
I5
ssg82
g4608
sg75
(lp4615
S'default/index.html'
p4616
asbasbasbasbasbsS'locals'
p4617
(dp4618
g3
S"'/home/vsvah/Desktop/Coursework/Sem3/SSAD/web2py/applications/Music_Repo/controllers/default.py'"
p4619
sg5
S'\'# -*- coding: utf-8 -*-\\n# this file is released ...cess")\\n\\t\\n\\nresponse._vars=response._caller(index)\\n\''
p4620
sssS'traceback'
p4621
S'Traceback (most recent call last):\n  File "/home/vsvah/Desktop/Coursework/Sem3/SSAD/web2py/gluon/restricted.py", line 191, in restricted\n    ccode = compile2(code,layer)\n  File "/home/vsvah/Desktop/Coursework/Sem3/SSAD/web2py/gluon/restricted.py", line 178, in compile2\n    return compile(code.rstrip().replace(\'\\r\\n\',\'\\n\')+\'\\n\', layer, \'exec\')\n  File "/home/vsvah/Desktop/Coursework/Sem3/SSAD/web2py/applications/Music_Repo/controllers/default.py", line 169\n    return (r="success")\n             ^\nSyntaxError: invalid syntax\n'
p4622
s.