(dp1
S'output'
p2
S''
sS'layer'
p3
S'/home/vsvah/Desktop/Coursework/Sem3/SSAD/web2py/applications/Music_Repo/views/default/display_details.html'
p4
sS'code'
p5
S'left_sidebar_enabled=right_sidebar_enabled=False\nresponse.write(\'\\n\', escape=False)\nresponse.write(\'<!DOCTYPE html>\\n<html lang="\', escape=False)\nresponse.write(T.accepted_language or \'en\')\nresponse.write(\'" class="no-js"><!-- no-js need it for modernzr -->\\n  <head>\\n    \\n    <meta charset="utf-8" />\\t  \\t\\n    <!-- www.phpied.com/conditional-comments-block-downloads/ -->\\n    <!--[if IE]><![endif]-->    \\n    <!-- Always force latest IE rendering engine \\n\\t (even in intranet) & Chrome Frame \\n\\t Remove this if you use the .htaccess -->\\n    <meta http-equiv="X-UA-Compatible" content="IE=edge,chrome=1">\\n    \\n    <title>\', escape=False)\nresponse.write(response.title or request.application)\nresponse.write(\'</title>\\n    \\n    <!-- http://dev.w3.org/html5/markup/meta.name.html -->\\n    <meta name="application-name" content="\', escape=False)\nresponse.write(request.application)\nresponse.write(\'" />\\t\\n    \\n    <!-- Speaking of Google, don\\\'t forget to set your site up: \\n\\t http://google.com/webmasters -->\\n    <meta name="google-site-verification" content="" />\\n    \\n    <!--  Mobile Viewport Fix\\n\\t  j.mp/mobileviewport & davidbcalhoun.com/2010/viewport-metatag \\n\\t  device-width: Occupy full width of the screen in its current orientation\\n\\t  initial-scale = 1.0 retains dimensions instead of zooming out if page height > device height\\n\\t  maximum-scale = 1.0 retains dimensions instead of zooming in if page width < device width\\n      -->\\n    <meta name="viewport" content="width=device-width, initial-scale=1.0, maximum-scale=1.0">\\n    \\n    <!-- Place favicon.ico and apple-touch-icon.png in the root of your domain and delete these references -->\\n    <link rel="shortcut icon" href="\', escape=False)\nresponse.write(URL(\'static\',\'favicon.ico\'))\nresponse.write(\'" type="image/x-icon">\\n    <link rel="apple-touch-icon" href="\', escape=False)\nresponse.write(URL(\'static\',\'favicon.png\'))\nresponse.write(\'">\\n\\n    <!-- For the less-enabled mobile browsers like Opera Mini -->\\n    <link rel="stylesheet" media="handheld" href="\', escape=False)\nresponse.write(URL(\'static\',\'css/handheld.css\'))\nresponse.write(\'">\\n    \\n    <!-- All JavaScript at the bottom, except for Modernizr which enables HTML5 elements & feature detects -->\\n    <script src="\', escape=False)\nresponse.write(URL(\'static\',\'js/modernizr-1.7.min.js\'))\nresponse.write(\'"></script>\\n    \\n    \', escape=False)\n#------  require CSS and JS files for this page (read info in base.css) ------\nresponse.write(\'\\n    \', escape=False)\nresponse.files.append(URL(\'static\',\'css/base.css\'))\nresponse.write(\'\\n    \', escape=False)\nresponse.files.append(URL(\'static\',\'css/superfish.css\'))\nresponse.write(\'\\n    \', escape=False)\nresponse.files.append(URL(\'static\',\'js/superfish.js\'))\nresponse.write(\'\\n    \', escape=False)\n#------ include web2py specific js code (jquery, calendar, form stuff) ------\nresponse.write(\'\\n    \', escape=False)\nresponse.files.insert(0,URL(\'static\',\'js/jquery.js\'))\nresponse.files.insert(1,URL(\'static\',\'css/calendar.css\'))\nresponse.files.insert(2,URL(\'static\',\'js/calendar.js\'))\nfor _item in response.meta or []:\n    response.write(\'\\n     <meta name="\', escape=False)\n    response.write(_item)\n    response.write(\'" content="\', escape=False)\n    response.write(response.meta[_item])\n    response.write(\'" />\', escape=False)\n    pass\nfor _k,_file in enumerate(response.files or []):\n    if _file in response.files[:_k]:\n        continue\n    _file0=_file.lower().split(\'?\')[0]\n    if _file0.endswith(\'.css\'):\n        response.write(\'\\n     <link href="\', escape=False)\n        response.write(_file)\n        response.write(\'" rel="stylesheet" type="text/css" />\', escape=False)\n    elif _file0.endswith(\'.js\'):\n        response.write(\'\\n     <script src="\', escape=False)\n        response.write(_file)\n        response.write(\'" type="text/javascript"></script>\', escape=False)\n        pass\n    pass\nresponse.write(\'\\n    <script type="text/javascript"><!--\\n    // These variables are used by the web2py_ajax_init function in web2py_ajax.js (which is loaded below).\\n    var w2p_ajax_confirm_message = "\', escape=False)\nresponse.write(T(\'Are you sure you want to delete this object?\'))\nresponse.write(\'";\\n    var w2p_ajax_date_format = "\', escape=False)\nresponse.write(T(\'%Y-%m-%d\'))\nresponse.write(\'";\\n    var w2p_ajax_datetime_format = "\', escape=False)\nresponse.write(T(\'%Y-%m-%d %H:%M:%S\'))\nresponse.write(\'";\\n    //--></script>\\n    <script src="\', escape=False)\nresponse.write(URL(\'static\',\'js/web2py_ajax.js\'))\nresponse.write(\'" type="text/javascript"></script>\\n\', escape=False)\nresponse.write(\'\\n\\n    \', escape=False)\n#using sidebars need to know what sidebar you want to use\n#prior of using it, because of static width size of content, you can use\n#left_sidebar, right_sidebar, both or none (False left and right)\nleft_sidebar_enabled = globals().get(\'left_sidebar_enabled\',False)\nright_sidebar_enabled = globals().get(\'right_sidebar_enabled\',False)\nif left_sidebar_enabled and right_sidebar_enabled: width_content=\'63%\'\nelif left_sidebar_enabled != right_sidebar_enabled: width_content=\'740px\'\nelse: width_content=\'100%\'\nif left_sidebar_enabled: left_sidebar_style = \'style="display: block;"\'\nelse: left_sidebar_style = \'style="display: none;"\'\nif right_sidebar_enabled: right_sidebar_style = \'style="display: block;"\'\nelse: right_sidebar_style = \'style="display: none;"\'\nstyle_content = \'style="width: %s"\' % width_content\nresponse.write(\'\\n  </head>\\n  \\n  <!-- paulirish.com/2008/conditional-stylesheets-vs-css-hacks-answer-neither/ -->\\t\\n  <!--[if lt IE 7 ]> <body class="ie6"> <![endif]-->\\n  <!--[if IE 7 ]>    <body class="ie7"> <![endif]-->\\n  <!--[if IE 8 ]>    <body class="ie8"> <![endif]-->\\n  <!--[if IE 9 ]>    <body class="ie9"> <![endif]-->\\n  <!--[if (gt IE 9)|!(IE)]><!--> <body> <!--<![endif]-->\\n    \\n    <div class="flash">\', escape=False)\nresponse.write(response.flash or \'\')\nresponse.write(\'</div> <!-- notification div -->\\n    \\n    <div id="container">\\t      \\t\\t      \\t\\n      \\n      <div id="wrapper">\\t\\t\\n\\t\\n\\t<div id="header"> <!-- header and login nav -->\\n\\t  \', escape=False)\nresponse.write(\' <!-- this is default header -->\\n\\t  \', escape=False)\ntry:\n    response.write(auth.navbar(action=URL(\'default\',\'user\')))\nexcept:pass\nresponse.write(\'\\t\\t          \\n\\t  <h1><span id="appname">\', escape=False)\nresponse.write(request.application.capitalize())\nresponse.write(\'</span>App</h1>\\n\\t  <div style="clear: both;"></div><!-- Clear the divs -->\\n\\t  \', escape=False)\nresponse.write(\'\\t\\t\\t\\t  \\t\\t\\t\\t\\t  \\n\\t</div><!-- header  -->\\n\\t\\n\\t<div id="statusbar"><!-- statusbar is menu zone -->\\n\\t  \', escape=False)\nresponse.write(\' <!-- this is default statusbar -->\\n\\t  \', escape=False)\n#------ superfish menu ------\nresponse.write(\'\\n\\t  \', escape=False)\nresponse.write(MENU(response.menu,_class=\'sf-menu\'))\nresponse.write(\'\\n\\t  <script type="text/javascript">\\n\\t    jQuery(document).ready(function(){\\n\\t    jQuery(\\\'ul.sf-menu\\\').superfish();});\\n\\t  </script>\\n\\t  <div style="clear: both;"></div><!-- Clear the divs -->\\t\\n\\t  \', escape=False)\nresponse.write(\'\\t\\t\\t\\t\\n\\t</div><!-- statusbar -->\\n\\t\\n\\t<div id="page"> <!-- Here my central body -->\\t  \\n\\n\\t  \', escape=False)\nif left_sidebar_enabled:\n    response.write(\'\\n          <div id="left_sidebar" \', escape=False)\n    response.write(XML(left_sidebar_style))\n    response.write(\' >\\n            <div style="padding: 4px;">\\n\\t      \', escape=False)\n    response.write(\'Content Left Sidebar\', escape=False)\n    response.write(\'\\t\\t  \\n            </div>\\n          </div><!-- left_sidebar -->\\n\\t  \', escape=False)\n    pass\nresponse.write(\'\\n\\n\\t  <!-- content -->\\n\\t  <div id="content" \', escape=False)\nresponse.write(XML(style_content))\nresponse.write(\' >\\n\\t    \', escape=False)\nresponse.write(\'\\n<h3>Songs Details</h3>\\nSong Name &nbsp Singer </br>\\n\', escape=False)\nresponse.write(i.name,)\nresponse.write(\' \', escape=False)\nresponse.write(i.singer.name)\nresponse.write(\'\\n\', escape=False)\nresponse.write(\'\\t\\n\\t  </div>\\n\\t  <!-- content -->\\n\\n\\t  \', escape=False)\nif right_sidebar_enabled:\n    response.write(\'\\n          <div id="right_sidebar" \', escape=False)\n    response.write(XML(right_sidebar_style))\n    response.write(\' >\\n            <div style="padding: 4px;">\\n              \', escape=False)\n    response.write(\'Content Right Sidebar\', escape=False)\n    response.write(\'\\n            </div>\\n\\t  </div><!-- right_sidebar -->\\n          \', escape=False)\n    pass\nresponse.write(\'\\n\\n\\n\\t  <div style="clear: both;"></div><!-- Clear the divs -->\\n\\t  \\n\\t</div><!-- page -->\\t\\t\\t\\t\\t\\t\\t\\n\\t\\n\\t<div id="footer">\\n\\t  \', escape=False)\nresponse.write(\' <!-- this is default footer -->\\n\\t  <a href="http://www.web2py.com/" style="float: left; padding-right: 6px;">\\n\\t    <img src="\', escape=False)\nresponse.write(URL(\'static\',\'images/poweredby.png\'))\nresponse.write(\'"/>\\n\\t  </a>\\n\\t  \', escape=False)\nresponse.write(T(\'Copyright\'))\nresponse.write(\' &#169; 2010\\t\\t\\t\\t\\n\\t  <div style="clear: both;"></div><!-- Clear the divs -->\\n\\t  \', escape=False)\nresponse.write(\'\\n\\n\\t</div><!-- footer -->\\t\\t\\t\\n      </div><!-- wrapper -->\\n    </div><!-- container -->\\t\\t\\n    \\n    <!--[if lt IE 7 ]>\\n\\t<script src="\', escape=False)\nresponse.write(URL(\'static\',\'js/dd_belatedpng.js\'))\nresponse.write(\'"></script>\\n\\t<script> DD_belatedPNG.fix(\\\'img, .png_bg\\\'); //fix any <img> or .png_bg background-images </script>\\n\\t<![endif]-->\\n    \\n    <!-- asynchronous google analytics: mathiasbynens.be/notes/async-analytics-snippet \\n\\t change the UA-XXXXX-X to be your site\\\'s ID -->\\n    <!--   \\n\\t   <script>\\n\\t     var _gaq = [[\\\'_setAccount\\\', \\\'UA-XXXXX-X\\\'], [\\\'_trackPageview\\\']];\\n\\t     (function(d, t) {\\n\\t     var g = d.createElement(t),\\n\\t     s = d.getElementsByTagName(t)[0];\\n\\t     g.async = true;\\n\\t     g.src = \\\'//www.google-analytics.com/ga.js\\\';\\n\\t     s.parentNode.insertBefore(g, s);\\n\\t     })(document, \\\'script\\\');\\n\\t   </script>\\n\\t   -->    \\n  </body>\\n</html>\\n\', escape=False)'
p6
sS'snapshot'
p7
(dp8
S'exception'
p9
(dp10
S'__hash__'
p11
S"<method-wrapper '__hash__' of exceptions.NameError object>"
p12
sS'__setattr__'
p13
S"<method-wrapper '__setattr__' of exceptions.NameError object>"
p14
sS'__reduce_ex__'
p15
S'<built-in method __reduce_ex__ of exceptions.NameError object>'
p16
sS'__getslice__'
p17
S"<method-wrapper '__getslice__' of exceptions.NameError object>"
p18
sS'__getitem__'
p19
S"<method-wrapper '__getitem__' of exceptions.NameError object>"
p20
sS'__setstate__'
p21
S'<built-in method __setstate__ of exceptions.NameError object>'
p22
sS'__reduce__'
p23
S'<built-in method __reduce__ of exceptions.NameError object>'
p24
sS'__str__'
p25
S"<method-wrapper '__str__' of exceptions.NameError object>"
p26
sS'__format__'
p27
S'<built-in method __format__ of exceptions.NameError object>'
p28
sS'__getattribute__'
p29
S"<method-wrapper '__getattribute__' of exceptions.NameError object>"
p30
sS'__class__'
p31
S"<type 'exceptions.NameError'>"
p32
sS'__unicode__'
p33
S'<built-in method __unicode__ of exceptions.NameError object>'
p34
sS'__delattr__'
p35
S"<method-wrapper '__delattr__' of exceptions.NameError object>"
p36
sS'__subclasshook__'
p37
S'<built-in method __subclasshook__ of type object>'
p38
sS'__repr__'
p39
S"<method-wrapper '__repr__' of exceptions.NameError object>"
p40
sS'args'
p41
S'("name \'i\' is not defined",)'
p42
sS'__dict__'
p43
S'{}'
p44
sS'__sizeof__'
p45
S'<built-in method __sizeof__ of exceptions.NameError object>'
p46
sS'__doc__'
p47
S"'Name not found globally.'"
p48
sS'__init__'
p49
S"<method-wrapper '__init__' of exceptions.NameError object>"
p50
sS'__new__'
p51
S'<built-in method __new__ of type object>'
p52
ssS'evalue'
p53
S"name 'i' is not defined"
p54
sS'request'
p55
ccopy_reg
_reconstructor
p56
(cgluon.html
BEAUTIFY
p57
c__builtin__
object
p58
NtRp59
(dp60
S'attributes'
p61
(dp62
sS'components'
p63
(lp64
g56
(cgluon.html
TABLE
p65
g58
NtRp66
(dp67
g61
(dp68
S'level'
p69
I5
ssS'parent'
p70
Nsg63
(lp71
g56
(cgluon.html
TR
p72
g58
NtRp73
(dp74
g61
(dp75
sg70
g66
sg63
(lp76
g56
(cgluon.html
TD
p77
g58
NtRp78
(dp79
g61
(dp80
S'_style'
p81
S'font-weight:bold;'
p82
ssg70
g73
sg63
(lp83
S'ajax'
p84
asbag56
(g77
g58
NtRp85
(dp86
g61
(dp87
S'_valign'
p88
S'top'
p89
ssg70
g73
sg63
(lp90
S':'
asbag56
(g77
g58
NtRp91
(dp92
g61
(dp93
sg70
g73
sg63
(lp94
g56
(g57
g58
NtRp95
(dp96
g61
(dp97
g69
I5
ssg70
g91
sg63
(lp98
S'False'
p99
asbasbasbag56
(g72
g58
NtRp100
(dp101
g61
(dp102
sg70
g66
sg63
(lp103
g56
(g77
g58
NtRp104
(dp105
g61
(dp106
g81
g82
ssg70
g100
sg63
(lp107
S'application'
p108
asbag56
(g77
g58
NtRp109
(dp110
g61
(dp111
g88
g89
ssg70
g100
sg63
(lp112
S':'
asbag56
(g77
g58
NtRp113
(dp114
g61
(dp115
sg70
g100
sg63
(lp116
g56
(g57
g58
NtRp117
(dp118
g61
(dp119
g69
I5
ssg70
g113
sg63
(lp120
S'Music_Repo'
p121
asbasbasbag56
(g72
g58
NtRp122
(dp123
g61
(dp124
sg70
g66
sg63
(lp125
g56
(g77
g58
NtRp126
(dp127
g61
(dp128
g81
g82
ssg70
g122
sg63
(lp129
g41
asbag56
(g77
g58
NtRp130
(dp131
g61
(dp132
g88
g89
ssg70
g122
sg63
(lp133
S':'
asbag56
(g77
g58
NtRp134
(dp135
g61
(dp136
sg70
g122
sg63
(lp137
g56
(g57
g58
NtRp138
(dp139
g61
(dp140
g69
I5
ssg70
g134
sg63
(lp141
g56
(g65
g58
NtRp142
(dp143
g61
(dp144
g69
I4
ssg70
Nsg63
(lp145
sbasbasbasbag56
(g72
g58
NtRp146
(dp147
g61
(dp148
sg70
g66
sg63
(lp149
g56
(g77
g58
NtRp150
(dp151
g61
(dp152
g81
g82
ssg70
g146
sg63
(lp153
S'body'
p154
asbag56
(g77
g58
NtRp155
(dp156
g61
(dp157
g88
g89
ssg70
g146
sg63
(lp158
S':'
asbag56
(g77
g58
NtRp159
(dp160
g61
(dp161
sg70
g146
sg63
(lp162
g56
(g57
g58
NtRp163
(dp164
g61
(dp165
g69
I5
ssg70
g159
sg63
(lp166
S'<cStringIO.StringO object at 0xb073960>'
p167
asbasbasbag56
(g72
g58
NtRp168
(dp169
g61
(dp170
sg70
g66
sg63
(lp171
g56
(g77
g58
NtRp172
(dp173
g61
(dp174
g81
g82
ssg70
g168
sg63
(lp175
S'client'
p176
asbag56
(g77
g58
NtRp177
(dp178
g61
(dp179
g88
g89
ssg70
g168
sg63
(lp180
S':'
asbag56
(g77
g58
NtRp181
(dp182
g61
(dp183
sg70
g168
sg63
(lp184
g56
(g57
g58
NtRp185
(dp186
g61
(dp187
g69
I5
ssg70
g181
sg63
(lp188
S'127.0.0.1'
p189
asbasbasbag56
(g72
g58
NtRp190
(dp191
g61
(dp192
sg70
g66
sg63
(lp193
g56
(g77
g58
NtRp194
(dp195
g61
(dp196
g81
g82
ssg70
g190
sg63
(lp197
S'controller'
p198
asbag56
(g77
g58
NtRp199
(dp200
g61
(dp201
g88
g89
ssg70
g190
sg63
(lp202
S':'
asbag56
(g77
g58
NtRp203
(dp204
g61
(dp205
sg70
g190
sg63
(lp206
g56
(g57
g58
NtRp207
(dp208
g61
(dp209
g69
I5
ssg70
g203
sg63
(lp210
S'default'
p211
asbasbasbag56
(g72
g58
NtRp212
(dp213
g61
(dp214
sg70
g66
sg63
(lp215
g56
(g77
g58
NtRp216
(dp217
g61
(dp218
g81
g82
ssg70
g212
sg63
(lp219
S'cookies'
p220
asbag56
(g77
g58
NtRp221
(dp222
g61
(dp223
g88
g89
ssg70
g212
sg63
(lp224
S':'
asbag56
(g77
g58
NtRp225
(dp226
g61
(dp227
sg70
g212
sg63
(lp228
g56
(g57
g58
NtRp229
(dp230
g61
(dp231
g69
I5
ssg70
g225
sg63
(lp232
g56
(g65
g58
NtRp233
(dp234
g61
(dp235
g69
I4
ssg70
Nsg63
(lp236
g56
(g72
g58
NtRp237
(dp238
g61
(dp239
sg70
g233
sg63
(lp240
g56
(g77
g58
NtRp241
(dp242
g61
(dp243
g81
g82
ssg70
g237
sg63
(lp244
S'session_id_admin'
p245
asbag56
(g77
g58
NtRp246
(dp247
g61
(dp248
g88
g89
ssg70
g237
sg63
(lp249
S':'
asbag56
(g77
g58
NtRp250
(dp251
g61
(dp252
sg70
g237
sg63
(lp253
g56
(g57
g58
NtRp254
(dp255
g61
(dp256
g69
I4
ssg70
g250
sg63
(lp257
g56
(g65
g58
NtRp258
(dp259
g61
(dp260
g69
I3
ssg70
Nsg63
(lp261
g56
(g72
g58
NtRp262
(dp263
g61
(dp264
sg70
g258
sg63
(lp265
g56
(g77
g58
NtRp266
(dp267
g61
(dp268
g81
g82
ssg70
g262
sg63
(lp269
S'comment'
p270
asbag56
(g77
g58
NtRp271
(dp272
g61
(dp273
g88
g89
ssg70
g262
sg63
(lp274
S':'
asbag56
(g77
g58
NtRp275
(dp276
g61
(dp277
sg70
g262
sg63
(lp278
g56
(g57
g58
NtRp279
(dp280
g61
(dp281
g69
I3
ssg70
g275
sg63
(lp282
S''
asbasbasbag56
(g72
g58
NtRp283
(dp284
g61
(dp285
sg70
g258
sg63
(lp286
g56
(g77
g58
NtRp287
(dp288
g61
(dp289
g81
g82
ssg70
g283
sg63
(lp290
S'domain'
p291
asbag56
(g77
g58
NtRp292
(dp293
g61
(dp294
g88
g89
ssg70
g283
sg63
(lp295
S':'
asbag56
(g77
g58
NtRp296
(dp297
g61
(dp298
sg70
g283
sg63
(lp299
g56
(g57
g58
NtRp300
(dp301
g61
(dp302
g69
I3
ssg70
g296
sg63
(lp303
S''
asbasbasbag56
(g72
g58
NtRp304
(dp305
g61
(dp306
sg70
g258
sg63
(lp307
g56
(g77
g58
NtRp308
(dp309
g61
(dp310
g81
g82
ssg70
g304
sg63
(lp311
S'expires'
p312
asbag56
(g77
g58
NtRp313
(dp314
g61
(dp315
g88
g89
ssg70
g304
sg63
(lp316
S':'
asbag56
(g77
g58
NtRp317
(dp318
g61
(dp319
sg70
g304
sg63
(lp320
g56
(g57
g58
NtRp321
(dp322
g61
(dp323
g69
I3
ssg70
g317
sg63
(lp324
S''
asbasbasbag56
(g72
g58
NtRp325
(dp326
g61
(dp327
sg70
g258
sg63
(lp328
g56
(g77
g58
NtRp329
(dp330
g61
(dp331
g81
g82
ssg70
g325
sg63
(lp332
S'httponly'
p333
asbag56
(g77
g58
NtRp334
(dp335
g61
(dp336
g88
g89
ssg70
g325
sg63
(lp337
S':'
asbag56
(g77
g58
NtRp338
(dp339
g61
(dp340
sg70
g325
sg63
(lp341
g56
(g57
g58
NtRp342
(dp343
g61
(dp344
g69
I3
ssg70
g338
sg63
(lp345
S''
asbasbasbag56
(g72
g58
NtRp346
(dp347
g61
(dp348
sg70
g258
sg63
(lp349
g56
(g77
g58
NtRp350
(dp351
g61
(dp352
g81
g82
ssg70
g346
sg63
(lp353
S'max-age'
p354
asbag56
(g77
g58
NtRp355
(dp356
g61
(dp357
g88
g89
ssg70
g346
sg63
(lp358
S':'
asbag56
(g77
g58
NtRp359
(dp360
g61
(dp361
sg70
g346
sg63
(lp362
g56
(g57
g58
NtRp363
(dp364
g61
(dp365
g69
I3
ssg70
g359
sg63
(lp366
S''
asbasbasbag56
(g72
g58
NtRp367
(dp368
g61
(dp369
sg70
g258
sg63
(lp370
g56
(g77
g58
NtRp371
(dp372
g61
(dp373
g81
g82
ssg70
g367
sg63
(lp374
S'path'
p375
asbag56
(g77
g58
NtRp376
(dp377
g61
(dp378
g88
g89
ssg70
g367
sg63
(lp379
S':'
asbag56
(g77
g58
NtRp380
(dp381
g61
(dp382
sg70
g367
sg63
(lp383
g56
(g57
g58
NtRp384
(dp385
g61
(dp386
g69
I3
ssg70
g380
sg63
(lp387
S''
asbasbasbag56
(g72
g58
NtRp388
(dp389
g61
(dp390
sg70
g258
sg63
(lp391
g56
(g77
g58
NtRp392
(dp393
g61
(dp394
g81
g82
ssg70
g388
sg63
(lp395
S'secure'
p396
asbag56
(g77
g58
NtRp397
(dp398
g61
(dp399
g88
g89
ssg70
g388
sg63
(lp400
S':'
asbag56
(g77
g58
NtRp401
(dp402
g61
(dp403
sg70
g388
sg63
(lp404
g56
(g57
g58
NtRp405
(dp406
g61
(dp407
g69
I3
ssg70
g401
sg63
(lp408
S''
asbasbasbag56
(g72
g58
NtRp409
(dp410
g61
(dp411
sg70
g258
sg63
(lp412
g56
(g77
g58
NtRp413
(dp414
g61
(dp415
g81
g82
ssg70
g409
sg63
(lp416
S'version'
p417
asbag56
(g77
g58
NtRp418
(dp419
g61
(dp420
g88
g89
ssg70
g409
sg63
(lp421
S':'
asbag56
(g77
g58
NtRp422
(dp423
g61
(dp424
sg70
g409
sg63
(lp425
g56
(g57
g58
NtRp426
(dp427
g61
(dp428
g69
I3
ssg70
g422
sg63
(lp429
S''
asbasbasbasbasbasbasbag56
(g72
g58
NtRp430
(dp431
g61
(dp432
sg70
g233
sg63
(lp433
g56
(g77
g58
NtRp434
(dp435
g61
(dp436
g81
g82
ssg70
g430
sg63
(lp437
S'session_id_music_repo'
p438
asbag56
(g77
g58
NtRp439
(dp440
g61
(dp441
g88
g89
ssg70
g430
sg63
(lp442
S':'
asbag56
(g77
g58
NtRp443
(dp444
g61
(dp445
sg70
g430
sg63
(lp446
g56
(g57
g58
NtRp447
(dp448
g61
(dp449
g69
I4
ssg70
g443
sg63
(lp450
g56
(g65
g58
NtRp451
(dp452
g61
(dp453
g69
I3
ssg70
Nsg63
(lp454
g56
(g72
g58
NtRp455
(dp456
g61
(dp457
sg70
g451
sg63
(lp458
g56
(g77
g58
NtRp459
(dp460
g61
(dp461
g81
g82
ssg70
g455
sg63
(lp462
g270
asbag56
(g77
g58
NtRp463
(dp464
g61
(dp465
g88
g89
ssg70
g455
sg63
(lp466
S':'
asbag56
(g77
g58
NtRp467
(dp468
g61
(dp469
sg70
g455
sg63
(lp470
g56
(g57
g58
NtRp471
(dp472
g61
(dp473
g69
I3
ssg70
g467
sg63
(lp474
S''
asbasbasbag56
(g72
g58
NtRp475
(dp476
g61
(dp477
sg70
g451
sg63
(lp478
g56
(g77
g58
NtRp479
(dp480
g61
(dp481
g81
g82
ssg70
g475
sg63
(lp482
g291
asbag56
(g77
g58
NtRp483
(dp484
g61
(dp485
g88
g89
ssg70
g475
sg63
(lp486
S':'
asbag56
(g77
g58
NtRp487
(dp488
g61
(dp489
sg70
g475
sg63
(lp490
g56
(g57
g58
NtRp491
(dp492
g61
(dp493
g69
I3
ssg70
g487
sg63
(lp494
S''
asbasbasbag56
(g72
g58
NtRp495
(dp496
g61
(dp497
sg70
g451
sg63
(lp498
g56
(g77
g58
NtRp499
(dp500
g61
(dp501
g81
g82
ssg70
g495
sg63
(lp502
g312
asbag56
(g77
g58
NtRp503
(dp504
g61
(dp505
g88
g89
ssg70
g495
sg63
(lp506
S':'
asbag56
(g77
g58
NtRp507
(dp508
g61
(dp509
sg70
g495
sg63
(lp510
g56
(g57
g58
NtRp511
(dp512
g61
(dp513
g69
I3
ssg70
g507
sg63
(lp514
S''
asbasbasbag56
(g72
g58
NtRp515
(dp516
g61
(dp517
sg70
g451
sg63
(lp518
g56
(g77
g58
NtRp519
(dp520
g61
(dp521
g81
g82
ssg70
g515
sg63
(lp522
g333
asbag56
(g77
g58
NtRp523
(dp524
g61
(dp525
g88
g89
ssg70
g515
sg63
(lp526
S':'
asbag56
(g77
g58
NtRp527
(dp528
g61
(dp529
sg70
g515
sg63
(lp530
g56
(g57
g58
NtRp531
(dp532
g61
(dp533
g69
I3
ssg70
g527
sg63
(lp534
S''
asbasbasbag56
(g72
g58
NtRp535
(dp536
g61
(dp537
sg70
g451
sg63
(lp538
g56
(g77
g58
NtRp539
(dp540
g61
(dp541
g81
g82
ssg70
g535
sg63
(lp542
g354
asbag56
(g77
g58
NtRp543
(dp544
g61
(dp545
g88
g89
ssg70
g535
sg63
(lp546
S':'
asbag56
(g77
g58
NtRp547
(dp548
g61
(dp549
sg70
g535
sg63
(lp550
g56
(g57
g58
NtRp551
(dp552
g61
(dp553
g69
I3
ssg70
g547
sg63
(lp554
S''
asbasbasbag56
(g72
g58
NtRp555
(dp556
g61
(dp557
sg70
g451
sg63
(lp558
g56
(g77
g58
NtRp559
(dp560
g61
(dp561
g81
g82
ssg70
g555
sg63
(lp562
g375
asbag56
(g77
g58
NtRp563
(dp564
g61
(dp565
g88
g89
ssg70
g555
sg63
(lp566
S':'
asbag56
(g77
g58
NtRp567
(dp568
g61
(dp569
sg70
g555
sg63
(lp570
g56
(g57
g58
NtRp571
(dp572
g61
(dp573
g69
I3
ssg70
g567
sg63
(lp574
S''
asbasbasbag56
(g72
g58
NtRp575
(dp576
g61
(dp577
sg70
g451
sg63
(lp578
g56
(g77
g58
NtRp579
(dp580
g61
(dp581
g81
g82
ssg70
g575
sg63
(lp582
g396
asbag56
(g77
g58
NtRp583
(dp584
g61
(dp585
g88
g89
ssg70
g575
sg63
(lp586
S':'
asbag56
(g77
g58
NtRp587
(dp588
g61
(dp589
sg70
g575
sg63
(lp590
g56
(g57
g58
NtRp591
(dp592
g61
(dp593
g69
I3
ssg70
g587
sg63
(lp594
S''
asbasbasbag56
(g72
g58
NtRp595
(dp596
g61
(dp597
sg70
g451
sg63
(lp598
g56
(g77
g58
NtRp599
(dp600
g61
(dp601
g81
g82
ssg70
g595
sg63
(lp602
g417
asbag56
(g77
g58
NtRp603
(dp604
g61
(dp605
g88
g89
ssg70
g595
sg63
(lp606
S':'
asbag56
(g77
g58
NtRp607
(dp608
g61
(dp609
sg70
g595
sg63
(lp610
g56
(g57
g58
NtRp611
(dp612
g61
(dp613
g69
I3
ssg70
g607
sg63
(lp614
S''
asbasbasbasbasbasbasbag56
(g72
g58
NtRp615
(dp616
g61
(dp617
sg70
g233
sg63
(lp618
g56
(g77
g58
NtRp619
(dp620
g61
(dp621
g81
g82
ssg70
g615
sg63
(lp622
S'session_id_welcome'
p623
asbag56
(g77
g58
NtRp624
(dp625
g61
(dp626
g88
g89
ssg70
g615
sg63
(lp627
S':'
asbag56
(g77
g58
NtRp628
(dp629
g61
(dp630
sg70
g615
sg63
(lp631
g56
(g57
g58
NtRp632
(dp633
g61
(dp634
g69
I4
ssg70
g628
sg63
(lp635
g56
(g65
g58
NtRp636
(dp637
g61
(dp638
g69
I3
ssg70
Nsg63
(lp639
g56
(g72
g58
NtRp640
(dp641
g61
(dp642
sg70
g636
sg63
(lp643
g56
(g77
g58
NtRp644
(dp645
g61
(dp646
g81
g82
ssg70
g640
sg63
(lp647
g270
asbag56
(g77
g58
NtRp648
(dp649
g61
(dp650
g88
g89
ssg70
g640
sg63
(lp651
S':'
asbag56
(g77
g58
NtRp652
(dp653
g61
(dp654
sg70
g640
sg63
(lp655
g56
(g57
g58
NtRp656
(dp657
g61
(dp658
g69
I3
ssg70
g652
sg63
(lp659
S''
asbasbasbag56
(g72
g58
NtRp660
(dp661
g61
(dp662
sg70
g636
sg63
(lp663
g56
(g77
g58
NtRp664
(dp665
g61
(dp666
g81
g82
ssg70
g660
sg63
(lp667
g291
asbag56
(g77
g58
NtRp668
(dp669
g61
(dp670
g88
g89
ssg70
g660
sg63
(lp671
S':'
asbag56
(g77
g58
NtRp672
(dp673
g61
(dp674
sg70
g660
sg63
(lp675
g56
(g57
g58
NtRp676
(dp677
g61
(dp678
g69
I3
ssg70
g672
sg63
(lp679
S''
asbasbasbag56
(g72
g58
NtRp680
(dp681
g61
(dp682
sg70
g636
sg63
(lp683
g56
(g77
g58
NtRp684
(dp685
g61
(dp686
g81
g82
ssg70
g680
sg63
(lp687
g312
asbag56
(g77
g58
NtRp688
(dp689
g61
(dp690
g88
g89
ssg70
g680
sg63
(lp691
S':'
asbag56
(g77
g58
NtRp692
(dp693
g61
(dp694
sg70
g680
sg63
(lp695
g56
(g57
g58
NtRp696
(dp697
g61
(dp698
g69
I3
ssg70
g692
sg63
(lp699
S''
asbasbasbag56
(g72
g58
NtRp700
(dp701
g61
(dp702
sg70
g636
sg63
(lp703
g56
(g77
g58
NtRp704
(dp705
g61
(dp706
g81
g82
ssg70
g700
sg63
(lp707
g333
asbag56
(g77
g58
NtRp708
(dp709
g61
(dp710
g88
g89
ssg70
g700
sg63
(lp711
S':'
asbag56
(g77
g58
NtRp712
(dp713
g61
(dp714
sg70
g700
sg63
(lp715
g56
(g57
g58
NtRp716
(dp717
g61
(dp718
g69
I3
ssg70
g712
sg63
(lp719
S''
asbasbasbag56
(g72
g58
NtRp720
(dp721
g61
(dp722
sg70
g636
sg63
(lp723
g56
(g77
g58
NtRp724
(dp725
g61
(dp726
g81
g82
ssg70
g720
sg63
(lp727
g354
asbag56
(g77
g58
NtRp728
(dp729
g61
(dp730
g88
g89
ssg70
g720
sg63
(lp731
S':'
asbag56
(g77
g58
NtRp732
(dp733
g61
(dp734
sg70
g720
sg63
(lp735
g56
(g57
g58
NtRp736
(dp737
g61
(dp738
g69
I3
ssg70
g732
sg63
(lp739
S''
asbasbasbag56
(g72
g58
NtRp740
(dp741
g61
(dp742
sg70
g636
sg63
(lp743
g56
(g77
g58
NtRp744
(dp745
g61
(dp746
g81
g82
ssg70
g740
sg63
(lp747
g375
asbag56
(g77
g58
NtRp748
(dp749
g61
(dp750
g88
g89
ssg70
g740
sg63
(lp751
S':'
asbag56
(g77
g58
NtRp752
(dp753
g61
(dp754
sg70
g740
sg63
(lp755
g56
(g57
g58
NtRp756
(dp757
g61
(dp758
g69
I3
ssg70
g752
sg63
(lp759
S''
asbasbasbag56
(g72
g58
NtRp760
(dp761
g61
(dp762
sg70
g636
sg63
(lp763
g56
(g77
g58
NtRp764
(dp765
g61
(dp766
g81
g82
ssg70
g760
sg63
(lp767
g396
asbag56
(g77
g58
NtRp768
(dp769
g61
(dp770
g88
g89
ssg70
g760
sg63
(lp771
S':'
asbag56
(g77
g58
NtRp772
(dp773
g61
(dp774
sg70
g760
sg63
(lp775
g56
(g57
g58
NtRp776
(dp777
g61
(dp778
g69
I3
ssg70
g772
sg63
(lp779
S''
asbasbasbag56
(g72
g58
NtRp780
(dp781
g61
(dp782
sg70
g636
sg63
(lp783
g56
(g77
g58
NtRp784
(dp785
g61
(dp786
g81
g82
ssg70
g780
sg63
(lp787
g417
asbag56
(g77
g58
NtRp788
(dp789
g61
(dp790
g88
g89
ssg70
g780
sg63
(lp791
S':'
asbag56
(g77
g58
NtRp792
(dp793
g61
(dp794
sg70
g780
sg63
(lp795
g56
(g57
g58
NtRp796
(dp797
g61
(dp798
g69
I3
ssg70
g792
sg63
(lp799
S''
asbasbasbasbasbasbasbasbasbasbasbag56
(g72
g58
NtRp800
(dp801
g61
(dp802
sg70
g66
sg63
(lp803
g56
(g77
g58
NtRp804
(dp805
g61
(dp806
g81
g82
ssg70
g800
sg63
(lp807
S'env'
p808
asbag56
(g77
g58
NtRp809
(dp810
g61
(dp811
g88
g89
ssg70
g800
sg63
(lp812
S':'
asbag56
(g77
g58
NtRp813
(dp814
g61
(dp815
sg70
g800
sg63
(lp816
g56
(g57
g58
NtRp817
(dp818
g61
(dp819
g69
I5
ssg70
g813
sg63
(lp820
g56
(g65
g58
NtRp821
(dp822
g61
(dp823
g69
I4
ssg70
Nsg63
(lp824
g56
(g72
g58
NtRp825
(dp826
g61
(dp827
sg70
g821
sg63
(lp828
g56
(g77
g58
NtRp829
(dp830
g61
(dp831
g81
g82
ssg70
g825
sg63
(lp832
S'app_folders'
p833
asbag56
(g77
g58
NtRp834
(dp835
g61
(dp836
g88
g89
ssg70
g825
sg63
(lp837
S':'
asbag56
(g77
g58
NtRp838
(dp839
g61
(dp840
sg70
g825
sg63
(lp841
g56
(g57
g58
NtRp842
(dp843
g61
(dp844
g69
I4
ssg70
g838
sg63
(lp845
S"set(['/home/vsvah/Desktop/Coursework/Sem3/SSAD/web2py/applications/Music_Repo/', '/home/vsvah/Desktop/Coursework/Sem3/SSAD/web2py/applications/admin/', '/home/vsvah/Desktop/Coursework/Sem3/SSAD/web2py/applications/welcome/'])"
p846
asbasbasbag56
(g72
g58
NtRp847
(dp848
g61
(dp849
sg70
g821
sg63
(lp850
g56
(g77
g58
NtRp851
(dp852
g61
(dp853
g81
g82
ssg70
g847
sg63
(lp854
S'applications_parent'
p855
asbag56
(g77
g58
NtRp856
(dp857
g61
(dp858
g88
g89
ssg70
g847
sg63
(lp859
S':'
asbag56
(g77
g58
NtRp860
(dp861
g61
(dp862
sg70
g847
sg63
(lp863
g56
(g57
g58
NtRp864
(dp865
g61
(dp866
g69
I4
ssg70
g860
sg63
(lp867
S'/home/vsvah/Desktop/Coursework/Sem3/SSAD/web2py'
p868
asbasbasbag56
(g72
g58
NtRp869
(dp870
g61
(dp871
sg70
g821
sg63
(lp872
g56
(g77
g58
NtRp873
(dp874
g61
(dp875
g81
g82
ssg70
g869
sg63
(lp876
S'cmd_args'
p877
asbag56
(g77
g58
NtRp878
(dp879
g61
(dp880
g88
g89
ssg70
g869
sg63
(lp881
S':'
asbag56
(g77
g58
NtRp882
(dp883
g61
(dp884
sg70
g869
sg63
(lp885
g56
(g57
g58
NtRp886
(dp887
g61
(dp888
g69
I4
ssg70
g882
sg63
(lp889
g56
(g65
g58
NtRp890
(dp891
g61
(dp892
g69
I3
ssg70
Nsg63
(lp893
sbasbasbasbag56
(g72
g58
NtRp894
(dp895
g61
(dp896
sg70
g821
sg63
(lp897
g56
(g77
g58
NtRp898
(dp899
g61
(dp900
g81
g82
ssg70
g894
sg63
(lp901
S'cmd_options'
p902
asbag56
(g77
g58
NtRp903
(dp904
g61
(dp905
g88
g89
ssg70
g894
sg63
(lp906
S':'
asbag56
(g77
g58
NtRp907
(dp908
g61
(dp909
sg70
g894
sg63
(lp910
g56
(g57
g58
NtRp911
(dp912
g61
(dp913
g69
I4
ssg70
g907
sg63
(lp914
S"<Values at 0xa17704c: {'verbose': False, 'ip': '127.0.0.1', 'shutdown_timeout': 5, 'taskbar': False, 'port': 8000, 'maxthreads': None, 'softcron': False, 'server_name': 'vsvah-laptop', 'bpython': False, 'nogui': False, 'nocron': False, 'extcron': False, 'debuglevel': 30, 'test': None, 'folder': '/home/vsvah/Desktop/Coursework/Sem3/SSAD/web2py', 'config': '', 'import_models': False, 'winservice': '', 'shell': None, 'run': '', 'log_filename': 'httpserver.log', 'args': [''], 'profiler_filename': None, 'ssl_private_key': '', 'password': '<ask>', 'request_queue_size': 5, 'ssl_certificate': '', 'cronjob': False, 'plain': False, 'quiet': False, 'interfaces': None, 'minthreads': None, 'timeout': 10, 'numthreads': None, 'nobanner': False, 'pid_filename': 'httpserver.pid'}>"
p915
asbasbasbag56
(g72
g58
NtRp916
(dp917
g61
(dp918
sg70
g821
sg63
(lp919
g56
(g77
g58
NtRp920
(dp921
g61
(dp922
g81
g82
ssg70
g916
sg63
(lp923
S'db_sessions'
p924
asbag56
(g77
g58
NtRp925
(dp926
g61
(dp927
g88
g89
ssg70
g916
sg63
(lp928
S':'
asbag56
(g77
g58
NtRp929
(dp930
g61
(dp931
sg70
g916
sg63
(lp932
g56
(g57
g58
NtRp933
(dp934
g61
(dp935
g69
I4
ssg70
g929
sg63
(lp936
S'set([])'
p937
asbasbasbag56
(g72
g58
NtRp938
(dp939
g61
(dp940
sg70
g821
sg63
(lp941
g56
(g77
g58
NtRp942
(dp943
g61
(dp944
g81
g82
ssg70
g938
sg63
(lp945
S'debugging'
p946
asbag56
(g77
g58
NtRp947
(dp948
g61
(dp949
g88
g89
ssg70
g938
sg63
(lp950
S':'
asbag56
(g77
g58
NtRp951
(dp952
g61
(dp953
sg70
g938
sg63
(lp954
g56
(g57
g58
NtRp955
(dp956
g61
(dp957
g69
I4
ssg70
g951
sg63
(lp958
g99
asbasbasbag56
(g72
g58
NtRp959
(dp960
g61
(dp961
sg70
g821
sg63
(lp962
g56
(g77
g58
NtRp963
(dp964
g61
(dp965
g81
g82
ssg70
g959
sg63
(lp966
S'gluon_parent'
p967
asbag56
(g77
g58
NtRp968
(dp969
g61
(dp970
g88
g89
ssg70
g959
sg63
(lp971
S':'
asbag56
(g77
g58
NtRp972
(dp973
g61
(dp974
sg70
g959
sg63
(lp975
g56
(g57
g58
NtRp976
(dp977
g61
(dp978
g69
I4
ssg70
g972
sg63
(lp979
S'/home/vsvah/Desktop/Coursework/Sem3/SSAD/web2py'
p980
asbasbasbag56
(g72
g58
NtRp981
(dp982
g61
(dp983
sg70
g821
sg63
(lp984
g56
(g77
g58
NtRp985
(dp986
g61
(dp987
g81
g82
ssg70
g981
sg63
(lp988
S'http_accept'
p989
asbag56
(g77
g58
NtRp990
(dp991
g61
(dp992
g88
g89
ssg70
g981
sg63
(lp993
S':'
asbag56
(g77
g58
NtRp994
(dp995
g61
(dp996
sg70
g981
sg63
(lp997
g56
(g57
g58
NtRp998
(dp999
g61
(dp1000
g69
I4
ssg70
g994
sg63
(lp1001
S'text/html,application/xhtml+xml,application/xml;q=0.9,*/*;q=0.8'
p1002
asbasbasbag56
(g72
g58
NtRp1003
(dp1004
g61
(dp1005
sg70
g821
sg63
(lp1006
g56
(g77
g58
NtRp1007
(dp1008
g61
(dp1009
g81
g82
ssg70
g1003
sg63
(lp1010
S'http_accept_charset'
p1011
asbag56
(g77
g58
NtRp1012
(dp1013
g61
(dp1014
g88
g89
ssg70
g1003
sg63
(lp1015
S':'
asbag56
(g77
g58
NtRp1016
(dp1017
g61
(dp1018
sg70
g1003
sg63
(lp1019
g56
(g57
g58
NtRp1020
(dp1021
g61
(dp1022
g69
I4
ssg70
g1016
sg63
(lp1023
S'ISO-8859-1,utf-8;q=0.7,*;q=0.7'
p1024
asbasbasbag56
(g72
g58
NtRp1025
(dp1026
g61
(dp1027
sg70
g821
sg63
(lp1028
g56
(g77
g58
NtRp1029
(dp1030
g61
(dp1031
g81
g82
ssg70
g1025
sg63
(lp1032
S'http_accept_encoding'
p1033
asbag56
(g77
g58
NtRp1034
(dp1035
g61
(dp1036
g88
g89
ssg70
g1025
sg63
(lp1037
S':'
asbag56
(g77
g58
NtRp1038
(dp1039
g61
(dp1040
sg70
g1025
sg63
(lp1041
g56
(g57
g58
NtRp1042
(dp1043
g61
(dp1044
g69
I4
ssg70
g1038
sg63
(lp1045
S'gzip,deflate'
p1046
asbasbasbag56
(g72
g58
NtRp1047
(dp1048
g61
(dp1049
sg70
g821
sg63
(lp1050
g56
(g77
g58
NtRp1051
(dp1052
g61
(dp1053
g81
g82
ssg70
g1047
sg63
(lp1054
S'http_accept_language'
p1055
asbag56
(g77
g58
NtRp1056
(dp1057
g61
(dp1058
g88
g89
ssg70
g1047
sg63
(lp1059
S':'
asbag56
(g77
g58
NtRp1060
(dp1061
g61
(dp1062
sg70
g1047
sg63
(lp1063
g56
(g57
g58
NtRp1064
(dp1065
g61
(dp1066
g69
I4
ssg70
g1060
sg63
(lp1067
S'en-us,en;q=0.5'
p1068
asbasbasbag56
(g72
g58
NtRp1069
(dp1070
g61
(dp1071
sg70
g821
sg63
(lp1072
g56
(g77
g58
NtRp1073
(dp1074
g61
(dp1075
g81
g82
ssg70
g1069
sg63
(lp1076
S'http_cache_control'
p1077
asbag56
(g77
g58
NtRp1078
(dp1079
g61
(dp1080
g88
g89
ssg70
g1069
sg63
(lp1081
S':'
asbag56
(g77
g58
NtRp1082
(dp1083
g61
(dp1084
sg70
g1069
sg63
(lp1085
g56
(g57
g58
NtRp1086
(dp1087
g61
(dp1088
g69
I4
ssg70
g1082
sg63
(lp1089
S'max-age=0'
p1090
asbasbasbag56
(g72
g58
NtRp1091
(dp1092
g61
(dp1093
sg70
g821
sg63
(lp1094
g56
(g77
g58
NtRp1095
(dp1096
g61
(dp1097
g81
g82
ssg70
g1091
sg63
(lp1098
S'http_connection'
p1099
asbag56
(g77
g58
NtRp1100
(dp1101
g61
(dp1102
g88
g89
ssg70
g1091
sg63
(lp1103
S':'
asbag56
(g77
g58
NtRp1104
(dp1105
g61
(dp1106
sg70
g1091
sg63
(lp1107
g56
(g57
g58
NtRp1108
(dp1109
g61
(dp1110
g69
I4
ssg70
g1104
sg63
(lp1111
S'keep-alive'
p1112
asbasbasbag56
(g72
g58
NtRp1113
(dp1114
g61
(dp1115
sg70
g821
sg63
(lp1116
g56
(g77
g58
NtRp1117
(dp1118
g61
(dp1119
g81
g82
ssg70
g1113
sg63
(lp1120
S'http_cookie'
p1121
asbag56
(g77
g58
NtRp1122
(dp1123
g61
(dp1124
g88
g89
ssg70
g1113
sg63
(lp1125
S':'
asbag56
(g77
g58
NtRp1126
(dp1127
g61
(dp1128
sg70
g1113
sg63
(lp1129
g56
(g57
g58
NtRp1130
(dp1131
g61
(dp1132
g69
I4
ssg70
g1126
sg63
(lp1133
S'session_id_welcome=127.0.0.1-4768e59f-be37-4bf8-bfff-bc793ba4c0eb; session_id_admin=127.0.0.1-e201a2ca-01a5-46de-bfba-f3c3291e2f67; session_id_music_repo=127.0.0.1-0cc5ad7f-61ca-479a-933d-b13352216d24'
p1134
asbasbasbag56
(g72
g58
NtRp1135
(dp1136
g61
(dp1137
sg70
g821
sg63
(lp1138
g56
(g77
g58
NtRp1139
(dp1140
g61
(dp1141
g81
g82
ssg70
g1135
sg63
(lp1142
S'http_host'
p1143
asbag56
(g77
g58
NtRp1144
(dp1145
g61
(dp1146
g88
g89
ssg70
g1135
sg63
(lp1147
S':'
asbag56
(g77
g58
NtRp1148
(dp1149
g61
(dp1150
sg70
g1135
sg63
(lp1151
g56
(g57
g58
NtRp1152
(dp1153
g61
(dp1154
g69
I4
ssg70
g1148
sg63
(lp1155
S'127.0.0.1:8000'
p1156
asbasbasbag56
(g72
g58
NtRp1157
(dp1158
g61
(dp1159
sg70
g821
sg63
(lp1160
g56
(g77
g58
NtRp1161
(dp1162
g61
(dp1163
g81
g82
ssg70
g1157
sg63
(lp1164
S'http_keep_alive'
p1165
asbag56
(g77
g58
NtRp1166
(dp1167
g61
(dp1168
g88
g89
ssg70
g1157
sg63
(lp1169
S':'
asbag56
(g77
g58
NtRp1170
(dp1171
g61
(dp1172
sg70
g1157
sg63
(lp1173
g56
(g57
g58
NtRp1174
(dp1175
g61
(dp1176
g69
I4
ssg70
g1170
sg63
(lp1177
S'115'
p1178
asbasbasbag56
(g72
g58
NtRp1179
(dp1180
g61
(dp1181
sg70
g821
sg63
(lp1182
g56
(g77
g58
NtRp1183
(dp1184
g61
(dp1185
g81
g82
ssg70
g1179
sg63
(lp1186
S'http_referer'
p1187
asbag56
(g77
g58
NtRp1188
(dp1189
g61
(dp1190
g88
g89
ssg70
g1179
sg63
(lp1191
S':'
asbag56
(g77
g58
NtRp1192
(dp1193
g61
(dp1194
sg70
g1179
sg63
(lp1195
g56
(g57
g58
NtRp1196
(dp1197
g61
(dp1198
g69
I4
ssg70
g1192
sg63
(lp1199
S'http://127.0.0.1:8000/Music_Repo/default/display_link'
p1200
asbasbasbag56
(g72
g58
NtRp1201
(dp1202
g61
(dp1203
sg70
g821
sg63
(lp1204
g56
(g77
g58
NtRp1205
(dp1206
g61
(dp1207
g81
g82
ssg70
g1201
sg63
(lp1208
S'http_user_agent'
p1209
asbag56
(g77
g58
NtRp1210
(dp1211
g61
(dp1212
g88
g89
ssg70
g1201
sg63
(lp1213
S':'
asbag56
(g77
g58
NtRp1214
(dp1215
g61
(dp1216
sg70
g1201
sg63
(lp1217
g56
(g57
g58
NtRp1218
(dp1219
g61
(dp1220
g69
I4
ssg70
g1214
sg63
(lp1221
S'Mozilla/5.0 (X11; U; Linux i686; en-US; rv:1.9.2.16) Gecko/20110323 Ubuntu/10.04 (lucid) Firefox/3.6.16'
p1222
asbasbasbag56
(g72
g58
NtRp1223
(dp1224
g61
(dp1225
sg70
g821
sg63
(lp1226
g56
(g77
g58
NtRp1227
(dp1228
g61
(dp1229
g81
g82
ssg70
g1223
sg63
(lp1230
S'is_jython'
p1231
asbag56
(g77
g58
NtRp1232
(dp1233
g61
(dp1234
g88
g89
ssg70
g1223
sg63
(lp1235
S':'
asbag56
(g77
g58
NtRp1236
(dp1237
g61
(dp1238
sg70
g1223
sg63
(lp1239
g56
(g57
g58
NtRp1240
(dp1241
g61
(dp1242
g69
I4
ssg70
g1236
sg63
(lp1243
g99
asbasbasbag56
(g72
g58
NtRp1244
(dp1245
g61
(dp1246
sg70
g821
sg63
(lp1247
g56
(g77
g58
NtRp1248
(dp1249
g61
(dp1250
g81
g82
ssg70
g1244
sg63
(lp1251
S'path_info'
p1252
asbag56
(g77
g58
NtRp1253
(dp1254
g61
(dp1255
g88
g89
ssg70
g1244
sg63
(lp1256
S':'
asbag56
(g77
g58
NtRp1257
(dp1258
g61
(dp1259
sg70
g1244
sg63
(lp1260
g56
(g57
g58
NtRp1261
(dp1262
g61
(dp1263
g69
I4
ssg70
g1257
sg63
(lp1264
S'/Music_Repo/default/display_details'
p1265
asbasbasbag56
(g72
g58
NtRp1266
(dp1267
g61
(dp1268
sg70
g821
sg63
(lp1269
g56
(g77
g58
NtRp1270
(dp1271
g61
(dp1272
g81
g82
ssg70
g1266
sg63
(lp1273
S'query_string'
p1274
asbag56
(g77
g58
NtRp1275
(dp1276
g61
(dp1277
g88
g89
ssg70
g1266
sg63
(lp1278
S':'
asbag56
(g77
g58
NtRp1279
(dp1280
g61
(dp1281
sg70
g1266
sg63
(lp1282
g56
(g57
g58
NtRp1283
(dp1284
g61
(dp1285
g69
I4
ssg70
g1279
sg63
(lp1286
S'idno=1'
p1287
asbasbasbag56
(g72
g58
NtRp1288
(dp1289
g61
(dp1290
sg70
g821
sg63
(lp1291
g56
(g77
g58
NtRp1292
(dp1293
g61
(dp1294
g81
g82
ssg70
g1288
sg63
(lp1295
S'remote_addr'
p1296
asbag56
(g77
g58
NtRp1297
(dp1298
g61
(dp1299
g88
g89
ssg70
g1288
sg63
(lp1300
S':'
asbag56
(g77
g58
NtRp1301
(dp1302
g61
(dp1303
sg70
g1288
sg63
(lp1304
g56
(g57
g58
NtRp1305
(dp1306
g61
(dp1307
g69
I4
ssg70
g1301
sg63
(lp1308
g189
asbasbasbag56
(g72
g58
NtRp1309
(dp1310
g61
(dp1311
sg70
g821
sg63
(lp1312
g56
(g77
g58
NtRp1313
(dp1314
g61
(dp1315
g81
g82
ssg70
g1309
sg63
(lp1316
S'remote_port'
p1317
asbag56
(g77
g58
NtRp1318
(dp1319
g61
(dp1320
g88
g89
ssg70
g1309
sg63
(lp1321
S':'
asbag56
(g77
g58
NtRp1322
(dp1323
g61
(dp1324
sg70
g1309
sg63
(lp1325
g56
(g57
g58
NtRp1326
(dp1327
g61
(dp1328
g69
I4
ssg70
g1322
sg63
(lp1329
S'59416'
p1330
asbasbasbag56
(g72
g58
NtRp1331
(dp1332
g61
(dp1333
sg70
g821
sg63
(lp1334
g56
(g77
g58
NtRp1335
(dp1336
g61
(dp1337
g81
g82
ssg70
g1331
sg63
(lp1338
S'request_method'
p1339
asbag56
(g77
g58
NtRp1340
(dp1341
g61
(dp1342
g88
g89
ssg70
g1331
sg63
(lp1343
S':'
asbag56
(g77
g58
NtRp1344
(dp1345
g61
(dp1346
sg70
g1331
sg63
(lp1347
g56
(g57
g58
NtRp1348
(dp1349
g61
(dp1350
g69
I4
ssg70
g1344
sg63
(lp1351
S'GET'
p1352
asbasbasbag56
(g72
g58
NtRp1353
(dp1354
g61
(dp1355
sg70
g821
sg63
(lp1356
g56
(g77
g58
NtRp1357
(dp1358
g61
(dp1359
g81
g82
ssg70
g1353
sg63
(lp1360
S'script_name'
p1361
asbag56
(g77
g58
NtRp1362
(dp1363
g61
(dp1364
g88
g89
ssg70
g1353
sg63
(lp1365
S':'
asbag56
(g77
g58
NtRp1366
(dp1367
g61
(dp1368
sg70
g1353
sg63
(lp1369
g56
(g57
g58
NtRp1370
(dp1371
g61
(dp1372
g69
I4
ssg70
g1366
sg63
(lp1373
S''
asbasbasbag56
(g72
g58
NtRp1374
(dp1375
g61
(dp1376
sg70
g821
sg63
(lp1377
g56
(g77
g58
NtRp1378
(dp1379
g61
(dp1380
g81
g82
ssg70
g1374
sg63
(lp1381
S'server_name'
p1382
asbag56
(g77
g58
NtRp1383
(dp1384
g61
(dp1385
g88
g89
ssg70
g1374
sg63
(lp1386
S':'
asbag56
(g77
g58
NtRp1387
(dp1388
g61
(dp1389
sg70
g1374
sg63
(lp1390
g56
(g57
g58
NtRp1391
(dp1392
g61
(dp1393
g69
I4
ssg70
g1387
sg63
(lp1394
S'vsvah-laptop'
p1395
asbasbasbag56
(g72
g58
NtRp1396
(dp1397
g61
(dp1398
sg70
g821
sg63
(lp1399
g56
(g77
g58
NtRp1400
(dp1401
g61
(dp1402
g81
g82
ssg70
g1396
sg63
(lp1403
S'server_port'
p1404
asbag56
(g77
g58
NtRp1405
(dp1406
g61
(dp1407
g88
g89
ssg70
g1396
sg63
(lp1408
S':'
asbag56
(g77
g58
NtRp1409
(dp1410
g61
(dp1411
sg70
g1396
sg63
(lp1412
g56
(g57
g58
NtRp1413
(dp1414
g61
(dp1415
g69
I4
ssg70
g1409
sg63
(lp1416
S'8000'
p1417
asbasbasbag56
(g72
g58
NtRp1418
(dp1419
g61
(dp1420
sg70
g821
sg63
(lp1421
g56
(g77
g58
NtRp1422
(dp1423
g61
(dp1424
g81
g82
ssg70
g1418
sg63
(lp1425
S'server_protocol'
p1426
asbag56
(g77
g58
NtRp1427
(dp1428
g61
(dp1429
g88
g89
ssg70
g1418
sg63
(lp1430
S':'
asbag56
(g77
g58
NtRp1431
(dp1432
g61
(dp1433
sg70
g1418
sg63
(lp1434
g56
(g57
g58
NtRp1435
(dp1436
g61
(dp1437
g69
I4
ssg70
g1431
sg63
(lp1438
S'HTTP/1.1'
p1439
asbasbasbag56
(g72
g58
NtRp1440
(dp1441
g61
(dp1442
sg70
g821
sg63
(lp1443
g56
(g77
g58
NtRp1444
(dp1445
g61
(dp1446
g81
g82
ssg70
g1440
sg63
(lp1447
S'server_software'
p1448
asbag56
(g77
g58
NtRp1449
(dp1450
g61
(dp1451
g88
g89
ssg70
g1440
sg63
(lp1452
S':'
asbag56
(g77
g58
NtRp1453
(dp1454
g61
(dp1455
sg70
g1440
sg63
(lp1456
g56
(g57
g58
NtRp1457
(dp1458
g61
(dp1459
g69
I4
ssg70
g1453
sg63
(lp1460
S'Rocket 1.2.2'
p1461
asbasbasbag56
(g72
g58
NtRp1462
(dp1463
g61
(dp1464
sg70
g821
sg63
(lp1465
g56
(g77
g58
NtRp1466
(dp1467
g61
(dp1468
g81
g82
ssg70
g1462
sg63
(lp1469
S'web2py_crontype'
p1470
asbag56
(g77
g58
NtRp1471
(dp1472
g61
(dp1473
g88
g89
ssg70
g1462
sg63
(lp1474
S':'
asbag56
(g77
g58
NtRp1475
(dp1476
g61
(dp1477
sg70
g1462
sg63
(lp1478
g56
(g57
g58
NtRp1479
(dp1480
g61
(dp1481
g69
I4
ssg70
g1475
sg63
(lp1482
S'hard'
p1483
asbasbasbag56
(g72
g58
NtRp1484
(dp1485
g61
(dp1486
sg70
g821
sg63
(lp1487
g56
(g77
g58
NtRp1488
(dp1489
g61
(dp1490
g81
g82
ssg70
g1484
sg63
(lp1491
S'web2py_path'
p1492
asbag56
(g77
g58
NtRp1493
(dp1494
g61
(dp1495
g88
g89
ssg70
g1484
sg63
(lp1496
S':'
asbag56
(g77
g58
NtRp1497
(dp1498
g61
(dp1499
sg70
g1484
sg63
(lp1500
g56
(g57
g58
NtRp1501
(dp1502
g61
(dp1503
g69
I4
ssg70
g1497
sg63
(lp1504
g868
asbasbasbag56
(g72
g58
NtRp1505
(dp1506
g61
(dp1507
sg70
g821
sg63
(lp1508
g56
(g77
g58
NtRp1509
(dp1510
g61
(dp1511
g81
g82
ssg70
g1505
sg63
(lp1512
S'web2py_version'
p1513
asbag56
(g77
g58
NtRp1514
(dp1515
g61
(dp1516
g88
g89
ssg70
g1505
sg63
(lp1517
S':'
asbag56
(g77
g58
NtRp1518
(dp1519
g61
(dp1520
sg70
g1505
sg63
(lp1521
g56
(g57
g58
NtRp1522
(dp1523
g61
(dp1524
g69
I4
ssg70
g1518
sg63
(lp1525
S'Version 1.98.2 (2011-08-04 00:47:09)\n'
p1526
asbasbasbag56
(g72
g58
NtRp1527
(dp1528
g61
(dp1529
sg70
g821
sg63
(lp1530
g56
(g77
g58
NtRp1531
(dp1532
g61
(dp1533
g81
g82
ssg70
g1527
sg63
(lp1534
S'wsgi_errors'
p1535
asbag56
(g77
g58
NtRp1536
(dp1537
g61
(dp1538
g88
g89
ssg70
g1527
sg63
(lp1539
S':'
asbag56
(g77
g58
NtRp1540
(dp1541
g61
(dp1542
sg70
g1527
sg63
(lp1543
g56
(g57
g58
NtRp1544
(dp1545
g61
(dp1546
g69
I4
ssg70
g1540
sg63
(lp1547
S"<open file '<stderr>', mode 'w' at 0xb78110d0>"
p1548
asbasbasbag56
(g72
g58
NtRp1549
(dp1550
g61
(dp1551
sg70
g821
sg63
(lp1552
g56
(g77
g58
NtRp1553
(dp1554
g61
(dp1555
g81
g82
ssg70
g1549
sg63
(lp1556
S'wsgi_file_wrapper'
p1557
asbag56
(g77
g58
NtRp1558
(dp1559
g61
(dp1560
g88
g89
ssg70
g1549
sg63
(lp1561
S':'
asbag56
(g77
g58
NtRp1562
(dp1563
g61
(dp1564
sg70
g1549
sg63
(lp1565
g56
(g57
g58
NtRp1566
(dp1567
g61
(dp1568
g69
I4
ssg70
g1562
sg63
(lp1569
S'<class gluon.rocket.FileWrapper at 0xa07f08c>'
p1570
asbasbasbag56
(g72
g58
NtRp1571
(dp1572
g61
(dp1573
sg70
g821
sg63
(lp1574
g56
(g77
g58
NtRp1575
(dp1576
g61
(dp1577
g81
g82
ssg70
g1571
sg63
(lp1578
S'wsgi_input'
p1579
asbag56
(g77
g58
NtRp1580
(dp1581
g61
(dp1582
g88
g89
ssg70
g1571
sg63
(lp1583
S':'
asbag56
(g77
g58
NtRp1584
(dp1585
g61
(dp1586
sg70
g1571
sg63
(lp1587
g56
(g57
g58
NtRp1588
(dp1589
g61
(dp1590
g69
I4
ssg70
g1584
sg63
(lp1591
S'<socket._fileobject object at 0xa52096c>'
p1592
asbasbasbag56
(g72
g58
NtRp1593
(dp1594
g61
(dp1595
sg70
g821
sg63
(lp1596
g56
(g77
g58
NtRp1597
(dp1598
g61
(dp1599
g81
g82
ssg70
g1593
sg63
(lp1600
S'wsgi_multiprocess'
p1601
asbag56
(g77
g58
NtRp1602
(dp1603
g61
(dp1604
g88
g89
ssg70
g1593
sg63
(lp1605
S':'
asbag56
(g77
g58
NtRp1606
(dp1607
g61
(dp1608
sg70
g1593
sg63
(lp1609
g56
(g57
g58
NtRp1610
(dp1611
g61
(dp1612
g69
I4
ssg70
g1606
sg63
(lp1613
g99
asbasbasbag56
(g72
g58
NtRp1614
(dp1615
g61
(dp1616
sg70
g821
sg63
(lp1617
g56
(g77
g58
NtRp1618
(dp1619
g61
(dp1620
g81
g82
ssg70
g1614
sg63
(lp1621
S'wsgi_multithread'
p1622
asbag56
(g77
g58
NtRp1623
(dp1624
g61
(dp1625
g88
g89
ssg70
g1614
sg63
(lp1626
S':'
asbag56
(g77
g58
NtRp1627
(dp1628
g61
(dp1629
sg70
g1614
sg63
(lp1630
g56
(g57
g58
NtRp1631
(dp1632
g61
(dp1633
g69
I4
ssg70
g1627
sg63
(lp1634
S'True'
p1635
asbasbasbag56
(g72
g58
NtRp1636
(dp1637
g61
(dp1638
sg70
g821
sg63
(lp1639
g56
(g77
g58
NtRp1640
(dp1641
g61
(dp1642
g81
g82
ssg70
g1636
sg63
(lp1643
S'wsgi_run_once'
p1644
asbag56
(g77
g58
NtRp1645
(dp1646
g61
(dp1647
g88
g89
ssg70
g1636
sg63
(lp1648
S':'
asbag56
(g77
g58
NtRp1649
(dp1650
g61
(dp1651
sg70
g1636
sg63
(lp1652
g56
(g57
g58
NtRp1653
(dp1654
g61
(dp1655
g69
I4
ssg70
g1649
sg63
(lp1656
g99
asbasbasbag56
(g72
g58
NtRp1657
(dp1658
g61
(dp1659
sg70
g821
sg63
(lp1660
g56
(g77
g58
NtRp1661
(dp1662
g61
(dp1663
g81
g82
ssg70
g1657
sg63
(lp1664
S'wsgi_url_scheme'
p1665
asbag56
(g77
g58
NtRp1666
(dp1667
g61
(dp1668
g88
g89
ssg70
g1657
sg63
(lp1669
S':'
asbag56
(g77
g58
NtRp1670
(dp1671
g61
(dp1672
sg70
g1657
sg63
(lp1673
g56
(g57
g58
NtRp1674
(dp1675
g61
(dp1676
g69
I4
ssg70
g1670
sg63
(lp1677
S'http'
p1678
asbasbasbag56
(g72
g58
NtRp1679
(dp1680
g61
(dp1681
sg70
g821
sg63
(lp1682
g56
(g77
g58
NtRp1683
(dp1684
g61
(dp1685
g81
g82
ssg70
g1679
sg63
(lp1686
S'wsgi_version'
p1687
asbag56
(g77
g58
NtRp1688
(dp1689
g61
(dp1690
g88
g89
ssg70
g1679
sg63
(lp1691
S':'
asbag56
(g77
g58
NtRp1692
(dp1693
g61
(dp1694
sg70
g1679
sg63
(lp1695
g56
(g57
g58
NtRp1696
(dp1697
g61
(dp1698
g69
I4
ssg70
g1692
sg63
(lp1699
g56
(g65
g58
NtRp1700
(dp1701
g61
(dp1702
g69
I3
ssg70
Nsg63
(lp1703
g56
(g72
g58
NtRp1704
(dp1705
g61
(dp1706
sg70
g1700
sg63
(lp1707
g56
(g77
g58
NtRp1708
(dp1709
g61
(dp1710
sg70
g1704
sg63
(lp1711
g56
(g57
g58
NtRp1712
(dp1713
g61
(dp1714
g69
I3
ssg70
g1708
sg63
(lp1715
S'1'
asbasbasbag56
(g72
g58
NtRp1716
(dp1717
g61
(dp1718
sg70
g1700
sg63
(lp1719
g56
(g77
g58
NtRp1720
(dp1721
g61
(dp1722
sg70
g1716
sg63
(lp1723
g56
(g57
g58
NtRp1724
(dp1725
g61
(dp1726
g69
I3
ssg70
g1720
sg63
(lp1727
S'0'
asbasbasbasbasbasbasbasbasbasbasbag56
(g72
g58
NtRp1728
(dp1729
g61
(dp1730
sg70
g66
sg63
(lp1731
g56
(g77
g58
NtRp1732
(dp1733
g61
(dp1734
g81
g82
ssg70
g1728
sg63
(lp1735
S'extension'
p1736
asbag56
(g77
g58
NtRp1737
(dp1738
g61
(dp1739
g88
g89
ssg70
g1728
sg63
(lp1740
S':'
asbag56
(g77
g58
NtRp1741
(dp1742
g61
(dp1743
sg70
g1728
sg63
(lp1744
g56
(g57
g58
NtRp1745
(dp1746
g61
(dp1747
g69
I5
ssg70
g1741
sg63
(lp1748
S'html'
p1749
asbasbasbag56
(g72
g58
NtRp1750
(dp1751
g61
(dp1752
sg70
g66
sg63
(lp1753
g56
(g77
g58
NtRp1754
(dp1755
g61
(dp1756
g81
g82
ssg70
g1750
sg63
(lp1757
S'folder'
p1758
asbag56
(g77
g58
NtRp1759
(dp1760
g61
(dp1761
g88
g89
ssg70
g1750
sg63
(lp1762
S':'
asbag56
(g77
g58
NtRp1763
(dp1764
g61
(dp1765
sg70
g1750
sg63
(lp1766
g56
(g57
g58
NtRp1767
(dp1768
g61
(dp1769
g69
I5
ssg70
g1763
sg63
(lp1770
S'/home/vsvah/Desktop/Coursework/Sem3/SSAD/web2py/applications/Music_Repo/'
p1771
asbasbasbag56
(g72
g58
NtRp1772
(dp1773
g61
(dp1774
sg70
g66
sg63
(lp1775
g56
(g77
g58
NtRp1776
(dp1777
g61
(dp1778
g81
g82
ssg70
g1772
sg63
(lp1779
S'function'
p1780
asbag56
(g77
g58
NtRp1781
(dp1782
g61
(dp1783
g88
g89
ssg70
g1772
sg63
(lp1784
S':'
asbag56
(g77
g58
NtRp1785
(dp1786
g61
(dp1787
sg70
g1772
sg63
(lp1788
g56
(g57
g58
NtRp1789
(dp1790
g61
(dp1791
g69
I5
ssg70
g1785
sg63
(lp1792
S'display_details'
p1793
asbasbasbag56
(g72
g58
NtRp1794
(dp1795
g61
(dp1796
sg70
g66
sg63
(lp1797
g56
(g77
g58
NtRp1798
(dp1799
g61
(dp1800
g81
g82
ssg70
g1794
sg63
(lp1801
S'get_vars'
p1802
asbag56
(g77
g58
NtRp1803
(dp1804
g61
(dp1805
g88
g89
ssg70
g1794
sg63
(lp1806
S':'
asbag56
(g77
g58
NtRp1807
(dp1808
g61
(dp1809
sg70
g1794
sg63
(lp1810
g56
(g57
g58
NtRp1811
(dp1812
g61
(dp1813
g69
I5
ssg70
g1807
sg63
(lp1814
g56
(g65
g58
NtRp1815
(dp1816
g61
(dp1817
g69
I4
ssg70
Nsg63
(lp1818
g56
(g72
g58
NtRp1819
(dp1820
g61
(dp1821
sg70
g1815
sg63
(lp1822
g56
(g77
g58
NtRp1823
(dp1824
g61
(dp1825
g81
g82
ssg70
g1819
sg63
(lp1826
S'idno'
p1827
asbag56
(g77
g58
NtRp1828
(dp1829
g61
(dp1830
g88
g89
ssg70
g1819
sg63
(lp1831
S':'
asbag56
(g77
g58
NtRp1832
(dp1833
g61
(dp1834
sg70
g1819
sg63
(lp1835
g56
(g57
g58
NtRp1836
(dp1837
g61
(dp1838
g69
I4
ssg70
g1832
sg63
(lp1839
S'1'
asbasbasbasbasbasbasbag56
(g72
g58
NtRp1840
(dp1841
g61
(dp1842
sg70
g66
sg63
(lp1843
g56
(g77
g58
NtRp1844
(dp1845
g61
(dp1846
g81
g82
ssg70
g1840
sg63
(lp1847
S'is_https'
p1848
asbag56
(g77
g58
NtRp1849
(dp1850
g61
(dp1851
g88
g89
ssg70
g1840
sg63
(lp1852
S':'
asbag56
(g77
g58
NtRp1853
(dp1854
g61
(dp1855
sg70
g1840
sg63
(lp1856
g56
(g57
g58
NtRp1857
(dp1858
g61
(dp1859
g69
I5
ssg70
g1853
sg63
(lp1860
g99
asbasbasbag56
(g72
g58
NtRp1861
(dp1862
g61
(dp1863
sg70
g66
sg63
(lp1864
g56
(g77
g58
NtRp1865
(dp1866
g61
(dp1867
g81
g82
ssg70
g1861
sg63
(lp1868
S'is_local'
p1869
asbag56
(g77
g58
NtRp1870
(dp1871
g61
(dp1872
g88
g89
ssg70
g1861
sg63
(lp1873
S':'
asbag56
(g77
g58
NtRp1874
(dp1875
g61
(dp1876
sg70
g1861
sg63
(lp1877
g56
(g57
g58
NtRp1878
(dp1879
g61
(dp1880
g69
I5
ssg70
g1874
sg63
(lp1881
g1635
asbasbasbag56
(g72
g58
NtRp1882
(dp1883
g61
(dp1884
sg70
g66
sg63
(lp1885
g56
(g77
g58
NtRp1886
(dp1887
g61
(dp1888
g81
g82
ssg70
g1882
sg63
(lp1889
S'is_restful'
p1890
asbag56
(g77
g58
NtRp1891
(dp1892
g61
(dp1893
g88
g89
ssg70
g1882
sg63
(lp1894
S':'
asbag56
(g77
g58
NtRp1895
(dp1896
g61
(dp1897
sg70
g1882
sg63
(lp1898
g56
(g57
g58
NtRp1899
(dp1900
g61
(dp1901
g69
I5
ssg70
g1895
sg63
(lp1902
g99
asbasbasbag56
(g72
g58
NtRp1903
(dp1904
g61
(dp1905
sg70
g66
sg63
(lp1906
g56
(g77
g58
NtRp1907
(dp1908
g61
(dp1909
g81
g82
ssg70
g1903
sg63
(lp1910
S'now'
p1911
asbag56
(g77
g58
NtRp1912
(dp1913
g61
(dp1914
g88
g89
ssg70
g1903
sg63
(lp1915
S':'
asbag56
(g77
g58
NtRp1916
(dp1917
g61
(dp1918
sg70
g1903
sg63
(lp1919
g56
(g57
g58
NtRp1920
(dp1921
g61
(dp1922
g69
I5
ssg70
g1916
sg63
(lp1923
S'datetime.datetime(2011, 9, 7, 16, 17, 18, 734987)'
p1924
asbasbasbag56
(g72
g58
NtRp1925
(dp1926
g61
(dp1927
sg70
g66
sg63
(lp1928
g56
(g77
g58
NtRp1929
(dp1930
g61
(dp1931
g81
g82
ssg70
g1925
sg63
(lp1932
S'post_vars'
p1933
asbag56
(g77
g58
NtRp1934
(dp1935
g61
(dp1936
g88
g89
ssg70
g1925
sg63
(lp1937
S':'
asbag56
(g77
g58
NtRp1938
(dp1939
g61
(dp1940
sg70
g1925
sg63
(lp1941
g56
(g57
g58
NtRp1942
(dp1943
g61
(dp1944
g69
I5
ssg70
g1938
sg63
(lp1945
g56
(g65
g58
NtRp1946
(dp1947
g61
(dp1948
g69
I4
ssg70
Nsg63
(lp1949
sbasbasbasbag56
(g72
g58
NtRp1950
(dp1951
g61
(dp1952
sg70
g66
sg63
(lp1953
g56
(g77
g58
NtRp1954
(dp1955
g61
(dp1956
g81
g82
ssg70
g1950
sg63
(lp1957
S'url'
p1958
asbag56
(g77
g58
NtRp1959
(dp1960
g61
(dp1961
g88
g89
ssg70
g1950
sg63
(lp1962
S':'
asbag56
(g77
g58
NtRp1963
(dp1964
g61
(dp1965
sg70
g1950
sg63
(lp1966
g56
(g57
g58
NtRp1967
(dp1968
g61
(dp1969
g69
I5
ssg70
g1963
sg63
(lp1970
S'/Music_Repo/default/display_details'
p1971
asbasbasbag56
(g72
g58
NtRp1972
(dp1973
g61
(dp1974
sg70
g66
sg63
(lp1975
g56
(g77
g58
NtRp1976
(dp1977
g61
(dp1978
g81
g82
ssg70
g1972
sg63
(lp1979
S'uuid'
p1980
asbag56
(g77
g58
NtRp1981
(dp1982
g61
(dp1983
g88
g89
ssg70
g1972
sg63
(lp1984
S':'
asbag56
(g77
g58
NtRp1985
(dp1986
g61
(dp1987
sg70
g1972
sg63
(lp1988
g56
(g57
g58
NtRp1989
(dp1990
g61
(dp1991
g69
I5
ssg70
g1985
sg63
(lp1992
S'Music_Repo/127.0.0.1.2011-09-07.16-17-18.356bbfad-aaa3-4cab-b842-8743e669c30a'
p1993
asbasbasbag56
(g72
g58
NtRp1994
(dp1995
g61
(dp1996
sg70
g66
sg63
(lp1997
g56
(g77
g58
NtRp1998
(dp1999
g61
(dp2000
g81
g82
ssg70
g1994
sg63
(lp2001
S'vars'
p2002
asbag56
(g77
g58
NtRp2003
(dp2004
g61
(dp2005
g88
g89
ssg70
g1994
sg63
(lp2006
S':'
asbag56
(g77
g58
NtRp2007
(dp2008
g61
(dp2009
sg70
g1994
sg63
(lp2010
g56
(g57
g58
NtRp2011
(dp2012
g61
(dp2013
g69
I5
ssg70
g2007
sg63
(lp2014
g56
(g65
g58
NtRp2015
(dp2016
g61
(dp2017
g69
I4
ssg70
Nsg63
(lp2018
g56
(g72
g58
NtRp2019
(dp2020
g61
(dp2021
sg70
g2015
sg63
(lp2022
g56
(g77
g58
NtRp2023
(dp2024
g61
(dp2025
g81
g82
ssg70
g2019
sg63
(lp2026
g1827
asbag56
(g77
g58
NtRp2027
(dp2028
g61
(dp2029
g88
g89
ssg70
g2019
sg63
(lp2030
S':'
asbag56
(g77
g58
NtRp2031
(dp2032
g61
(dp2033
sg70
g2019
sg63
(lp2034
g56
(g57
g58
NtRp2035
(dp2036
g61
(dp2037
g69
I4
ssg70
g2031
sg63
(lp2038
S'1'
asbasbasbasbasbasbasbag56
(g72
g58
NtRp2039
(dp2040
g61
(dp2041
sg70
g66
sg63
(lp2042
g56
(g77
g58
NtRp2043
(dp2044
g61
(dp2045
g81
g82
ssg70
g2039
sg63
(lp2046
S'wsgi'
p2047
asbag56
(g77
g58
NtRp2048
(dp2049
g61
(dp2050
g88
g89
ssg70
g2039
sg63
(lp2051
S':'
asbag56
(g77
g58
NtRp2052
(dp2053
g61
(dp2054
sg70
g2039
sg63
(lp2055
g56
(g57
g58
NtRp2056
(dp2057
g61
(dp2058
g69
I5
ssg70
g2052
sg63
(lp2059
g56
(g65
g58
NtRp2060
(dp2061
g61
(dp2062
g69
I4
ssg70
Nsg63
(lp2063
g56
(g72
g58
NtRp2064
(dp2065
g61
(dp2066
sg70
g2060
sg63
(lp2067
g56
(g77
g58
NtRp2068
(dp2069
g61
(dp2070
g81
g82
ssg70
g2064
sg63
(lp2071
S'environ'
p2072
asbag56
(g77
g58
NtRp2073
(dp2074
g61
(dp2075
g88
g89
ssg70
g2064
sg63
(lp2076
S':'
asbag56
(g77
g58
NtRp2077
(dp2078
g61
(dp2079
sg70
g2064
sg63
(lp2080
g56
(g57
g58
NtRp2081
(dp2082
g61
(dp2083
g69
I4
ssg70
g2077
sg63
(lp2084
g56
(g65
g58
NtRp2085
(dp2086
g61
(dp2087
g69
I3
ssg70
Nsg63
(lp2088
g56
(g72
g58
NtRp2089
(dp2090
g61
(dp2091
sg70
g2085
sg63
(lp2092
g56
(g77
g58
NtRp2093
(dp2094
g61
(dp2095
g81
g82
ssg70
g2089
sg63
(lp2096
S'HTTP_ACCEPT'
p2097
asbag56
(g77
g58
NtRp2098
(dp2099
g61
(dp2100
g88
g89
ssg70
g2089
sg63
(lp2101
S':'
asbag56
(g77
g58
NtRp2102
(dp2103
g61
(dp2104
sg70
g2089
sg63
(lp2105
g56
(g57
g58
NtRp2106
(dp2107
g61
(dp2108
g69
I3
ssg70
g2102
sg63
(lp2109
g1002
asbasbasbag56
(g72
g58
NtRp2110
(dp2111
g61
(dp2112
sg70
g2085
sg63
(lp2113
g56
(g77
g58
NtRp2114
(dp2115
g61
(dp2116
g81
g82
ssg70
g2110
sg63
(lp2117
S'HTTP_ACCEPT_CHARSET'
p2118
asbag56
(g77
g58
NtRp2119
(dp2120
g61
(dp2121
g88
g89
ssg70
g2110
sg63
(lp2122
S':'
asbag56
(g77
g58
NtRp2123
(dp2124
g61
(dp2125
sg70
g2110
sg63
(lp2126
g56
(g57
g58
NtRp2127
(dp2128
g61
(dp2129
g69
I3
ssg70
g2123
sg63
(lp2130
g1024
asbasbasbag56
(g72
g58
NtRp2131
(dp2132
g61
(dp2133
sg70
g2085
sg63
(lp2134
g56
(g77
g58
NtRp2135
(dp2136
g61
(dp2137
g81
g82
ssg70
g2131
sg63
(lp2138
S'HTTP_ACCEPT_ENCODING'
p2139
asbag56
(g77
g58
NtRp2140
(dp2141
g61
(dp2142
g88
g89
ssg70
g2131
sg63
(lp2143
S':'
asbag56
(g77
g58
NtRp2144
(dp2145
g61
(dp2146
sg70
g2131
sg63
(lp2147
g56
(g57
g58
NtRp2148
(dp2149
g61
(dp2150
g69
I3
ssg70
g2144
sg63
(lp2151
g1046
asbasbasbag56
(g72
g58
NtRp2152
(dp2153
g61
(dp2154
sg70
g2085
sg63
(lp2155
g56
(g77
g58
NtRp2156
(dp2157
g61
(dp2158
g81
g82
ssg70
g2152
sg63
(lp2159
S'HTTP_ACCEPT_LANGUAGE'
p2160
asbag56
(g77
g58
NtRp2161
(dp2162
g61
(dp2163
g88
g89
ssg70
g2152
sg63
(lp2164
S':'
asbag56
(g77
g58
NtRp2165
(dp2166
g61
(dp2167
sg70
g2152
sg63
(lp2168
g56
(g57
g58
NtRp2169
(dp2170
g61
(dp2171
g69
I3
ssg70
g2165
sg63
(lp2172
g1068
asbasbasbag56
(g72
g58
NtRp2173
(dp2174
g61
(dp2175
sg70
g2085
sg63
(lp2176
g56
(g77
g58
NtRp2177
(dp2178
g61
(dp2179
g81
g82
ssg70
g2173
sg63
(lp2180
S'HTTP_CACHE_CONTROL'
p2181
asbag56
(g77
g58
NtRp2182
(dp2183
g61
(dp2184
g88
g89
ssg70
g2173
sg63
(lp2185
S':'
asbag56
(g77
g58
NtRp2186
(dp2187
g61
(dp2188
sg70
g2173
sg63
(lp2189
g56
(g57
g58
NtRp2190
(dp2191
g61
(dp2192
g69
I3
ssg70
g2186
sg63
(lp2193
g1090
asbasbasbag56
(g72
g58
NtRp2194
(dp2195
g61
(dp2196
sg70
g2085
sg63
(lp2197
g56
(g77
g58
NtRp2198
(dp2199
g61
(dp2200
g81
g82
ssg70
g2194
sg63
(lp2201
S'HTTP_CONNECTION'
p2202
asbag56
(g77
g58
NtRp2203
(dp2204
g61
(dp2205
g88
g89
ssg70
g2194
sg63
(lp2206
S':'
asbag56
(g77
g58
NtRp2207
(dp2208
g61
(dp2209
sg70
g2194
sg63
(lp2210
g56
(g57
g58
NtRp2211
(dp2212
g61
(dp2213
g69
I3
ssg70
g2207
sg63
(lp2214
g1112
asbasbasbag56
(g72
g58
NtRp2215
(dp2216
g61
(dp2217
sg70
g2085
sg63
(lp2218
g56
(g77
g58
NtRp2219
(dp2220
g61
(dp2221
g81
g82
ssg70
g2215
sg63
(lp2222
S'HTTP_COOKIE'
p2223
asbag56
(g77
g58
NtRp2224
(dp2225
g61
(dp2226
g88
g89
ssg70
g2215
sg63
(lp2227
S':'
asbag56
(g77
g58
NtRp2228
(dp2229
g61
(dp2230
sg70
g2215
sg63
(lp2231
g56
(g57
g58
NtRp2232
(dp2233
g61
(dp2234
g69
I3
ssg70
g2228
sg63
(lp2235
g1134
asbasbasbag56
(g72
g58
NtRp2236
(dp2237
g61
(dp2238
sg70
g2085
sg63
(lp2239
g56
(g77
g58
NtRp2240
(dp2241
g61
(dp2242
g81
g82
ssg70
g2236
sg63
(lp2243
S'HTTP_HOST'
p2244
asbag56
(g77
g58
NtRp2245
(dp2246
g61
(dp2247
g88
g89
ssg70
g2236
sg63
(lp2248
S':'
asbag56
(g77
g58
NtRp2249
(dp2250
g61
(dp2251
sg70
g2236
sg63
(lp2252
g56
(g57
g58
NtRp2253
(dp2254
g61
(dp2255
g69
I3
ssg70
g2249
sg63
(lp2256
g1156
asbasbasbag56
(g72
g58
NtRp2257
(dp2258
g61
(dp2259
sg70
g2085
sg63
(lp2260
g56
(g77
g58
NtRp2261
(dp2262
g61
(dp2263
g81
g82
ssg70
g2257
sg63
(lp2264
S'HTTP_KEEP_ALIVE'
p2265
asbag56
(g77
g58
NtRp2266
(dp2267
g61
(dp2268
g88
g89
ssg70
g2257
sg63
(lp2269
S':'
asbag56
(g77
g58
NtRp2270
(dp2271
g61
(dp2272
sg70
g2257
sg63
(lp2273
g56
(g57
g58
NtRp2274
(dp2275
g61
(dp2276
g69
I3
ssg70
g2270
sg63
(lp2277
g1178
asbasbasbag56
(g72
g58
NtRp2278
(dp2279
g61
(dp2280
sg70
g2085
sg63
(lp2281
g56
(g77
g58
NtRp2282
(dp2283
g61
(dp2284
g81
g82
ssg70
g2278
sg63
(lp2285
S'HTTP_REFERER'
p2286
asbag56
(g77
g58
NtRp2287
(dp2288
g61
(dp2289
g88
g89
ssg70
g2278
sg63
(lp2290
S':'
asbag56
(g77
g58
NtRp2291
(dp2292
g61
(dp2293
sg70
g2278
sg63
(lp2294
g56
(g57
g58
NtRp2295
(dp2296
g61
(dp2297
g69
I3
ssg70
g2291
sg63
(lp2298
g1200
asbasbasbag56
(g72
g58
NtRp2299
(dp2300
g61
(dp2301
sg70
g2085
sg63
(lp2302
g56
(g77
g58
NtRp2303
(dp2304
g61
(dp2305
g81
g82
ssg70
g2299
sg63
(lp2306
S'HTTP_USER_AGENT'
p2307
asbag56
(g77
g58
NtRp2308
(dp2309
g61
(dp2310
g88
g89
ssg70
g2299
sg63
(lp2311
S':'
asbag56
(g77
g58
NtRp2312
(dp2313
g61
(dp2314
sg70
g2299
sg63
(lp2315
g56
(g57
g58
NtRp2316
(dp2317
g61
(dp2318
g69
I3
ssg70
g2312
sg63
(lp2319
g1222
asbasbasbag56
(g72
g58
NtRp2320
(dp2321
g61
(dp2322
sg70
g2085
sg63
(lp2323
g56
(g77
g58
NtRp2324
(dp2325
g61
(dp2326
g81
g82
ssg70
g2320
sg63
(lp2327
S'PATH_INFO'
p2328
asbag56
(g77
g58
NtRp2329
(dp2330
g61
(dp2331
g88
g89
ssg70
g2320
sg63
(lp2332
S':'
asbag56
(g77
g58
NtRp2333
(dp2334
g61
(dp2335
sg70
g2320
sg63
(lp2336
g56
(g57
g58
NtRp2337
(dp2338
g61
(dp2339
g69
I3
ssg70
g2333
sg63
(lp2340
g1265
asbasbasbag56
(g72
g58
NtRp2341
(dp2342
g61
(dp2343
sg70
g2085
sg63
(lp2344
g56
(g77
g58
NtRp2345
(dp2346
g61
(dp2347
g81
g82
ssg70
g2341
sg63
(lp2348
S'QUERY_STRING'
p2349
asbag56
(g77
g58
NtRp2350
(dp2351
g61
(dp2352
g88
g89
ssg70
g2341
sg63
(lp2353
S':'
asbag56
(g77
g58
NtRp2354
(dp2355
g61
(dp2356
sg70
g2341
sg63
(lp2357
g56
(g57
g58
NtRp2358
(dp2359
g61
(dp2360
g69
I3
ssg70
g2354
sg63
(lp2361
g1287
asbasbasbag56
(g72
g58
NtRp2362
(dp2363
g61
(dp2364
sg70
g2085
sg63
(lp2365
g56
(g77
g58
NtRp2366
(dp2367
g61
(dp2368
g81
g82
ssg70
g2362
sg63
(lp2369
S'REMOTE_ADDR'
p2370
asbag56
(g77
g58
NtRp2371
(dp2372
g61
(dp2373
g88
g89
ssg70
g2362
sg63
(lp2374
S':'
asbag56
(g77
g58
NtRp2375
(dp2376
g61
(dp2377
sg70
g2362
sg63
(lp2378
g56
(g57
g58
NtRp2379
(dp2380
g61
(dp2381
g69
I3
ssg70
g2375
sg63
(lp2382
g189
asbasbasbag56
(g72
g58
NtRp2383
(dp2384
g61
(dp2385
sg70
g2085
sg63
(lp2386
g56
(g77
g58
NtRp2387
(dp2388
g61
(dp2389
g81
g82
ssg70
g2383
sg63
(lp2390
S'REMOTE_PORT'
p2391
asbag56
(g77
g58
NtRp2392
(dp2393
g61
(dp2394
g88
g89
ssg70
g2383
sg63
(lp2395
S':'
asbag56
(g77
g58
NtRp2396
(dp2397
g61
(dp2398
sg70
g2383
sg63
(lp2399
g56
(g57
g58
NtRp2400
(dp2401
g61
(dp2402
g69
I3
ssg70
g2396
sg63
(lp2403
g1330
asbasbasbag56
(g72
g58
NtRp2404
(dp2405
g61
(dp2406
sg70
g2085
sg63
(lp2407
g56
(g77
g58
NtRp2408
(dp2409
g61
(dp2410
g81
g82
ssg70
g2404
sg63
(lp2411
S'REQUEST_METHOD'
p2412
asbag56
(g77
g58
NtRp2413
(dp2414
g61
(dp2415
g88
g89
ssg70
g2404
sg63
(lp2416
S':'
asbag56
(g77
g58
NtRp2417
(dp2418
g61
(dp2419
sg70
g2404
sg63
(lp2420
g56
(g57
g58
NtRp2421
(dp2422
g61
(dp2423
g69
I3
ssg70
g2417
sg63
(lp2424
g1352
asbasbasbag56
(g72
g58
NtRp2425
(dp2426
g61
(dp2427
sg70
g2085
sg63
(lp2428
g56
(g77
g58
NtRp2429
(dp2430
g61
(dp2431
g81
g82
ssg70
g2425
sg63
(lp2432
S'SCRIPT_NAME'
p2433
asbag56
(g77
g58
NtRp2434
(dp2435
g61
(dp2436
g88
g89
ssg70
g2425
sg63
(lp2437
S':'
asbag56
(g77
g58
NtRp2438
(dp2439
g61
(dp2440
sg70
g2425
sg63
(lp2441
g56
(g57
g58
NtRp2442
(dp2443
g61
(dp2444
g69
I3
ssg70
g2438
sg63
(lp2445
S''
asbasbasbag56
(g72
g58
NtRp2446
(dp2447
g61
(dp2448
sg70
g2085
sg63
(lp2449
g56
(g77
g58
NtRp2450
(dp2451
g61
(dp2452
g81
g82
ssg70
g2446
sg63
(lp2453
S'SERVER_NAME'
p2454
asbag56
(g77
g58
NtRp2455
(dp2456
g61
(dp2457
g88
g89
ssg70
g2446
sg63
(lp2458
S':'
asbag56
(g77
g58
NtRp2459
(dp2460
g61
(dp2461
sg70
g2446
sg63
(lp2462
g56
(g57
g58
NtRp2463
(dp2464
g61
(dp2465
g69
I3
ssg70
g2459
sg63
(lp2466
g1395
asbasbasbag56
(g72
g58
NtRp2467
(dp2468
g61
(dp2469
sg70
g2085
sg63
(lp2470
g56
(g77
g58
NtRp2471
(dp2472
g61
(dp2473
g81
g82
ssg70
g2467
sg63
(lp2474
S'SERVER_PORT'
p2475
asbag56
(g77
g58
NtRp2476
(dp2477
g61
(dp2478
g88
g89
ssg70
g2467
sg63
(lp2479
S':'
asbag56
(g77
g58
NtRp2480
(dp2481
g61
(dp2482
sg70
g2467
sg63
(lp2483
g56
(g57
g58
NtRp2484
(dp2485
g61
(dp2486
g69
I3
ssg70
g2480
sg63
(lp2487
g1417
asbasbasbag56
(g72
g58
NtRp2488
(dp2489
g61
(dp2490
sg70
g2085
sg63
(lp2491
g56
(g77
g58
NtRp2492
(dp2493
g61
(dp2494
g81
g82
ssg70
g2488
sg63
(lp2495
S'SERVER_PROTOCOL'
p2496
asbag56
(g77
g58
NtRp2497
(dp2498
g61
(dp2499
g88
g89
ssg70
g2488
sg63
(lp2500
S':'
asbag56
(g77
g58
NtRp2501
(dp2502
g61
(dp2503
sg70
g2488
sg63
(lp2504
g56
(g57
g58
NtRp2505
(dp2506
g61
(dp2507
g69
I3
ssg70
g2501
sg63
(lp2508
g1439
asbasbasbag56
(g72
g58
NtRp2509
(dp2510
g61
(dp2511
sg70
g2085
sg63
(lp2512
g56
(g77
g58
NtRp2513
(dp2514
g61
(dp2515
g81
g82
ssg70
g2509
sg63
(lp2516
S'SERVER_SOFTWARE'
p2517
asbag56
(g77
g58
NtRp2518
(dp2519
g61
(dp2520
g88
g89
ssg70
g2509
sg63
(lp2521
S':'
asbag56
(g77
g58
NtRp2522
(dp2523
g61
(dp2524
sg70
g2509
sg63
(lp2525
g56
(g57
g58
NtRp2526
(dp2527
g61
(dp2528
g69
I3
ssg70
g2522
sg63
(lp2529
g1461
asbasbasbag56
(g72
g58
NtRp2530
(dp2531
g61
(dp2532
sg70
g2085
sg63
(lp2533
g56
(g77
g58
NtRp2534
(dp2535
g61
(dp2536
g81
g82
ssg70
g2530
sg63
(lp2537
S'wsgi.errors'
p2538
asbag56
(g77
g58
NtRp2539
(dp2540
g61
(dp2541
g88
g89
ssg70
g2530
sg63
(lp2542
S':'
asbag56
(g77
g58
NtRp2543
(dp2544
g61
(dp2545
sg70
g2530
sg63
(lp2546
g56
(g57
g58
NtRp2547
(dp2548
g61
(dp2549
g69
I3
ssg70
g2543
sg63
(lp2550
S"<open file '<stderr>', mode 'w' at 0xb78110d0>"
p2551
asbasbasbag56
(g72
g58
NtRp2552
(dp2553
g61
(dp2554
sg70
g2085
sg63
(lp2555
g56
(g77
g58
NtRp2556
(dp2557
g61
(dp2558
g81
g82
ssg70
g2552
sg63
(lp2559
S'wsgi.file_wrapper'
p2560
asbag56
(g77
g58
NtRp2561
(dp2562
g61
(dp2563
g88
g89
ssg70
g2552
sg63
(lp2564
S':'
asbag56
(g77
g58
NtRp2565
(dp2566
g61
(dp2567
sg70
g2552
sg63
(lp2568
g56
(g57
g58
NtRp2569
(dp2570
g61
(dp2571
g69
I3
ssg70
g2565
sg63
(lp2572
S'<class gluon.rocket.FileWrapper at 0xa07f08c>'
p2573
asbasbasbag56
(g72
g58
NtRp2574
(dp2575
g61
(dp2576
sg70
g2085
sg63
(lp2577
g56
(g77
g58
NtRp2578
(dp2579
g61
(dp2580
g81
g82
ssg70
g2574
sg63
(lp2581
S'wsgi.input'
p2582
asbag56
(g77
g58
NtRp2583
(dp2584
g61
(dp2585
g88
g89
ssg70
g2574
sg63
(lp2586
S':'
asbag56
(g77
g58
NtRp2587
(dp2588
g61
(dp2589
sg70
g2574
sg63
(lp2590
g56
(g57
g58
NtRp2591
(dp2592
g61
(dp2593
g69
I3
ssg70
g2587
sg63
(lp2594
S'<cStringIO.StringO object at 0xb073960>'
p2595
asbasbasbag56
(g72
g58
NtRp2596
(dp2597
g61
(dp2598
sg70
g2085
sg63
(lp2599
g56
(g77
g58
NtRp2600
(dp2601
g61
(dp2602
g81
g82
ssg70
g2596
sg63
(lp2603
S'wsgi.multiprocess'
p2604
asbag56
(g77
g58
NtRp2605
(dp2606
g61
(dp2607
g88
g89
ssg70
g2596
sg63
(lp2608
S':'
asbag56
(g77
g58
NtRp2609
(dp2610
g61
(dp2611
sg70
g2596
sg63
(lp2612
g56
(g57
g58
NtRp2613
(dp2614
g61
(dp2615
g69
I3
ssg70
g2609
sg63
(lp2616
g99
asbasbasbag56
(g72
g58
NtRp2617
(dp2618
g61
(dp2619
sg70
g2085
sg63
(lp2620
g56
(g77
g58
NtRp2621
(dp2622
g61
(dp2623
g81
g82
ssg70
g2617
sg63
(lp2624
S'wsgi.multithread'
p2625
asbag56
(g77
g58
NtRp2626
(dp2627
g61
(dp2628
g88
g89
ssg70
g2617
sg63
(lp2629
S':'
asbag56
(g77
g58
NtRp2630
(dp2631
g61
(dp2632
sg70
g2617
sg63
(lp2633
g56
(g57
g58
NtRp2634
(dp2635
g61
(dp2636
g69
I3
ssg70
g2630
sg63
(lp2637
g1635
asbasbasbag56
(g72
g58
NtRp2638
(dp2639
g61
(dp2640
sg70
g2085
sg63
(lp2641
g56
(g77
g58
NtRp2642
(dp2643
g61
(dp2644
g81
g82
ssg70
g2638
sg63
(lp2645
S'wsgi.run_once'
p2646
asbag56
(g77
g58
NtRp2647
(dp2648
g61
(dp2649
g88
g89
ssg70
g2638
sg63
(lp2650
S':'
asbag56
(g77
g58
NtRp2651
(dp2652
g61
(dp2653
sg70
g2638
sg63
(lp2654
g56
(g57
g58
NtRp2655
(dp2656
g61
(dp2657
g69
I3
ssg70
g2651
sg63
(lp2658
g99
asbasbasbag56
(g72
g58
NtRp2659
(dp2660
g61
(dp2661
sg70
g2085
sg63
(lp2662
g56
(g77
g58
NtRp2663
(dp2664
g61
(dp2665
g81
g82
ssg70
g2659
sg63
(lp2666
S'wsgi.url_scheme'
p2667
asbag56
(g77
g58
NtRp2668
(dp2669
g61
(dp2670
g88
g89
ssg70
g2659
sg63
(lp2671
S':'
asbag56
(g77
g58
NtRp2672
(dp2673
g61
(dp2674
sg70
g2659
sg63
(lp2675
g56
(g57
g58
NtRp2676
(dp2677
g61
(dp2678
g69
I3
ssg70
g2672
sg63
(lp2679
g1678
asbasbasbag56
(g72
g58
NtRp2680
(dp2681
g61
(dp2682
sg70
g2085
sg63
(lp2683
g56
(g77
g58
NtRp2684
(dp2685
g61
(dp2686
g81
g82
ssg70
g2680
sg63
(lp2687
S'wsgi.version'
p2688
asbag56
(g77
g58
NtRp2689
(dp2690
g61
(dp2691
g88
g89
ssg70
g2680
sg63
(lp2692
S':'
asbag56
(g77
g58
NtRp2693
(dp2694
g61
(dp2695
sg70
g2680
sg63
(lp2696
g56
(g57
g58
NtRp2697
(dp2698
g61
(dp2699
g69
I3
ssg70
g2693
sg63
(lp2700
S'1'
asbasbasbasbasbasbasbasbasbasbasbasbasbsS'frames'
p2701
(lp2702
(dp2703
S'file'
p2704
S'/home/vsvah/Desktop/Coursework/Sem3/SSAD/web2py/gluon/restricted.py'
p2705
sS'dump'
p2706
(dp2707
S'environment'
p2708
S"{'A': <class 'gluon.html.A'>, 'Auth': <class 'gluon.tools.Auth'>, 'B': <class 'gluon.html.B'>, 'BEAUTIFY': <class 'gluon.html.BEAUTIFY'>, 'BODY': <class 'gluon.html.BODY'>, 'BR': <class 'gluon.html.BR'>, 'BUTTON': <class 'gluon.html.BUTTON'>, 'CAT': <class 'gluon.html.CAT'>, 'CENTER': <class 'gluon.html.CENTER'>, 'CLEANUP': <class 'gluon.validators.CLEANUP'>, ...}"
p2709
sS'ccode'
p2710
S'<code object <module> at 0xa6dc968, file "/home/...Repo/views/default/display_details.html", line 1>'
p2711
ssS'lnum'
p2712
I192
sS'lines'
p2713
(dp2714
I192
S'        exec ccode in environment'
p2715
sI193
S'    except HTTP:'
p2716
sI194
S'        raise'
p2717
sI195
S'    except Exception, error:'
p2718
sI196
S'        # XXX Show exception in Wing IDE if running in debugger'
p2719
sI187
S'    try:'
p2720
sI188
S'        if type(code) == types.CodeType:'
p2721
sI189
S'            ccode = code'
p2722
sI190
S'        else:'
p2723
sI191
S'            ccode = compile2(code,layer)'
p2724
ssS'call'
p2725
S'(code=r"left_sidebar_enabled=right_sidebar_enabled=False...t   -->    \\n  </body>\\n</html>\\n\', escape=False)", environment={\'A\': <class \'gluon.html.A\'>, \'Auth\': <class \'gluon.tools.Auth\'>, \'B\': <class \'gluon.html.B\'>, \'BEAUTIFY\': <class \'gluon.html.BEAUTIFY\'>, \'BODY\': <class \'gluon.html.BODY\'>, \'BR\': <class \'gluon.html.BR\'>, \'BUTTON\': <class \'gluon.html.BUTTON\'>, \'CAT\': <class \'gluon.html.CAT\'>, \'CENTER\': <class \'gluon.html.CENTER\'>, \'CLEANUP\': <class \'gluon.validators.CLEANUP\'>, ...}, layer=\'/home/vsvah/Desktop/Coursework/Sem3/SSAD/web2py/...ons/Music_Repo/views/default/display_details.html\')'
p2726
sS'func'
p2727
S'restricted'
p2728
sa(dp2729
g2704
S'/home/vsvah/Desktop/Coursework/Sem3/SSAD/web2py/applications/Music_Repo/views/default/display_details.html'
p2730
sg2706
(dp2731
sg2712
I103
sg2713
(dp2732
I96
S"    response.write('Content Left Sidebar', escape=False)"
p2733
sI97
S"    response.write('\\t\\t  \\n            </div>\\n          </div><!-- left_sidebar -->\\n\\t  ', escape=False)"
p2734
sI98
S'    pass'
p2735
sI99
S'response.write(\'\\n\\n\\t  <!-- content -->\\n\\t  <div id="content" \', escape=False)'
p2736
sI100
S'response.write(XML(style_content))'
p2737
sI101
S"response.write(' >\\n\\t    ', escape=False)"
p2738
sI102
S"response.write('\\n<h3>Songs Details</h3>\\nSong Name &nbsp Singer </br>\\n', escape=False)"
p2739
sI103
S'response.write(i.name,)'
p2740
sI104
S"response.write(' ', escape=False)"
p2741
sI105
S'response.write(i.singer.name)'
p2742
sI106
S"response.write('\\n', escape=False)"
p2743
sI107
S"response.write('\\t\\n\\t  </div>\\n\\t  <!-- content -->\\n\\n\\t  ', escape=False)"
p2744
sI108
S'if right_sidebar_enabled:'
p2745
sI109
S'    response.write(\'\\n          <div id="right_sidebar" \', escape=False)'
p2746
sI110
S'    response.write(XML(right_sidebar_style))'
p2747
sI111
S'    response.write(\' >\\n            <div style="padding: 4px;">\\n              \', escape=False)'
p2748
sI112
S"    response.write('Content Right Sidebar', escape=False)"
p2749
sI113
S"    response.write('\\n            </div>\\n\\t  </div><!-- right_sidebar -->\\n          ', escape=False)"
p2750
sI94
S'    response.write(XML(left_sidebar_style))'
p2751
sI95
S'    response.write(\' >\\n            <div style="padding: 4px;">\\n\\t      \', escape=False)'
p2752
ssg2725
S'()'
p2753
sg2727
S'<module>'
p2754
sasS'pyver'
p2755
S'Python 2.6.5: /usr/bin/python'
p2756
sS'session'
p2757
g56
(g57
g58
NtRp2758
(dp2759
g61
(dp2760
sg63
(lp2761
g56
(g65
g58
NtRp2762
(dp2763
g61
(dp2764
g69
I5
ssg70
Nsg63
(lp2765
g56
(g72
g58
NtRp2766
(dp2767
g61
(dp2768
sg70
g2762
sg63
(lp2769
g56
(g77
g58
NtRp2770
(dp2771
g61
(dp2772
g81
g82
ssg70
g2766
sg63
(lp2773
S'artist'
p2774
asbag56
(g77
g58
NtRp2775
(dp2776
g61
(dp2777
g88
g89
ssg70
g2766
sg63
(lp2778
S':'
asbag56
(g77
g58
NtRp2779
(dp2780
g61
(dp2781
sg70
g2766
sg63
(lp2782
g56
(g57
g58
NtRp2783
(dp2784
g61
(dp2785
g69
I5
ssg70
g2779
sg63
(lp2786
S''
asbasbasbag56
(g72
g58
NtRp2787
(dp2788
g61
(dp2789
sg70
g2762
sg63
(lp2790
g56
(g77
g58
NtRp2791
(dp2792
g61
(dp2793
g81
g82
ssg70
g2787
sg63
(lp2794
S'last_query'
p2795
asbag56
(g77
g58
NtRp2796
(dp2797
g61
(dp2798
g88
g89
ssg70
g2787
sg63
(lp2799
S':'
asbag56
(g77
g58
NtRp2800
(dp2801
g61
(dp2802
sg70
g2787
sg63
(lp2803
g56
(g57
g58
NtRp2804
(dp2805
g61
(dp2806
g69
I5
ssg70
g2800
sg63
(lp2807
S'db.movie.id>0'
p2808
asbasbasbag56
(g72
g58
NtRp2809
(dp2810
g61
(dp2811
sg70
g2762
sg63
(lp2812
g56
(g77
g58
NtRp2813
(dp2814
g61
(dp2815
g81
g82
ssg70
g2809
sg63
(lp2816
S'movie'
p2817
asbag56
(g77
g58
NtRp2818
(dp2819
g61
(dp2820
g88
g89
ssg70
g2809
sg63
(lp2821
S':'
asbag56
(g77
g58
NtRp2822
(dp2823
g61
(dp2824
sg70
g2809
sg63
(lp2825
g56
(g57
g58
NtRp2826
(dp2827
g61
(dp2828
g69
I5
ssg70
g2822
sg63
(lp2829
S'MOVIE'
p2830
asbasbasbasbasbsS'etype'
p2831
S"<type 'exceptions.NameError'>"
p2832
sS'date'
p2833
S'Wed Sep  7 16:17:18 2011'
p2834
sS'response'
p2835
g56
(g57
g58
NtRp2836
(dp2837
g61
(dp2838
sg63
(lp2839
g56
(g65
g58
NtRp2840
(dp2841
g61
(dp2842
g69
I5
ssg70
Nsg63
(lp2843
g56
(g72
g58
NtRp2844
(dp2845
g61
(dp2846
sg70
g2840
sg63
(lp2847
g56
(g77
g58
NtRp2848
(dp2849
g61
(dp2850
g81
g82
ssg70
g2844
sg63
(lp2851
g154
asbag56
(g77
g58
NtRp2852
(dp2853
g61
(dp2854
g88
g89
ssg70
g2844
sg63
(lp2855
S':'
asbag56
(g77
g58
NtRp2856
(dp2857
g61
(dp2858
sg70
g2844
sg63
(lp2859
g56
(g57
g58
NtRp2860
(dp2861
g61
(dp2862
g69
I5
ssg70
g2856
sg63
(lp2863
S'<cStringIO.StringO object at 0xb0738e0>'
p2864
asbasbasbag56
(g72
g58
NtRp2865
(dp2866
g61
(dp2867
sg70
g2840
sg63
(lp2868
g56
(g77
g58
NtRp2869
(dp2870
g61
(dp2871
g81
g82
ssg70
g2865
sg63
(lp2872
g220
asbag56
(g77
g58
NtRp2873
(dp2874
g61
(dp2875
g88
g89
ssg70
g2865
sg63
(lp2876
S':'
asbag56
(g77
g58
NtRp2877
(dp2878
g61
(dp2879
sg70
g2865
sg63
(lp2880
g56
(g57
g58
NtRp2881
(dp2882
g61
(dp2883
g69
I5
ssg70
g2877
sg63
(lp2884
g56
(g65
g58
NtRp2885
(dp2886
g61
(dp2887
g69
I4
ssg70
Nsg63
(lp2888
g56
(g72
g58
NtRp2889
(dp2890
g61
(dp2891
sg70
g2885
sg63
(lp2892
g56
(g77
g58
NtRp2893
(dp2894
g61
(dp2895
g81
g82
ssg70
g2889
sg63
(lp2896
S'session_id_music_repo'
p2897
asbag56
(g77
g58
NtRp2898
(dp2899
g61
(dp2900
g88
g89
ssg70
g2889
sg63
(lp2901
S':'
asbag56
(g77
g58
NtRp2902
(dp2903
g61
(dp2904
sg70
g2889
sg63
(lp2905
g56
(g57
g58
NtRp2906
(dp2907
g61
(dp2908
g69
I4
ssg70
g2902
sg63
(lp2909
g56
(g65
g58
NtRp2910
(dp2911
g61
(dp2912
g69
I3
ssg70
Nsg63
(lp2913
g56
(g72
g58
NtRp2914
(dp2915
g61
(dp2916
sg70
g2910
sg63
(lp2917
g56
(g77
g58
NtRp2918
(dp2919
g61
(dp2920
g81
g82
ssg70
g2914
sg63
(lp2921
g270
asbag56
(g77
g58
NtRp2922
(dp2923
g61
(dp2924
g88
g89
ssg70
g2914
sg63
(lp2925
S':'
asbag56
(g77
g58
NtRp2926
(dp2927
g61
(dp2928
sg70
g2914
sg63
(lp2929
g56
(g57
g58
NtRp2930
(dp2931
g61
(dp2932
g69
I3
ssg70
g2926
sg63
(lp2933
S''
asbasbasbag56
(g72
g58
NtRp2934
(dp2935
g61
(dp2936
sg70
g2910
sg63
(lp2937
g56
(g77
g58
NtRp2938
(dp2939
g61
(dp2940
g81
g82
ssg70
g2934
sg63
(lp2941
g291
asbag56
(g77
g58
NtRp2942
(dp2943
g61
(dp2944
g88
g89
ssg70
g2934
sg63
(lp2945
S':'
asbag56
(g77
g58
NtRp2946
(dp2947
g61
(dp2948
sg70
g2934
sg63
(lp2949
g56
(g57
g58
NtRp2950
(dp2951
g61
(dp2952
g69
I3
ssg70
g2946
sg63
(lp2953
S''
asbasbasbag56
(g72
g58
NtRp2954
(dp2955
g61
(dp2956
sg70
g2910
sg63
(lp2957
g56
(g77
g58
NtRp2958
(dp2959
g61
(dp2960
g81
g82
ssg70
g2954
sg63
(lp2961
g312
asbag56
(g77
g58
NtRp2962
(dp2963
g61
(dp2964
g88
g89
ssg70
g2954
sg63
(lp2965
S':'
asbag56
(g77
g58
NtRp2966
(dp2967
g61
(dp2968
sg70
g2954
sg63
(lp2969
g56
(g57
g58
NtRp2970
(dp2971
g61
(dp2972
g69
I3
ssg70
g2966
sg63
(lp2973
S''
asbasbasbag56
(g72
g58
NtRp2974
(dp2975
g61
(dp2976
sg70
g2910
sg63
(lp2977
g56
(g77
g58
NtRp2978
(dp2979
g61
(dp2980
g81
g82
ssg70
g2974
sg63
(lp2981
g333
asbag56
(g77
g58
NtRp2982
(dp2983
g61
(dp2984
g88
g89
ssg70
g2974
sg63
(lp2985
S':'
asbag56
(g77
g58
NtRp2986
(dp2987
g61
(dp2988
sg70
g2974
sg63
(lp2989
g56
(g57
g58
NtRp2990
(dp2991
g61
(dp2992
g69
I3
ssg70
g2986
sg63
(lp2993
S''
asbasbasbag56
(g72
g58
NtRp2994
(dp2995
g61
(dp2996
sg70
g2910
sg63
(lp2997
g56
(g77
g58
NtRp2998
(dp2999
g61
(dp3000
g81
g82
ssg70
g2994
sg63
(lp3001
g354
asbag56
(g77
g58
NtRp3002
(dp3003
g61
(dp3004
g88
g89
ssg70
g2994
sg63
(lp3005
S':'
asbag56
(g77
g58
NtRp3006
(dp3007
g61
(dp3008
sg70
g2994
sg63
(lp3009
g56
(g57
g58
NtRp3010
(dp3011
g61
(dp3012
g69
I3
ssg70
g3006
sg63
(lp3013
S''
asbasbasbag56
(g72
g58
NtRp3014
(dp3015
g61
(dp3016
sg70
g2910
sg63
(lp3017
g56
(g77
g58
NtRp3018
(dp3019
g61
(dp3020
g81
g82
ssg70
g3014
sg63
(lp3021
g375
asbag56
(g77
g58
NtRp3022
(dp3023
g61
(dp3024
g88
g89
ssg70
g3014
sg63
(lp3025
S':'
asbag56
(g77
g58
NtRp3026
(dp3027
g61
(dp3028
sg70
g3014
sg63
(lp3029
g56
(g57
g58
NtRp3030
(dp3031
g61
(dp3032
g69
I3
ssg70
g3026
sg63
(lp3033
S'/'
asbasbasbag56
(g72
g58
NtRp3034
(dp3035
g61
(dp3036
sg70
g2910
sg63
(lp3037
g56
(g77
g58
NtRp3038
(dp3039
g61
(dp3040
g81
g82
ssg70
g3034
sg63
(lp3041
g396
asbag56
(g77
g58
NtRp3042
(dp3043
g61
(dp3044
g88
g89
ssg70
g3034
sg63
(lp3045
S':'
asbag56
(g77
g58
NtRp3046
(dp3047
g61
(dp3048
sg70
g3034
sg63
(lp3049
g56
(g57
g58
NtRp3050
(dp3051
g61
(dp3052
g69
I3
ssg70
g3046
sg63
(lp3053
S''
asbasbasbag56
(g72
g58
NtRp3054
(dp3055
g61
(dp3056
sg70
g2910
sg63
(lp3057
g56
(g77
g58
NtRp3058
(dp3059
g61
(dp3060
g81
g82
ssg70
g3054
sg63
(lp3061
g417
asbag56
(g77
g58
NtRp3062
(dp3063
g61
(dp3064
g88
g89
ssg70
g3054
sg63
(lp3065
S':'
asbag56
(g77
g58
NtRp3066
(dp3067
g61
(dp3068
sg70
g3054
sg63
(lp3069
g56
(g57
g58
NtRp3070
(dp3071
g61
(dp3072
g69
I3
ssg70
g3066
sg63
(lp3073
S''
asbasbasbasbasbasbasbasbasbasbasbag56
(g72
g58
NtRp3074
(dp3075
g61
(dp3076
sg70
g2840
sg63
(lp3077
g56
(g77
g58
NtRp3078
(dp3079
g61
(dp3080
g81
g82
ssg70
g3074
sg63
(lp3081
S'files'
p3082
asbag56
(g77
g58
NtRp3083
(dp3084
g61
(dp3085
g88
g89
ssg70
g3074
sg63
(lp3086
S':'
asbag56
(g77
g58
NtRp3087
(dp3088
g61
(dp3089
sg70
g3074
sg63
(lp3090
g56
(g57
g58
NtRp3091
(dp3092
g61
(dp3093
g69
I5
ssg70
g3087
sg63
(lp3094
g56
(g65
g58
NtRp3095
(dp3096
g61
(dp3097
g69
I4
ssg70
Nsg63
(lp3098
g56
(g72
g58
NtRp3099
(dp3100
g61
(dp3101
sg70
g3095
sg63
(lp3102
g56
(g77
g58
NtRp3103
(dp3104
g61
(dp3105
sg70
g3099
sg63
(lp3106
g56
(g57
g58
NtRp3107
(dp3108
g61
(dp3109
g69
I4
ssg70
g3103
sg63
(lp3110
S'/Music_Repo/static/js/jquery.js'
p3111
asbasbasbag56
(g72
g58
NtRp3112
(dp3113
g61
(dp3114
sg70
g3095
sg63
(lp3115
g56
(g77
g58
NtRp3116
(dp3117
g61
(dp3118
sg70
g3112
sg63
(lp3119
g56
(g57
g58
NtRp3120
(dp3121
g61
(dp3122
g69
I4
ssg70
g3116
sg63
(lp3123
S'/Music_Repo/static/css/calendar.css'
p3124
asbasbasbag56
(g72
g58
NtRp3125
(dp3126
g61
(dp3127
sg70
g3095
sg63
(lp3128
g56
(g77
g58
NtRp3129
(dp3130
g61
(dp3131
sg70
g3125
sg63
(lp3132
g56
(g57
g58
NtRp3133
(dp3134
g61
(dp3135
g69
I4
ssg70
g3129
sg63
(lp3136
S'/Music_Repo/static/js/calendar.js'
p3137
asbasbasbag56
(g72
g58
NtRp3138
(dp3139
g61
(dp3140
sg70
g3095
sg63
(lp3141
g56
(g77
g58
NtRp3142
(dp3143
g61
(dp3144
sg70
g3138
sg63
(lp3145
g56
(g57
g58
NtRp3146
(dp3147
g61
(dp3148
g69
I4
ssg70
g3142
sg63
(lp3149
S'/Music_Repo/static/css/base.css'
p3150
asbasbasbag56
(g72
g58
NtRp3151
(dp3152
g61
(dp3153
sg70
g3095
sg63
(lp3154
g56
(g77
g58
NtRp3155
(dp3156
g61
(dp3157
sg70
g3151
sg63
(lp3158
g56
(g57
g58
NtRp3159
(dp3160
g61
(dp3161
g69
I4
ssg70
g3155
sg63
(lp3162
S'/Music_Repo/static/css/superfish.css'
p3163
asbasbasbag56
(g72
g58
NtRp3164
(dp3165
g61
(dp3166
sg70
g3095
sg63
(lp3167
g56
(g77
g58
NtRp3168
(dp3169
g61
(dp3170
sg70
g3164
sg63
(lp3171
g56
(g57
g58
NtRp3172
(dp3173
g61
(dp3174
g69
I4
ssg70
g3168
sg63
(lp3175
S'/Music_Repo/static/js/superfish.js'
p3176
asbasbasbasbasbasbasbag56
(g72
g58
NtRp3177
(dp3178
g61
(dp3179
sg70
g2840
sg63
(lp3180
g56
(g77
g58
NtRp3181
(dp3182
g61
(dp3183
g81
g82
ssg70
g3177
sg63
(lp3184
S'flash'
p3185
asbag56
(g77
g58
NtRp3186
(dp3187
g61
(dp3188
g88
g89
ssg70
g3177
sg63
(lp3189
S':'
asbag56
(g77
g58
NtRp3190
(dp3191
g61
(dp3192
sg70
g3177
sg63
(lp3193
g56
(g57
g58
NtRp3194
(dp3195
g61
(dp3196
g69
I5
ssg70
g3190
sg63
(lp3197
S''
asbasbasbag56
(g72
g58
NtRp3198
(dp3199
g61
(dp3200
sg70
g2840
sg63
(lp3201
g56
(g77
g58
NtRp3202
(dp3203
g61
(dp3204
g81
g82
ssg70
g3198
sg63
(lp3205
S'generic_patterns'
p3206
asbag56
(g77
g58
NtRp3207
(dp3208
g61
(dp3209
g88
g89
ssg70
g3198
sg63
(lp3210
S':'
asbag56
(g77
g58
NtRp3211
(dp3212
g61
(dp3213
sg70
g3198
sg63
(lp3214
g56
(g57
g58
NtRp3215
(dp3216
g61
(dp3217
g69
I5
ssg70
g3211
sg63
(lp3218
g56
(g65
g58
NtRp3219
(dp3220
g61
(dp3221
g69
I4
ssg70
Nsg63
(lp3222
g56
(g72
g58
NtRp3223
(dp3224
g61
(dp3225
sg70
g3219
sg63
(lp3226
g56
(g77
g58
NtRp3227
(dp3228
g61
(dp3229
sg70
g3223
sg63
(lp3230
g56
(g57
g58
NtRp3231
(dp3232
g61
(dp3233
g69
I4
ssg70
g3227
sg63
(lp3234
S'*'
asbasbasbasbasbasbasbag56
(g72
g58
NtRp3235
(dp3236
g61
(dp3237
sg70
g2840
sg63
(lp3238
g56
(g77
g58
NtRp3239
(dp3240
g61
(dp3241
g81
g82
ssg70
g3235
sg63
(lp3242
S'headers'
p3243
asbag56
(g77
g58
NtRp3244
(dp3245
g61
(dp3246
g88
g89
ssg70
g3235
sg63
(lp3247
S':'
asbag56
(g77
g58
NtRp3248
(dp3249
g61
(dp3250
sg70
g3235
sg63
(lp3251
g56
(g57
g58
NtRp3252
(dp3253
g61
(dp3254
g69
I5
ssg70
g3248
sg63
(lp3255
g56
(g65
g58
NtRp3256
(dp3257
g61
(dp3258
g69
I4
ssg70
Nsg63
(lp3259
g56
(g72
g58
NtRp3260
(dp3261
g61
(dp3262
sg70
g3256
sg63
(lp3263
g56
(g77
g58
NtRp3264
(dp3265
g61
(dp3266
g81
g82
ssg70
g3260
sg63
(lp3267
S'Cache-Control'
p3268
asbag56
(g77
g58
NtRp3269
(dp3270
g61
(dp3271
g88
g89
ssg70
g3260
sg63
(lp3272
S':'
asbag56
(g77
g58
NtRp3273
(dp3274
g61
(dp3275
sg70
g3260
sg63
(lp3276
g56
(g57
g58
NtRp3277
(dp3278
g61
(dp3279
g69
I4
ssg70
g3273
sg63
(lp3280
S'no-store, no-cache, must-revalidate, post-check=0, pre-check=0'
p3281
asbasbasbag56
(g72
g58
NtRp3282
(dp3283
g61
(dp3284
sg70
g3256
sg63
(lp3285
g56
(g77
g58
NtRp3286
(dp3287
g61
(dp3288
g81
g82
ssg70
g3282
sg63
(lp3289
S'Content-Type'
p3290
asbag56
(g77
g58
NtRp3291
(dp3292
g61
(dp3293
g88
g89
ssg70
g3282
sg63
(lp3294
S':'
asbag56
(g77
g58
NtRp3295
(dp3296
g61
(dp3297
sg70
g3282
sg63
(lp3298
g56
(g57
g58
NtRp3299
(dp3300
g61
(dp3301
g69
I4
ssg70
g3295
sg63
(lp3302
S'text/html; charset=utf-8'
p3303
asbasbasbag56
(g72
g58
NtRp3304
(dp3305
g61
(dp3306
sg70
g3256
sg63
(lp3307
g56
(g77
g58
NtRp3308
(dp3309
g61
(dp3310
g81
g82
ssg70
g3304
sg63
(lp3311
S'Expires'
p3312
asbag56
(g77
g58
NtRp3313
(dp3314
g61
(dp3315
g88
g89
ssg70
g3304
sg63
(lp3316
S':'
asbag56
(g77
g58
NtRp3317
(dp3318
g61
(dp3319
sg70
g3304
sg63
(lp3320
g56
(g57
g58
NtRp3321
(dp3322
g61
(dp3323
g69
I4
ssg70
g3317
sg63
(lp3324
S'Wed, 07 Sep 2011 10:47:18 GMT'
p3325
asbasbasbag56
(g72
g58
NtRp3326
(dp3327
g61
(dp3328
sg70
g3256
sg63
(lp3329
g56
(g77
g58
NtRp3330
(dp3331
g61
(dp3332
g81
g82
ssg70
g3326
sg63
(lp3333
S'Pragma'
p3334
asbag56
(g77
g58
NtRp3335
(dp3336
g61
(dp3337
g88
g89
ssg70
g3326
sg63
(lp3338
S':'
asbag56
(g77
g58
NtRp3339
(dp3340
g61
(dp3341
sg70
g3326
sg63
(lp3342
g56
(g57
g58
NtRp3343
(dp3344
g61
(dp3345
g69
I4
ssg70
g3339
sg63
(lp3346
S'no-cache'
p3347
asbasbasbag56
(g72
g58
NtRp3348
(dp3349
g61
(dp3350
sg70
g3256
sg63
(lp3351
g56
(g77
g58
NtRp3352
(dp3353
g61
(dp3354
g81
g82
ssg70
g3348
sg63
(lp3355
S'X-Powered-By'
p3356
asbag56
(g77
g58
NtRp3357
(dp3358
g61
(dp3359
g88
g89
ssg70
g3348
sg63
(lp3360
S':'
asbag56
(g77
g58
NtRp3361
(dp3362
g61
(dp3363
sg70
g3348
sg63
(lp3364
g56
(g57
g58
NtRp3365
(dp3366
g61
(dp3367
g69
I4
ssg70
g3361
sg63
(lp3368
S'web2py'
p3369
asbasbasbasbasbasbasbag56
(g72
g58
NtRp3370
(dp3371
g61
(dp3372
sg70
g2840
sg63
(lp3373
g56
(g77
g58
NtRp3374
(dp3375
g61
(dp3376
g81
g82
ssg70
g3370
sg63
(lp3377
S'menu'
p3378
asbag56
(g77
g58
NtRp3379
(dp3380
g61
(dp3381
g88
g89
ssg70
g3370
sg63
(lp3382
S':'
asbag56
(g77
g58
NtRp3383
(dp3384
g61
(dp3385
sg70
g3370
sg63
(lp3386
g56
(g57
g58
NtRp3387
(dp3388
g61
(dp3389
g69
I5
ssg70
g3383
sg63
(lp3390
g56
(g65
g58
NtRp3391
(dp3392
g61
(dp3393
g69
I4
ssg70
Nsg63
(lp3394
g56
(g72
g58
NtRp3395
(dp3396
g61
(dp3397
sg70
g3391
sg63
(lp3398
g56
(g77
g58
NtRp3399
(dp3400
g61
(dp3401
sg70
g3395
sg63
(lp3402
g56
(g57
g58
NtRp3403
(dp3404
g61
(dp3405
g69
I4
ssg70
g3399
sg63
(lp3406
g56
(g65
g58
NtRp3407
(dp3408
g61
(dp3409
g69
I3
ssg70
Nsg63
(lp3410
g56
(g72
g58
NtRp3411
(dp3412
g61
(dp3413
sg70
g3407
sg63
(lp3414
g56
(g77
g58
NtRp3415
(dp3416
g61
(dp3417
sg70
g3411
sg63
(lp3418
g56
(g57
g58
NtRp3419
(dp3420
g61
(dp3421
g69
I3
ssg70
g3415
sg63
(lp3422
cgluon.languages
lazyT_unpickle
p3423
(S's\x04\x00\x00\x00Home'
tRp3424
asbasbasbag56
(g72
g58
NtRp3425
(dp3426
g61
(dp3427
sg70
g3407
sg63
(lp3428
g56
(g77
g58
NtRp3429
(dp3430
g61
(dp3431
sg70
g3425
sg63
(lp3432
g56
(g57
g58
NtRp3433
(dp3434
g61
(dp3435
g69
I3
ssg70
g3429
sg63
(lp3436
g99
asbasbasbag56
(g72
g58
NtRp3437
(dp3438
g61
(dp3439
sg70
g3407
sg63
(lp3440
g56
(g77
g58
NtRp3441
(dp3442
g61
(dp3443
sg70
g3437
sg63
(lp3444
g56
(g57
g58
NtRp3445
(dp3446
g61
(dp3447
g69
I3
ssg70
g3441
sg63
(lp3448
S'/Music_Repo/default/index'
p3449
asbasbasbag56
(g72
g58
NtRp3450
(dp3451
g61
(dp3452
sg70
g3407
sg63
(lp3453
g56
(g77
g58
NtRp3454
(dp3455
g61
(dp3456
sg70
g3450
sg63
(lp3457
g56
(g57
g58
NtRp3458
(dp3459
g61
(dp3460
g69
I3
ssg70
g3454
sg63
(lp3461
g56
(g65
g58
NtRp3462
(dp3463
g61
(dp3464
g69
I2
ssg70
Nsg63
(lp3465
sbasbasbasbasbasbasbasbag56
(g72
g58
NtRp3466
(dp3467
g61
(dp3468
sg70
g3391
sg63
(lp3469
g56
(g77
g58
NtRp3470
(dp3471
g61
(dp3472
sg70
g3466
sg63
(lp3473
g56
(g57
g58
NtRp3474
(dp3475
g61
(dp3476
g69
I4
ssg70
g3470
sg63
(lp3477
g56
(g65
g58
NtRp3478
(dp3479
g61
(dp3480
g69
I3
ssg70
Nsg63
(lp3481
g56
(g72
g58
NtRp3482
(dp3483
g61
(dp3484
sg70
g3478
sg63
(lp3485
g56
(g77
g58
NtRp3486
(dp3487
g61
(dp3488
sg70
g3482
sg63
(lp3489
g56
(g57
g58
NtRp3490
(dp3491
g61
(dp3492
g69
I3
ssg70
g3486
sg63
(lp3493
g3423
(S's\x08\x00\x00\x00This App'
tRp3494
asbasbasbag56
(g72
g58
NtRp3495
(dp3496
g61
(dp3497
sg70
g3478
sg63
(lp3498
g56
(g77
g58
NtRp3499
(dp3500
g61
(dp3501
sg70
g3495
sg63
(lp3502
g56
(g57
g58
NtRp3503
(dp3504
g61
(dp3505
g69
I3
ssg70
g3499
sg63
(lp3506
g99
asbasbasbag56
(g72
g58
NtRp3507
(dp3508
g61
(dp3509
sg70
g3478
sg63
(lp3510
g56
(g77
g58
NtRp3511
(dp3512
g61
(dp3513
sg70
g3507
sg63
(lp3514
g56
(g57
g58
NtRp3515
(dp3516
g61
(dp3517
g69
I3
ssg70
g3511
sg63
(lp3518
S'/admin/default/design/Music_Repo'
p3519
asbasbasbag56
(g72
g58
NtRp3520
(dp3521
g61
(dp3522
sg70
g3478
sg63
(lp3523
g56
(g77
g58
NtRp3524
(dp3525
g61
(dp3526
sg70
g3520
sg63
(lp3527
g56
(g57
g58
NtRp3528
(dp3529
g61
(dp3530
g69
I3
ssg70
g3524
sg63
(lp3531
g56
(g65
g58
NtRp3532
(dp3533
g61
(dp3534
g69
I2
ssg70
Nsg63
(lp3535
g56
(g72
g58
NtRp3536
(dp3537
g61
(dp3538
sg70
g3532
sg63
(lp3539
g56
(g77
g58
NtRp3540
(dp3541
g61
(dp3542
sg70
g3536
sg63
(lp3543
g56
(g57
g58
NtRp3544
(dp3545
g61
(dp3546
g69
I2
ssg70
g3540
sg63
(lp3547
g56
(g65
g58
NtRp3548
(dp3549
g61
(dp3550
g69
I1
ssg70
Nsg63
(lp3551
g56
(g72
g58
NtRp3552
(dp3553
g61
(dp3554
sg70
g3548
sg63
(lp3555
g56
(g77
g58
NtRp3556
(dp3557
g61
(dp3558
sg70
g3552
sg63
(lp3559
g56
(g57
g58
NtRp3560
(dp3561
g61
(dp3562
g69
I1
ssg70
g3556
sg63
(lp3563
g3423
(S's\n\x00\x00\x00Controller'
tRp3564
asbasbasbag56
(g72
g58
NtRp3565
(dp3566
g61
(dp3567
sg70
g3548
sg63
(lp3568
g56
(g77
g58
NtRp3569
(dp3570
g61
(dp3571
sg70
g3565
sg63
(lp3572
g56
(g57
g58
NtRp3573
(dp3574
g61
(dp3575
g69
I1
ssg70
g3569
sg63
(lp3576
I00
asbasbasbag56
(g72
g58
NtRp3577
(dp3578
g61
(dp3579
sg70
g3548
sg63
(lp3580
g56
(g77
g58
NtRp3581
(dp3582
g61
(dp3583
sg70
g3577
sg63
(lp3584
g56
(g57
g58
NtRp3585
(dp3586
g61
(dp3587
g69
I1
ssg70
g3581
sg63
(lp3588
S'/admin/default/edit/Music_Repo/controllers/default.py'
p3589
asbasbasbasbasbasbasbag56
(g72
g58
NtRp3590
(dp3591
g61
(dp3592
sg70
g3532
sg63
(lp3593
g56
(g77
g58
NtRp3594
(dp3595
g61
(dp3596
sg70
g3590
sg63
(lp3597
g56
(g57
g58
NtRp3598
(dp3599
g61
(dp3600
g69
I2
ssg70
g3594
sg63
(lp3601
g56
(g65
g58
NtRp3602
(dp3603
g61
(dp3604
g69
I1
ssg70
Nsg63
(lp3605
g56
(g72
g58
NtRp3606
(dp3607
g61
(dp3608
sg70
g3602
sg63
(lp3609
g56
(g77
g58
NtRp3610
(dp3611
g61
(dp3612
sg70
g3606
sg63
(lp3613
g56
(g57
g58
NtRp3614
(dp3615
g61
(dp3616
g69
I1
ssg70
g3610
sg63
(lp3617
g3423
(S's\x04\x00\x00\x00View'
tRp3618
asbasbasbag56
(g72
g58
NtRp3619
(dp3620
g61
(dp3621
sg70
g3602
sg63
(lp3622
g56
(g77
g58
NtRp3623
(dp3624
g61
(dp3625
sg70
g3619
sg63
(lp3626
g56
(g57
g58
NtRp3627
(dp3628
g61
(dp3629
g69
I1
ssg70
g3623
sg63
(lp3630
I00
asbasbasbag56
(g72
g58
NtRp3631
(dp3632
g61
(dp3633
sg70
g3602
sg63
(lp3634
g56
(g77
g58
NtRp3635
(dp3636
g61
(dp3637
sg70
g3631
sg63
(lp3638
g56
(g57
g58
NtRp3639
(dp3640
g61
(dp3641
g69
I1
ssg70
g3635
sg63
(lp3642
S'/admin/default/edit/Music_Repo/views/default/display_details.html'
p3643
asbasbasbasbasbasbasbag56
(g72
g58
NtRp3644
(dp3645
g61
(dp3646
sg70
g3532
sg63
(lp3647
g56
(g77
g58
NtRp3648
(dp3649
g61
(dp3650
sg70
g3644
sg63
(lp3651
g56
(g57
g58
NtRp3652
(dp3653
g61
(dp3654
g69
I2
ssg70
g3648
sg63
(lp3655
g56
(g65
g58
NtRp3656
(dp3657
g61
(dp3658
g69
I1
ssg70
Nsg63
(lp3659
g56
(g72
g58
NtRp3660
(dp3661
g61
(dp3662
sg70
g3656
sg63
(lp3663
g56
(g77
g58
NtRp3664
(dp3665
g61
(dp3666
sg70
g3660
sg63
(lp3667
g56
(g57
g58
NtRp3668
(dp3669
g61
(dp3670
g69
I1
ssg70
g3664
sg63
(lp3671
g3423
(S's\x06\x00\x00\x00Layout'
tRp3672
asbasbasbag56
(g72
g58
NtRp3673
(dp3674
g61
(dp3675
sg70
g3656
sg63
(lp3676
g56
(g77
g58
NtRp3677
(dp3678
g61
(dp3679
sg70
g3673
sg63
(lp3680
g56
(g57
g58
NtRp3681
(dp3682
g61
(dp3683
g69
I1
ssg70
g3677
sg63
(lp3684
I00
asbasbasbag56
(g72
g58
NtRp3685
(dp3686
g61
(dp3687
sg70
g3656
sg63
(lp3688
g56
(g77
g58
NtRp3689
(dp3690
g61
(dp3691
sg70
g3685
sg63
(lp3692
g56
(g57
g58
NtRp3693
(dp3694
g61
(dp3695
g69
I1
ssg70
g3689
sg63
(lp3696
S'/admin/default/edit/Music_Repo/views/layout.html'
p3697
asbasbasbasbasbasbasbag56
(g72
g58
NtRp3698
(dp3699
g61
(dp3700
sg70
g3532
sg63
(lp3701
g56
(g77
g58
NtRp3702
(dp3703
g61
(dp3704
sg70
g3698
sg63
(lp3705
g56
(g57
g58
NtRp3706
(dp3707
g61
(dp3708
g69
I2
ssg70
g3702
sg63
(lp3709
g56
(g65
g58
NtRp3710
(dp3711
g61
(dp3712
g69
I1
ssg70
Nsg63
(lp3713
g56
(g72
g58
NtRp3714
(dp3715
g61
(dp3716
sg70
g3710
sg63
(lp3717
g56
(g77
g58
NtRp3718
(dp3719
g61
(dp3720
sg70
g3714
sg63
(lp3721
g56
(g57
g58
NtRp3722
(dp3723
g61
(dp3724
g69
I1
ssg70
g3718
sg63
(lp3725
g3423
(S's\n\x00\x00\x00Stylesheet'
tRp3726
asbasbasbag56
(g72
g58
NtRp3727
(dp3728
g61
(dp3729
sg70
g3710
sg63
(lp3730
g56
(g77
g58
NtRp3731
(dp3732
g61
(dp3733
sg70
g3727
sg63
(lp3734
g56
(g57
g58
NtRp3735
(dp3736
g61
(dp3737
g69
I1
ssg70
g3731
sg63
(lp3738
I00
asbasbasbag56
(g72
g58
NtRp3739
(dp3740
g61
(dp3741
sg70
g3710
sg63
(lp3742
g56
(g77
g58
NtRp3743
(dp3744
g61
(dp3745
sg70
g3739
sg63
(lp3746
g56
(g57
g58
NtRp3747
(dp3748
g61
(dp3749
g69
I1
ssg70
g3743
sg63
(lp3750
S'/admin/default/edit/Music_Repo/static/base.css'
p3751
asbasbasbasbasbasbasbag56
(g72
g58
NtRp3752
(dp3753
g61
(dp3754
sg70
g3532
sg63
(lp3755
g56
(g77
g58
NtRp3756
(dp3757
g61
(dp3758
sg70
g3752
sg63
(lp3759
g56
(g57
g58
NtRp3760
(dp3761
g61
(dp3762
g69
I2
ssg70
g3756
sg63
(lp3763
g56
(g65
g58
NtRp3764
(dp3765
g61
(dp3766
g69
I1
ssg70
Nsg63
(lp3767
g56
(g72
g58
NtRp3768
(dp3769
g61
(dp3770
sg70
g3764
sg63
(lp3771
g56
(g77
g58
NtRp3772
(dp3773
g61
(dp3774
sg70
g3768
sg63
(lp3775
g56
(g57
g58
NtRp3776
(dp3777
g61
(dp3778
g69
I1
ssg70
g3772
sg63
(lp3779
g3423
(S's\x08\x00\x00\x00DB Model'
tRp3780
asbasbasbag56
(g72
g58
NtRp3781
(dp3782
g61
(dp3783
sg70
g3764
sg63
(lp3784
g56
(g77
g58
NtRp3785
(dp3786
g61
(dp3787
sg70
g3781
sg63
(lp3788
g56
(g57
g58
NtRp3789
(dp3790
g61
(dp3791
g69
I1
ssg70
g3785
sg63
(lp3792
I00
asbasbasbag56
(g72
g58
NtRp3793
(dp3794
g61
(dp3795
sg70
g3764
sg63
(lp3796
g56
(g77
g58
NtRp3797
(dp3798
g61
(dp3799
sg70
g3793
sg63
(lp3800
g56
(g57
g58
NtRp3801
(dp3802
g61
(dp3803
g69
I1
ssg70
g3797
sg63
(lp3804
S'/admin/default/edit/Music_Repo/models/db.py'
p3805
asbasbasbasbasbasbasbag56
(g72
g58
NtRp3806
(dp3807
g61
(dp3808
sg70
g3532
sg63
(lp3809
g56
(g77
g58
NtRp3810
(dp3811
g61
(dp3812
sg70
g3806
sg63
(lp3813
g56
(g57
g58
NtRp3814
(dp3815
g61
(dp3816
g69
I2
ssg70
g3810
sg63
(lp3817
g56
(g65
g58
NtRp3818
(dp3819
g61
(dp3820
g69
I1
ssg70
Nsg63
(lp3821
g56
(g72
g58
NtRp3822
(dp3823
g61
(dp3824
sg70
g3818
sg63
(lp3825
g56
(g77
g58
NtRp3826
(dp3827
g61
(dp3828
sg70
g3822
sg63
(lp3829
g56
(g57
g58
NtRp3830
(dp3831
g61
(dp3832
g69
I1
ssg70
g3826
sg63
(lp3833
g3423
(S's\n\x00\x00\x00Menu Model'
tRp3834
asbasbasbag56
(g72
g58
NtRp3835
(dp3836
g61
(dp3837
sg70
g3818
sg63
(lp3838
g56
(g77
g58
NtRp3839
(dp3840
g61
(dp3841
sg70
g3835
sg63
(lp3842
g56
(g57
g58
NtRp3843
(dp3844
g61
(dp3845
g69
I1
ssg70
g3839
sg63
(lp3846
I00
asbasbasbag56
(g72
g58
NtRp3847
(dp3848
g61
(dp3849
sg70
g3818
sg63
(lp3850
g56
(g77
g58
NtRp3851
(dp3852
g61
(dp3853
sg70
g3847
sg63
(lp3854
g56
(g57
g58
NtRp3855
(dp3856
g61
(dp3857
g69
I1
ssg70
g3851
sg63
(lp3858
S'/admin/default/edit/Music_Repo/models/menu.py'
p3859
asbasbasbasbasbasbasbag56
(g72
g58
NtRp3860
(dp3861
g61
(dp3862
sg70
g3532
sg63
(lp3863
g56
(g77
g58
NtRp3864
(dp3865
g61
(dp3866
sg70
g3860
sg63
(lp3867
g56
(g57
g58
NtRp3868
(dp3869
g61
(dp3870
g69
I2
ssg70
g3864
sg63
(lp3871
g56
(g65
g58
NtRp3872
(dp3873
g61
(dp3874
g69
I1
ssg70
Nsg63
(lp3875
g56
(g72
g58
NtRp3876
(dp3877
g61
(dp3878
sg70
g3872
sg63
(lp3879
g56
(g77
g58
NtRp3880
(dp3881
g61
(dp3882
sg70
g3876
sg63
(lp3883
g56
(g57
g58
NtRp3884
(dp3885
g61
(dp3886
g69
I1
ssg70
g3880
sg63
(lp3887
g3423
(S's\x08\x00\x00\x00Database'
tRp3888
asbasbasbag56
(g72
g58
NtRp3889
(dp3890
g61
(dp3891
sg70
g3872
sg63
(lp3892
g56
(g77
g58
NtRp3893
(dp3894
g61
(dp3895
sg70
g3889
sg63
(lp3896
g56
(g57
g58
NtRp3897
(dp3898
g61
(dp3899
g69
I1
ssg70
g3893
sg63
(lp3900
I00
asbasbasbag56
(g72
g58
NtRp3901
(dp3902
g61
(dp3903
sg70
g3872
sg63
(lp3904
g56
(g77
g58
NtRp3905
(dp3906
g61
(dp3907
sg70
g3901
sg63
(lp3908
g56
(g57
g58
NtRp3909
(dp3910
g61
(dp3911
g69
I1
ssg70
g3905
sg63
(lp3912
S'/Music_Repo/appadmin/index'
p3913
asbasbasbasbasbasbasbag56
(g72
g58
NtRp3914
(dp3915
g61
(dp3916
sg70
g3532
sg63
(lp3917
g56
(g77
g58
NtRp3918
(dp3919
g61
(dp3920
sg70
g3914
sg63
(lp3921
g56
(g57
g58
NtRp3922
(dp3923
g61
(dp3924
g69
I2
ssg70
g3918
sg63
(lp3925
g56
(g65
g58
NtRp3926
(dp3927
g61
(dp3928
g69
I1
ssg70
Nsg63
(lp3929
g56
(g72
g58
NtRp3930
(dp3931
g61
(dp3932
sg70
g3926
sg63
(lp3933
g56
(g77
g58
NtRp3934
(dp3935
g61
(dp3936
sg70
g3930
sg63
(lp3937
g56
(g57
g58
NtRp3938
(dp3939
g61
(dp3940
g69
I1
ssg70
g3934
sg63
(lp3941
g3423
(S's\x06\x00\x00\x00Errors'
tRp3942
asbasbasbag56
(g72
g58
NtRp3943
(dp3944
g61
(dp3945
sg70
g3926
sg63
(lp3946
g56
(g77
g58
NtRp3947
(dp3948
g61
(dp3949
sg70
g3943
sg63
(lp3950
g56
(g57
g58
NtRp3951
(dp3952
g61
(dp3953
g69
I1
ssg70
g3947
sg63
(lp3954
I00
asbasbasbag56
(g72
g58
NtRp3955
(dp3956
g61
(dp3957
sg70
g3926
sg63
(lp3958
g56
(g77
g58
NtRp3959
(dp3960
g61
(dp3961
sg70
g3955
sg63
(lp3962
g56
(g57
g58
NtRp3963
(dp3964
g61
(dp3965
g69
I1
ssg70
g3959
sg63
(lp3966
S'/admin/default/errors/Music_Repo'
p3967
asbasbasbasbasbasbasbag56
(g72
g58
NtRp3968
(dp3969
g61
(dp3970
sg70
g3532
sg63
(lp3971
g56
(g77
g58
NtRp3972
(dp3973
g61
(dp3974
sg70
g3968
sg63
(lp3975
g56
(g57
g58
NtRp3976
(dp3977
g61
(dp3978
g69
I2
ssg70
g3972
sg63
(lp3979
g56
(g65
g58
NtRp3980
(dp3981
g61
(dp3982
g69
I1
ssg70
Nsg63
(lp3983
g56
(g72
g58
NtRp3984
(dp3985
g61
(dp3986
sg70
g3980
sg63
(lp3987
g56
(g77
g58
NtRp3988
(dp3989
g61
(dp3990
sg70
g3984
sg63
(lp3991
g56
(g57
g58
NtRp3992
(dp3993
g61
(dp3994
g69
I1
ssg70
g3988
sg63
(lp3995
g3423
(S's\x05\x00\x00\x00About'
tRp3996
asbasbasbag56
(g72
g58
NtRp3997
(dp3998
g61
(dp3999
sg70
g3980
sg63
(lp4000
g56
(g77
g58
NtRp4001
(dp4002
g61
(dp4003
sg70
g3997
sg63
(lp4004
g56
(g57
g58
NtRp4005
(dp4006
g61
(dp4007
g69
I1
ssg70
g4001
sg63
(lp4008
I00
asbasbasbag56
(g72
g58
NtRp4009
(dp4010
g61
(dp4011
sg70
g3980
sg63
(lp4012
g56
(g77
g58
NtRp4013
(dp4014
g61
(dp4015
sg70
g4009
sg63
(lp4016
g56
(g57
g58
NtRp4017
(dp4018
g61
(dp4019
g69
I1
ssg70
g4013
sg63
(lp4020
S'/admin/default/about/Music_Repo'
p4021
asbasbasbasbasbasbasbasbasbasbasbasbasbasbasbag56
(g72
g58
NtRp4022
(dp4023
g61
(dp4024
sg70
g3391
sg63
(lp4025
g56
(g77
g58
NtRp4026
(dp4027
g61
(dp4028
sg70
g4022
sg63
(lp4029
g56
(g57
g58
NtRp4030
(dp4031
g61
(dp4032
g69
I4
ssg70
g4026
sg63
(lp4033
g56
(g65
g58
NtRp4034
(dp4035
g61
(dp4036
g69
I3
ssg70
Nsg63
(lp4037
g56
(g72
g58
NtRp4038
(dp4039
g61
(dp4040
sg70
g4034
sg63
(lp4041
g56
(g77
g58
NtRp4042
(dp4043
g61
(dp4044
sg70
g4038
sg63
(lp4045
g56
(g57
g58
NtRp4046
(dp4047
g61
(dp4048
g69
I3
ssg70
g4042
sg63
(lp4049
g3423
(S's\t\x00\x00\x00Resources'
tRp4050
asbasbasbag56
(g72
g58
NtRp4051
(dp4052
g61
(dp4053
sg70
g4034
sg63
(lp4054
g56
(g77
g58
NtRp4055
(dp4056
g61
(dp4057
sg70
g4051
sg63
(lp4058
g56
(g57
g58
NtRp4059
(dp4060
g61
(dp4061
g69
I3
ssg70
g4055
sg63
(lp4062
g99
asbasbasbag56
(g72
g58
NtRp4063
(dp4064
g61
(dp4065
sg70
g4034
sg63
(lp4066
g56
(g77
g58
NtRp4067
(dp4068
g61
(dp4069
sg70
g4063
sg63
(lp4070
g56
(g57
g58
NtRp4071
(dp4072
g61
(dp4073
g69
I3
ssg70
g4067
sg63
(lp4074
S'None'
p4075
asbasbasbag56
(g72
g58
NtRp4076
(dp4077
g61
(dp4078
sg70
g4034
sg63
(lp4079
g56
(g77
g58
NtRp4080
(dp4081
g61
(dp4082
sg70
g4076
sg63
(lp4083
g56
(g57
g58
NtRp4084
(dp4085
g61
(dp4086
g69
I3
ssg70
g4080
sg63
(lp4087
g56
(g65
g58
NtRp4088
(dp4089
g61
(dp4090
g69
I2
ssg70
Nsg63
(lp4091
g56
(g72
g58
NtRp4092
(dp4093
g61
(dp4094
sg70
g4088
sg63
(lp4095
g56
(g77
g58
NtRp4096
(dp4097
g61
(dp4098
sg70
g4092
sg63
(lp4099
g56
(g57
g58
NtRp4100
(dp4101
g61
(dp4102
g69
I2
ssg70
g4096
sg63
(lp4103
g56
(g65
g58
NtRp4104
(dp4105
g61
(dp4106
g69
I1
ssg70
Nsg63
(lp4107
g56
(g72
g58
NtRp4108
(dp4109
g61
(dp4110
sg70
g4104
sg63
(lp4111
g56
(g77
g58
NtRp4112
(dp4113
g61
(dp4114
sg70
g4108
sg63
(lp4115
g56
(g57
g58
NtRp4116
(dp4117
g61
(dp4118
g69
I1
ssg70
g4112
sg63
(lp4119
g3423
(S's\r\x00\x00\x00Documentation'
tRp4120
asbasbasbag56
(g72
g58
NtRp4121
(dp4122
g61
(dp4123
sg70
g4104
sg63
(lp4124
g56
(g77
g58
NtRp4125
(dp4126
g61
(dp4127
sg70
g4121
sg63
(lp4128
g56
(g57
g58
NtRp4129
(dp4130
g61
(dp4131
g69
I1
ssg70
g4125
sg63
(lp4132
I00
asbasbasbag56
(g72
g58
NtRp4133
(dp4134
g61
(dp4135
sg70
g4104
sg63
(lp4136
g56
(g77
g58
NtRp4137
(dp4138
g61
(dp4139
sg70
g4133
sg63
(lp4140
g56
(g57
g58
NtRp4141
(dp4142
g61
(dp4143
g69
I1
ssg70
g4137
sg63
(lp4144
S'http://www.web2py.com/book'
p4145
asbasbasbag56
(g72
g58
NtRp4146
(dp4147
g61
(dp4148
sg70
g4104
sg63
(lp4149
g56
(g77
g58
NtRp4150
(dp4151
g61
(dp4152
sg70
g4146
sg63
(lp4153
g56
(g57
g58
NtRp4154
(dp4155
g61
(dp4156
g69
I1
ssg70
g4150
sg63
(lp4157
(lp4158
(g3423
(S's\x07\x00\x00\x00Preface'
tRp4159
I00
S'http://www.web2py.com/book/default/chapter/00'
tp4160
a(g3423
(S's\x0c\x00\x00\x00Introduction'
tRp4161
I00
S'http://www.web2py.com/book/default/chapter/01'
tp4162
a(g3423
(S's\x06\x00\x00\x00Python'
tRp4163
I00
S'http://www.web2py.com/book/default/chapter/02'
tp4164
a(g3423
(S's\x08\x00\x00\x00Overview'
tRp4165
I00
S'http://www.web2py.com/book/default/chapter/03'
tp4166
a(g3423
(S's\x08\x00\x00\x00The Core'
tRp4167
I00
S'http://www.web2py.com/book/default/chapter/04'
tp4168
a(g3423
(S's\t\x00\x00\x00The Views'
tRp4169
I00
S'http://www.web2py.com/book/default/chapter/05'
tp4170
a(g3423
(S's\x08\x00\x00\x00Database'
tRp4171
I00
S'http://www.web2py.com/book/default/chapter/06'
tp4172
a(g3423
(S's\x14\x00\x00\x00Forms and Validators'
tRp4173
I00
S'http://www.web2py.com/book/default/chapter/07'
tp4174
a(g3423
(S's\x0e\x00\x00\x00Access Control'
tRp4175
I00
S'http://www.web2py.com/book/default/chapter/08'
tp4176
a(g3423
(S's\x08\x00\x00\x00Services'
tRp4177
I00
S'http://www.web2py.com/book/default/chapter/09'
tp4178
a(g3423
(S's\x0c\x00\x00\x00Ajax Recipes'
tRp4179
I00
S'http://www.web2py.com/book/default/chapter/10'
tp4180
a(g3423
(S's\x12\x00\x00\x00Deployment Recipes'
tRp4181
I00
S'http://www.web2py.com/book/default/chapter/11'
tp4182
a(g3423
(S's\r\x00\x00\x00Other Recipes'
tRp4183
I00
S'http://www.web2py.com/book/default/chapter/12'
tp4184
a(g3423
(S's\r\x00\x00\x00Buy this book'
tRp4185
I00
S'http://stores.lulu.com/web2py'
tp4186
aasbasbasbasbasbasbasbag56
(g72
g58
NtRp4187
(dp4188
g61
(dp4189
sg70
g4088
sg63
(lp4190
g56
(g77
g58
NtRp4191
(dp4192
g61
(dp4193
sg70
g4187
sg63
(lp4194
g56
(g57
g58
NtRp4195
(dp4196
g61
(dp4197
g69
I2
ssg70
g4191
sg63
(lp4198
g56
(g65
g58
NtRp4199
(dp4200
g61
(dp4201
g69
I1
ssg70
Nsg63
(lp4202
g56
(g72
g58
NtRp4203
(dp4204
g61
(dp4205
sg70
g4199
sg63
(lp4206
g56
(g77
g58
NtRp4207
(dp4208
g61
(dp4209
sg70
g4203
sg63
(lp4210
g56
(g57
g58
NtRp4211
(dp4212
g61
(dp4213
g69
I1
ssg70
g4207
sg63
(lp4214
g3423
(S's\t\x00\x00\x00Community'
tRp4215
asbasbasbag56
(g72
g58
NtRp4216
(dp4217
g61
(dp4218
sg70
g4199
sg63
(lp4219
g56
(g77
g58
NtRp4220
(dp4221
g61
(dp4222
sg70
g4216
sg63
(lp4223
g56
(g57
g58
NtRp4224
(dp4225
g61
(dp4226
g69
I1
ssg70
g4220
sg63
(lp4227
I00
asbasbasbag56
(g72
g58
NtRp4228
(dp4229
g61
(dp4230
sg70
g4199
sg63
(lp4231
g56
(g77
g58
NtRp4232
(dp4233
g61
(dp4234
sg70
g4228
sg63
(lp4235
g56
(g57
g58
NtRp4236
(dp4237
g61
(dp4238
g69
I1
ssg70
g4232
sg63
(lp4239
Nasbasbasbag56
(g72
g58
NtRp4240
(dp4241
g61
(dp4242
sg70
g4199
sg63
(lp4243
g56
(g77
g58
NtRp4244
(dp4245
g61
(dp4246
sg70
g4240
sg63
(lp4247
g56
(g57
g58
NtRp4248
(dp4249
g61
(dp4250
g69
I1
ssg70
g4244
sg63
(lp4251
(lp4252
(g3423
(S's\x06\x00\x00\x00Groups'
tRp4253
I00
S'http://www.web2py.com/examples/default/usergroups'
tp4254
a(g3423
(S's\x07\x00\x00\x00Twitter'
tRp4255
I00
S'http://twitter.com/web2py'
tp4256
a(g3423
(S's\t\x00\x00\x00Live chat'
tRp4257
I00
S'http://mibbit.com/?channel=%23web2py&server=irc.mibbit.net'
tp4258
a(g3423
(S's\n\x00\x00\x00User Voice'
tRp4259
I00
S'http://web2py.uservoice.com/'
tp4260
aasbasbasbasbasbasbasbag56
(g72
g58
NtRp4261
(dp4262
g61
(dp4263
sg70
g4088
sg63
(lp4264
g56
(g77
g58
NtRp4265
(dp4266
g61
(dp4267
sg70
g4261
sg63
(lp4268
g56
(g57
g58
NtRp4269
(dp4270
g61
(dp4271
g69
I2
ssg70
g4265
sg63
(lp4272
g56
(g65
g58
NtRp4273
(dp4274
g61
(dp4275
g69
I1
ssg70
Nsg63
(lp4276
g56
(g72
g58
NtRp4277
(dp4278
g61
(dp4279
sg70
g4273
sg63
(lp4280
g56
(g77
g58
NtRp4281
(dp4282
g61
(dp4283
sg70
g4277
sg63
(lp4284
g56
(g57
g58
NtRp4285
(dp4286
g61
(dp4287
g69
I1
ssg70
g4281
sg63
(lp4288
g3423
(S's\x06\x00\x00\x00Web2py'
tRp4289
asbasbasbag56
(g72
g58
NtRp4290
(dp4291
g61
(dp4292
sg70
g4273
sg63
(lp4293
g56
(g77
g58
NtRp4294
(dp4295
g61
(dp4296
sg70
g4290
sg63
(lp4297
g56
(g57
g58
NtRp4298
(dp4299
g61
(dp4300
g69
I1
ssg70
g4294
sg63
(lp4301
I00
asbasbasbag56
(g72
g58
NtRp4302
(dp4303
g61
(dp4304
sg70
g4273
sg63
(lp4305
g56
(g77
g58
NtRp4306
(dp4307
g61
(dp4308
sg70
g4302
sg63
(lp4309
g56
(g57
g58
NtRp4310
(dp4311
g61
(dp4312
g69
I1
ssg70
g4306
sg63
(lp4313
S'http://www.web2py.com'
p4314
asbasbasbag56
(g72
g58
NtRp4315
(dp4316
g61
(dp4317
sg70
g4273
sg63
(lp4318
g56
(g77
g58
NtRp4319
(dp4320
g61
(dp4321
sg70
g4315
sg63
(lp4322
g56
(g57
g58
NtRp4323
(dp4324
g61
(dp4325
g69
I1
ssg70
g4319
sg63
(lp4326
(lp4327
(g3423
(S's\x08\x00\x00\x00Download'
tRp4328
I00
S'http://www.web2py.com/examples/default/download'
tp4329
a(g3423
(S's\x07\x00\x00\x00Support'
tRp4330
I00
S'http://www.web2py.com/examples/default/support'
tp4331
a(g3423
(S's\x0e\x00\x00\x00Quick Examples'
tRp4332
I00
S'http://web2py.com/examples/default/examples'
tp4333
a(g3423
(S's\x03\x00\x00\x00FAQ'
tRp4334
I00
S'http://web2py.com/AlterEgo'
tp4335
a(g3423
(S's\x11\x00\x00\x00Free Applications'
tRp4336
I00
S'http://web2py.com/appliances'
tp4337
a(g3423
(S's\x07\x00\x00\x00Plugins'
tRp4338
I00
S'http://web2py.com/plugins'
tp4339
a(g3423
(S's\x07\x00\x00\x00Recipes'
tRp4340
I00
S'http://web2pyslices.com/'
tp4341
a(g3423
(S's\x04\x00\x00\x00Demo'
tRp4342
I00
S'http://web2py.com/demo_admin'
tp4343
a(g3423
(S's\x08\x00\x00\x00Semantic'
tRp4344
I00
S'http://web2py.com/semantic'
tp4345
a(g3423
(S's\x07\x00\x00\x00Layouts'
tRp4346
I00
S'http://web2py.com/layouts'
tp4347
a(g3423
(S's\x06\x00\x00\x00Videos'
tRp4348
I00
S'http://www.web2py.com/examples/default/videos/'
tp4349
aasbasbasbasbasbasbasbasbasbasbasbasbasbasbasbasbasbasbasbag56
(g72
g58
NtRp4350
(dp4351
g61
(dp4352
sg70
g2840
sg63
(lp4353
g56
(g77
g58
NtRp4354
(dp4355
g61
(dp4356
g81
g82
ssg70
g4350
sg63
(lp4357
S'meta'
p4358
asbag56
(g77
g58
NtRp4359
(dp4360
g61
(dp4361
g88
g89
ssg70
g4350
sg63
(lp4362
S':'
asbag56
(g77
g58
NtRp4363
(dp4364
g61
(dp4365
sg70
g4350
sg63
(lp4366
g56
(g57
g58
NtRp4367
(dp4368
g61
(dp4369
g69
I5
ssg70
g4363
sg63
(lp4370
g56
(g65
g58
NtRp4371
(dp4372
g61
(dp4373
g69
I4
ssg70
Nsg63
(lp4374
g56
(g72
g58
NtRp4375
(dp4376
g61
(dp4377
sg70
g4371
sg63
(lp4378
g56
(g77
g58
NtRp4379
(dp4380
g61
(dp4381
g81
g82
ssg70
g4375
sg63
(lp4382
S'author'
p4383
asbag56
(g77
g58
NtRp4384
(dp4385
g61
(dp4386
g88
g89
ssg70
g4375
sg63
(lp4387
S':'
asbag56
(g77
g58
NtRp4388
(dp4389
g61
(dp4390
sg70
g4375
sg63
(lp4391
g56
(g57
g58
NtRp4392
(dp4393
g61
(dp4394
g69
I4
ssg70
g4388
sg63
(lp4395
S'you'
p4396
asbasbasbag56
(g72
g58
NtRp4397
(dp4398
g61
(dp4399
sg70
g4371
sg63
(lp4400
g56
(g77
g58
NtRp4401
(dp4402
g61
(dp4403
g81
g82
ssg70
g4397
sg63
(lp4404
S'copyright'
p4405
asbag56
(g77
g58
NtRp4406
(dp4407
g61
(dp4408
g88
g89
ssg70
g4397
sg63
(lp4409
S':'
asbag56
(g77
g58
NtRp4410
(dp4411
g61
(dp4412
sg70
g4397
sg63
(lp4413
g56
(g57
g58
NtRp4414
(dp4415
g61
(dp4416
g69
I4
ssg70
g4410
sg63
(lp4417
S'Copyright 2007-2010'
p4418
asbasbasbag56
(g72
g58
NtRp4419
(dp4420
g61
(dp4421
sg70
g4371
sg63
(lp4422
g56
(g77
g58
NtRp4423
(dp4424
g61
(dp4425
g81
g82
ssg70
g4419
sg63
(lp4426
S'description'
p4427
asbag56
(g77
g58
NtRp4428
(dp4429
g61
(dp4430
g88
g89
ssg70
g4419
sg63
(lp4431
S':'
asbag56
(g77
g58
NtRp4432
(dp4433
g61
(dp4434
sg70
g4419
sg63
(lp4435
g56
(g57
g58
NtRp4436
(dp4437
g61
(dp4438
g69
I4
ssg70
g4432
sg63
(lp4439
S'Free and open source full-stack enterprise framework for agile development of fast, scalable, secure and portable database-driven web-based applications. Written and programmable in Python'
p4440
asbasbasbag56
(g72
g58
NtRp4441
(dp4442
g61
(dp4443
sg70
g4371
sg63
(lp4444
g56
(g77
g58
NtRp4445
(dp4446
g61
(dp4447
g81
g82
ssg70
g4441
sg63
(lp4448
S'generator'
p4449
asbag56
(g77
g58
NtRp4450
(dp4451
g61
(dp4452
g88
g89
ssg70
g4441
sg63
(lp4453
S':'
asbag56
(g77
g58
NtRp4454
(dp4455
g61
(dp4456
sg70
g4441
sg63
(lp4457
g56
(g57
g58
NtRp4458
(dp4459
g61
(dp4460
g69
I4
ssg70
g4454
sg63
(lp4461
S'Web2py Enterprise Framework'
p4462
asbasbasbag56
(g72
g58
NtRp4463
(dp4464
g61
(dp4465
sg70
g4371
sg63
(lp4466
g56
(g77
g58
NtRp4467
(dp4468
g61
(dp4469
g81
g82
ssg70
g4463
sg63
(lp4470
S'keywords'
p4471
asbag56
(g77
g58
NtRp4472
(dp4473
g61
(dp4474
g88
g89
ssg70
g4463
sg63
(lp4475
S':'
asbag56
(g77
g58
NtRp4476
(dp4477
g61
(dp4478
sg70
g4463
sg63
(lp4479
g56
(g57
g58
NtRp4480
(dp4481
g61
(dp4482
g69
I4
ssg70
g4476
sg63
(lp4483
S'web2py, python, framework'
p4484
asbasbasbasbasbasbasbag56
(g72
g58
NtRp4485
(dp4486
g61
(dp4487
sg70
g2840
sg63
(lp4488
g56
(g77
g58
NtRp4489
(dp4490
g61
(dp4491
g81
g82
ssg70
g4485
sg63
(lp4492
S'postprocessing'
p4493
asbag56
(g77
g58
NtRp4494
(dp4495
g61
(dp4496
g88
g89
ssg70
g4485
sg63
(lp4497
S':'
asbag56
(g77
g58
NtRp4498
(dp4499
g61
(dp4500
sg70
g4485
sg63
(lp4501
g56
(g57
g58
NtRp4502
(dp4503
g61
(dp4504
g69
I5
ssg70
g4498
sg63
(lp4505
g56
(g65
g58
NtRp4506
(dp4507
g61
(dp4508
g69
I4
ssg70
Nsg63
(lp4509
sbasbasbasbag56
(g72
g58
NtRp4510
(dp4511
g61
(dp4512
sg70
g2840
sg63
(lp4513
g56
(g77
g58
NtRp4514
(dp4515
g61
(dp4516
g81
g82
ssg70
g4510
sg63
(lp4517
S'session_file'
p4518
asbag56
(g77
g58
NtRp4519
(dp4520
g61
(dp4521
g88
g89
ssg70
g4510
sg63
(lp4522
S':'
asbag56
(g77
g58
NtRp4523
(dp4524
g61
(dp4525
sg70
g4510
sg63
(lp4526
g56
(g57
g58
NtRp4527
(dp4528
g61
(dp4529
g69
I5
ssg70
g4523
sg63
(lp4530
S"<open file '/home/vsvah/Desktop/Coursework/Sem3/SSAD/web2py/applications/Music_Repo/sessions/127.0.0.1-0cc5ad7f-61ca-479a-933d-b13352216d24', mode 'rb+' at 0xa4be9c0>"
p4531
asbasbasbag56
(g72
g58
NtRp4532
(dp4533
g61
(dp4534
sg70
g2840
sg63
(lp4535
g56
(g77
g58
NtRp4536
(dp4537
g61
(dp4538
g81
g82
ssg70
g4532
sg63
(lp4539
S'session_filename'
p4540
asbag56
(g77
g58
NtRp4541
(dp4542
g61
(dp4543
g88
g89
ssg70
g4532
sg63
(lp4544
S':'
asbag56
(g77
g58
NtRp4545
(dp4546
g61
(dp4547
sg70
g4532
sg63
(lp4548
g56
(g57
g58
NtRp4549
(dp4550
g61
(dp4551
g69
I5
ssg70
g4545
sg63
(lp4552
S'/home/vsvah/Desktop/Coursework/Sem3/SSAD/web2py/applications/Music_Repo/sessions/127.0.0.1-0cc5ad7f-61ca-479a-933d-b13352216d24'
p4553
asbasbasbag56
(g72
g58
NtRp4554
(dp4555
g61
(dp4556
sg70
g2840
sg63
(lp4557
g56
(g77
g58
NtRp4558
(dp4559
g61
(dp4560
g81
g82
ssg70
g4554
sg63
(lp4561
S'session_id'
p4562
asbag56
(g77
g58
NtRp4563
(dp4564
g61
(dp4565
g88
g89
ssg70
g4554
sg63
(lp4566
S':'
asbag56
(g77
g58
NtRp4567
(dp4568
g61
(dp4569
sg70
g4554
sg63
(lp4570
g56
(g57
g58
NtRp4571
(dp4572
g61
(dp4573
g69
I5
ssg70
g4567
sg63
(lp4574
S'127.0.0.1-0cc5ad7f-61ca-479a-933d-b13352216d24'
p4575
asbasbasbag56
(g72
g58
NtRp4576
(dp4577
g61
(dp4578
sg70
g2840
sg63
(lp4579
g56
(g77
g58
NtRp4580
(dp4581
g61
(dp4582
g81
g82
ssg70
g4576
sg63
(lp4583
S'session_id_name'
p4584
asbag56
(g77
g58
NtRp4585
(dp4586
g61
(dp4587
g88
g89
ssg70
g4576
sg63
(lp4588
S':'
asbag56
(g77
g58
NtRp4589
(dp4590
g61
(dp4591
sg70
g4576
sg63
(lp4592
g56
(g57
g58
NtRp4593
(dp4594
g61
(dp4595
g69
I5
ssg70
g4589
sg63
(lp4596
g2897
asbasbasbag56
(g72
g58
NtRp4597
(dp4598
g61
(dp4599
sg70
g2840
sg63
(lp4600
g56
(g77
g58
NtRp4601
(dp4602
g61
(dp4603
g81
g82
ssg70
g4597
sg63
(lp4604
S'session_locked'
p4605
asbag56
(g77
g58
NtRp4606
(dp4607
g61
(dp4608
g88
g89
ssg70
g4597
sg63
(lp4609
S':'
asbag56
(g77
g58
NtRp4610
(dp4611
g61
(dp4612
sg70
g4597
sg63
(lp4613
g56
(g57
g58
NtRp4614
(dp4615
g61
(dp4616
g69
I5
ssg70
g4610
sg63
(lp4617
g1635
asbasbasbag56
(g72
g58
NtRp4618
(dp4619
g61
(dp4620
sg70
g2840
sg63
(lp4621
g56
(g77
g58
NtRp4622
(dp4623
g61
(dp4624
g81
g82
ssg70
g4618
sg63
(lp4625
S'session_new'
p4626
asbag56
(g77
g58
NtRp4627
(dp4628
g61
(dp4629
g88
g89
ssg70
g4618
sg63
(lp4630
S':'
asbag56
(g77
g58
NtRp4631
(dp4632
g61
(dp4633
sg70
g4618
sg63
(lp4634
g56
(g57
g58
NtRp4635
(dp4636
g61
(dp4637
g69
I5
ssg70
g4631
sg63
(lp4638
g99
asbasbasbag56
(g72
g58
NtRp4639
(dp4640
g61
(dp4641
sg70
g2840
sg63
(lp4642
g56
(g77
g58
NtRp4643
(dp4644
g61
(dp4645
g81
g82
ssg70
g4639
sg63
(lp4646
S'status'
p4647
asbag56
(g77
g58
NtRp4648
(dp4649
g61
(dp4650
g88
g89
ssg70
g4639
sg63
(lp4651
S':'
asbag56
(g77
g58
NtRp4652
(dp4653
g61
(dp4654
sg70
g4639
sg63
(lp4655
g56
(g57
g58
NtRp4656
(dp4657
g61
(dp4658
g69
I5
ssg70
g4652
sg63
(lp4659
S'200'
p4660
asbasbasbag56
(g72
g58
NtRp4661
(dp4662
g61
(dp4663
sg70
g2840
sg63
(lp4664
g56
(g77
g58
NtRp4665
(dp4666
g61
(dp4667
g81
g82
ssg70
g4661
sg63
(lp4668
S'subtitle'
p4669
asbag56
(g77
g58
NtRp4670
(dp4671
g61
(dp4672
g88
g89
ssg70
g4661
sg63
(lp4673
S':'
asbag56
(g77
g58
NtRp4674
(dp4675
g61
(dp4676
sg70
g4661
sg63
(lp4677
g56
(g57
g58
NtRp4678
(dp4679
g61
(dp4680
g69
I5
ssg70
g4674
sg63
(lp4681
g3423
(S's\r\x00\x00\x00customize me!'
tRp4682
asbasbasbag56
(g72
g58
NtRp4683
(dp4684
g61
(dp4685
sg70
g2840
sg63
(lp4686
g56
(g77
g58
NtRp4687
(dp4688
g61
(dp4689
g81
g82
ssg70
g4683
sg63
(lp4690
S'title'
p4691
asbag56
(g77
g58
NtRp4692
(dp4693
g61
(dp4694
g88
g89
ssg70
g4683
sg63
(lp4695
S':'
asbag56
(g77
g58
NtRp4696
(dp4697
g61
(dp4698
sg70
g4683
sg63
(lp4699
g56
(g57
g58
NtRp4700
(dp4701
g61
(dp4702
g69
I5
ssg70
g4696
sg63
(lp4703
g121
asbasbasbag56
(g72
g58
NtRp4704
(dp4705
g61
(dp4706
sg70
g2840
sg63
(lp4707
g56
(g77
g58
NtRp4708
(dp4709
g61
(dp4710
g81
g82
ssg70
g4704
sg63
(lp4711
g1980
asbag56
(g77
g58
NtRp4712
(dp4713
g61
(dp4714
g88
g89
ssg70
g4704
sg63
(lp4715
S':'
asbag56
(g77
g58
NtRp4716
(dp4717
g61
(dp4718
sg70
g4704
sg63
(lp4719
g56
(g57
g58
NtRp4720
(dp4721
g61
(dp4722
g69
I5
ssg70
g4716
sg63
(lp4723
g1993
asbasbasbag56
(g72
g58
NtRp4724
(dp4725
g61
(dp4726
sg70
g2840
sg63
(lp4727
g56
(g77
g58
NtRp4728
(dp4729
g61
(dp4730
g81
g82
ssg70
g4724
sg63
(lp4731
S'view'
p4732
asbag56
(g77
g58
NtRp4733
(dp4734
g61
(dp4735
g88
g89
ssg70
g4724
sg63
(lp4736
S':'
asbag56
(g77
g58
NtRp4737
(dp4738
g61
(dp4739
sg70
g4724
sg63
(lp4740
g56
(g57
g58
NtRp4741
(dp4742
g61
(dp4743
g69
I5
ssg70
g4737
sg63
(lp4744
S'default/display_details.html'
p4745
asbasbasbasbasbsS'locals'
p4746
(dp4747
S'Service'
p4748
S"<class 'gluon.tools.Service'>"
p4749
sS'OBJECT'
p4750
S"<class 'gluon.html.OBJECT'>"
p4751
sS'_file'
p4752
S"'/Music_Repo/static/js/superfish.js'"
p4753
sS'SQLDB'
p4754
S"<class 'gluon.dal.DAL'>"
p4755
sg2757
S"<Storage {'_formkey[movie/create]': 'b0ddb304-29...reate]': 'a09563b0-1b19-434c-a51e-645f73f397af'}>"
p4756
sS'LINK'
p4757
S"<class 'gluon.html.LINK'>"
p4758
sS'BR'
p4759
S"<class 'gluon.html.BR'>"
p4760
sS'local_import'
p4761
S'<function <lambda>>'
p4762
sS'OPTGROUP'
p4763
S"<class 'gluon.html.OPTGROUP'>"
p4764
sS'PRE'
p4765
S"<class 'gluon.html.PRE'>"
p4766
sS'IS_INT_IN_RANGE'
p4767
S"<class 'gluon.validators.IS_INT_IN_RANGE'>"
p4768
sS'left_sidebar_enabled'
p4769
g99
sS'IS_LOWER'
p4770
S"<class 'gluon.validators.IS_LOWER'>"
p4771
sS'IS_STRONG'
p4772
S"<class 'gluon.validators.IS_STRONG'>"
p4773
sS'cache'
p4774
S'<gluon.cache.Cache object>'
p4775
sS'IS_IN_DB'
p4776
S"<class 'gluon.validators.IS_IN_DB'>"
p4777
sS'TAG'
p4778
S'<gluon.html.__TAG__ object>'
p4779
sS'_k'
p4780
S'5'
sS'SQLField'
p4781
S"<class 'gluon.dal.Field'>"
p4782
sS'mail'
p4783
S'<gluon.tools.Mail object>'
p4784
sS'BODY'
p4785
S"<class 'gluon.html.BODY'>"
p4786
sS'IS_DATE_IN_RANGE'
p4787
S"<class 'gluon.validators.IS_DATE_IN_RANGE'>"
p4788
sS'TH'
p4789
S"<class 'gluon.html.TH'>"
p4790
sS'URL'
p4791
S'<function URL>'
p4792
sS'__file__'
p4793
S"'/home/vsvah/Desktop/Coursework/Sem3/SSAD/web2py/...ons/Music_Repo/views/default/display_details.html'"
p4794
sS'db'
p4795
S"<DAL {'auth_event': <Table {'origin': <gluon.dal..., 'id': <gluon.dal.Field object at 0xb1af3ac>}>}>"
p4796
sS'auth'
p4797
S'<gluon.tools.Auth object>'
p4798
sS'P'
S"<class 'gluon.html.P'>"
p4799
sS'TFOOT'
p4800
S"<class 'gluon.html.TFOOT'>"
p4801
sS'XHTML'
p4802
S"<class 'gluon.html.XHTML'>"
p4803
sS'datetime'
p4804
S"<module 'datetime' from '/usr/lib/python2.6/lib-dynload/datetime.so'>"
p4805
sS'ON'
p4806
g1635
sS'OL'
p4807
S"<class 'gluon.html.OL'>"
p4808
sS'TEXTAREA'
p4809
S"<class 'gluon.html.TEXTAREA'>"
p4810
sS'MENU'
p4811
S"<class 'gluon.html.MENU'>"
p4812
sS'_file0'
p4813
S"'/music_repo/static/js/superfish.js'"
p4814
sS'LOAD'
p4815
S'<gluon.compileapp.LoadFactory object>'
p4816
sS'CODE'
p4817
S"<class 'gluon.html.CODE'>"
p4818
sS'HTTP'
p4819
S"<class 'gluon.http.HTTP'>"
p4820
sS'HR'
p4821
S"<class 'gluon.html.HR'>"
p4822
sS'IS_DATETIME'
p4823
S"<class 'gluon.validators.IS_DATETIME'>"
p4824
sS'HEAD'
p4825
S"<class 'gluon.html.HEAD'>"
p4826
sS'LABEL'
p4827
S"<class 'gluon.html.LABEL'>"
p4828
sS'CLEANUP'
p4829
S"<class 'gluon.validators.CLEANUP'>"
p4830
sS'plugins'
p4831
S'<gluon.tools.PluginManager object>'
p4832
sS'SELECT'
p4833
S"<class 'gluon.html.SELECT'>"
p4834
sS'CENTER'
p4835
S"<class 'gluon.html.CENTER'>"
p4836
sS'left_sidebar_style'
p4837
S'\'style="display: none;"\''
p4838
sS'Crud'
p4839
S"<class 'gluon.tools.Crud'>"
p4840
sS'Auth'
p4841
S"<class 'gluon.tools.Auth'>"
p4842
sS'__builtins__'
p4843
S"{'ArithmeticError': <type 'exceptions.ArithmeticError'>, 'AssertionError': <type 'exceptions.AssertionError'>, 'AttributeError': <type 'exceptions.AttributeError'>, 'BaseException': <type 'exceptions.BaseException'>, 'BufferError': <type 'exceptions.BufferError'>, 'BytesWarning': <type 'exceptions.BytesWarning'>, 'DeprecationWarning': <type 'exceptions.DeprecationWarning'>, 'EOFError': <type 'exceptions.EOFError'>, 'Ellipsis': Ellipsis, 'EnvironmentError': <type 'exceptions.EnvironmentError'>, ...}"
p4844
sS'IS_LIST_OF'
p4845
S"<class 'gluon.validators.IS_LIST_OF'>"
p4846
sS'SQLFORM'
p4847
S"<class 'gluon.sqlhtml.SQLFORM'>"
p4848
sS'_item'
p4849
S"'author'"
p4850
sS'EM'
p4851
S"<class 'gluon.html.EM'>"
p4852
sS'redirect'
p4853
S'<function redirect>'
p4854
sS'FIELDSET'
p4855
S"<class 'gluon.html.FIELDSET'>"
p4856
sS'IS_EQUAL_TO'
p4857
S"<class 'gluon.validators.IS_EQUAL_TO'>"
p4858
sS'embed64'
p4859
S'<function embed64>'
p4860
sS'INPUT'
p4861
S"<class 'gluon.html.INPUT'>"
p4862
sS'EMBED'
p4863
S"<class 'gluon.html.EMBED'>"
p4864
sS'r'
S'<gluon.dal.Rows object>'
p4865
sS'FORM'
p4866
S"<class 'gluon.html.FORM'>"
p4867
sS'width_content'
p4868
S"'100%'"
p4869
sS'H2'
p4870
S"<class 'gluon.html.H2'>"
p4871
sS'H3'
p4872
S"<class 'gluon.html.H3'>"
p4873
sS'BUTTON'
p4874
S"<class 'gluon.html.BUTTON'>"
p4875
sS'H1'
p4876
S"<class 'gluon.html.H1'>"
p4877
sS'H6'
p4878
S"<class 'gluon.html.H6'>"
p4879
sS'H4'
p4880
S"<class 'gluon.html.H4'>"
p4881
sS'H5'
p4882
S"<class 'gluon.html.H5'>"
p4883
sS'UL'
p4884
S"<class 'gluon.html.UL'>"
p4885
sS'IS_UPPER'
p4886
S"<class 'gluon.validators.IS_UPPER'>"
p4887
sS'xmlescape'
p4888
S'<function xmlescape>'
p4889
sS'IS_TIME'
p4890
S"<class 'gluon.validators.IS_TIME'>"
p4891
sS'OPTION'
p4892
S"<class 'gluon.html.OPTION'>"
p4893
sS'TITLE'
p4894
S"<class 'gluon.html.TITLE'>"
p4895
sS'CRYPT'
p4896
S"<class 'gluon.validators.CRYPT'>"
p4897
sS'IS_EMPTY_OR'
p4898
S"<class 'gluon.validators.IS_EMPTY_OR'>"
p4899
sS'MARKMIN'
p4900
S"<class 'gluon.html.MARKMIN'>"
p4901
sS'service'
p4902
S'<gluon.tools.Service object>'
p4903
sS'SCRIPT'
p4904
S"<class 'gluon.html.SCRIPT'>"
p4905
sS'TABLE'
p4906
S"<class 'gluon.html.TABLE'>"
p4907
sS'IS_IPV4'
p4908
S"<class 'gluon.validators.IS_IPV4'>"
p4909
sS'IS_LENGTH'
p4910
S"<class 'gluon.validators.IS_LENGTH'>"
p4911
sS'XML'
p4912
S"<class 'gluon.html.XML'>"
p4913
sS'B'
S"<class 'gluon.html.B'>"
p4914
sS'IMG'
p4915
S"<class 'gluon.html.IMG'>"
p4916
sS'SQLTABLE'
p4917
S"<class 'gluon.sqlhtml.SQLTABLE'>"
p4918
sS'IS_MATCH'
p4919
S"<class 'gluon.validators.IS_MATCH'>"
p4920
sS'IS_ALPHANUMERIC'
p4921
S"<class 'gluon.validators.IS_ALPHANUMERIC'>"
p4922
sS'SPAN'
p4923
S"<class 'gluon.html.SPAN'>"
p4924
sS'IS_SLUG'
p4925
S"<class 'gluon.validators.IS_SLUG'>"
p4926
sS'BEAUTIFY'
p4927
S"<class 'gluon.html.BEAUTIFY'>"
p4928
sS'META'
p4929
S"<class 'gluon.html.META'>"
p4930
sS'IS_DATE'
p4931
S"<class 'gluon.validators.IS_DATE'>"
p4932
sS'IS_EMAIL'
p4933
S"<class 'gluon.validators.IS_EMAIL'>"
p4934
sS'IS_NOT_EMPTY'
p4935
S"<class 'gluon.validators.IS_NOT_EMPTY'>"
p4936
sg55
S"<Storage {'is_local': True, 'function': 'display....16-17-18.356bbfad-aaa3-4cab-b842-8743e669c30a'}>"
p4937
sS'TBODY'
p4938
S"<class 'gluon.html.TBODY'>"
p4939
sS'CAT'
p4940
S"<class 'gluon.html.CAT'>"
p4941
sS'Field'
p4942
S"<class 'gluon.dal.Field'>"
p4943
sS'Mail'
p4944
S"<class 'gluon.tools.Mail'>"
p4945
sS'DIV'
p4946
S"<class 'gluon.html.DIV'>"
p4947
sS'LEGEND'
p4948
S"<class 'gluon.html.LEGEND'>"
p4949
sS'DAL'
p4950
S"<class 'gluon.dal.DAL'>"
p4951
sS'TT'
p4952
S"<class 'gluon.html.TT'>"
p4953
sS'TR'
p4954
S"<class 'gluon.html.TR'>"
p4955
sS'LI'
p4956
S"<class 'gluon.html.LI'>"
p4957
sS'right_sidebar_enabled'
p4958
g99
sS'IFRAME'
p4959
S"<class 'gluon.html.IFRAME'>"
p4960
sS'TD'
p4961
S"<class 'gluon.html.TD'>"
p4962
sS'PluginManager'
p4963
S"<class 'gluon.tools.PluginManager'>"
p4964
sS'IS_URL'
p4965
S"<class 'gluon.validators.IS_URL'>"
p4966
sS'A'
S"<class 'gluon.html.A'>"
p4967
sS'STYLE'
p4968
S"<class 'gluon.html.STYLE'>"
p4969
sS'IS_DATETIME_IN_RANGE'
p4970
S"<class 'gluon.validators.IS_DATETIME_IN_RANGE'>"
p4971
sS'HTML'
p4972
S"<class 'gluon.html.HTML'>"
p4973
sS'IS_IMAGE'
p4974
S"<class 'gluon.validators.IS_IMAGE'>"
p4975
sS'I'
S"<class 'gluon.html.I'>"
p4976
sS'crud'
p4977
S'<gluon.tools.Crud object>'
p4978
sS'right_sidebar_style'
p4979
S'\'style="display: none;"\''
p4980
sS'IS_NOT_IN_DB'
p4981
S"<class 'gluon.validators.IS_NOT_IN_DB'>"
p4982
sg2835
S"<Storage {'body': <cStringIO.StringO object at 0...a34064>, 'view': 'default/display_details.html'}>"
p4983
sS'THEAD'
p4984
S"<class 'gluon.html.THEAD'>"
p4985
sS'IS_NULL_OR'
p4986
S"<class 'gluon.validators.IS_EMPTY_OR'>"
p4987
sS'prettydate'
p4988
S'<function prettydate>'
p4989
sS'IS_FLOAT_IN_RANGE'
p4990
S"<class 'gluon.validators.IS_FLOAT_IN_RANGE'>"
p4991
sS'IS_EXPR'
p4992
S"<class 'gluon.validators.IS_EXPR'>"
p4993
sS'T'
S'<gluon.languages.translator object>'
p4994
sS'IS_IN_SET'
p4995
S"<class 'gluon.validators.IS_IN_SET'>"
p4996
sS'IS_UPLOAD_FILENAME'
p4997
S"<class 'gluon.validators.IS_UPLOAD_FILENAME'>"
p4998
sS'style_content'
p4999
S'\'style="width: 100%"\''
p5000
sS'IS_DECIMAL_IN_RANGE'
p5001
S"<class 'gluon.validators.IS_DECIMAL_IN_RANGE'>"
p5002
sssS'traceback'
p5003
S'Traceback (most recent call last):\n  File "/home/vsvah/Desktop/Coursework/Sem3/SSAD/web2py/gluon/restricted.py", line 192, in restricted\n    exec ccode in environment\n  File "/home/vsvah/Desktop/Coursework/Sem3/SSAD/web2py/applications/Music_Repo/views/default/display_details.html", line 103, in <module>\nNameError: name \'i\' is not defined\n'
p5004
s.