(dp1
S'output'
p2
S''
sS'layer'
p3
S'/home/vsvah/Desktop/Coursework/Sem3/SSAD/web2py/applications/Music_Repo/views/default/display_link.html'
p4
sS'code'
p5
S'left_sidebar_enabled=right_sidebar_enabled=False\nresponse.write(\'\\n\', escape=False)\nresponse.write(\'<!DOCTYPE html>\\n<html lang="\', escape=False)\nresponse.write(T.accepted_language or \'en\')\nresponse.write(\'" class="no-js"><!-- no-js need it for modernzr -->\\n  <head>\\n    \\n    <meta charset="utf-8" />\\t  \\t\\n    <!-- www.phpied.com/conditional-comments-block-downloads/ -->\\n    <!--[if IE]><![endif]-->    \\n    <!-- Always force latest IE rendering engine \\n\\t (even in intranet) & Chrome Frame \\n\\t Remove this if you use the .htaccess -->\\n    <meta http-equiv="X-UA-Compatible" content="IE=edge,chrome=1">\\n    \\n    <title>\', escape=False)\nresponse.write(response.title or request.application)\nresponse.write(\'</title>\\n    \\n    <!-- http://dev.w3.org/html5/markup/meta.name.html -->\\n    <meta name="application-name" content="\', escape=False)\nresponse.write(request.application)\nresponse.write(\'" />\\t\\n    \\n    <!-- Speaking of Google, don\\\'t forget to set your site up: \\n\\t http://google.com/webmasters -->\\n    <meta name="google-site-verification" content="" />\\n    \\n    <!--  Mobile Viewport Fix\\n\\t  j.mp/mobileviewport & davidbcalhoun.com/2010/viewport-metatag \\n\\t  device-width: Occupy full width of the screen in its current orientation\\n\\t  initial-scale = 1.0 retains dimensions instead of zooming out if page height > device height\\n\\t  maximum-scale = 1.0 retains dimensions instead of zooming in if page width < device width\\n      -->\\n    <meta name="viewport" content="width=device-width, initial-scale=1.0, maximum-scale=1.0">\\n    \\n    <!-- Place favicon.ico and apple-touch-icon.png in the root of your domain and delete these references -->\\n    <link rel="shortcut icon" href="\', escape=False)\nresponse.write(URL(\'static\',\'favicon.ico\'))\nresponse.write(\'" type="image/x-icon">\\n    <link rel="apple-touch-icon" href="\', escape=False)\nresponse.write(URL(\'static\',\'favicon.png\'))\nresponse.write(\'">\\n\\n    <!-- For the less-enabled mobile browsers like Opera Mini -->\\n    <link rel="stylesheet" media="handheld" href="\', escape=False)\nresponse.write(URL(\'static\',\'css/handheld.css\'))\nresponse.write(\'">\\n    \\n    <!-- All JavaScript at the bottom, except for Modernizr which enables HTML5 elements & feature detects -->\\n    <script src="\', escape=False)\nresponse.write(URL(\'static\',\'js/modernizr-1.7.min.js\'))\nresponse.write(\'"></script>\\n    \\n    \', escape=False)\n#------  require CSS and JS files for this page (read info in base.css) ------\nresponse.write(\'\\n    \', escape=False)\nresponse.files.append(URL(\'static\',\'css/base.css\'))\nresponse.write(\'\\n    \', escape=False)\nresponse.files.append(URL(\'static\',\'css/superfish.css\'))\nresponse.write(\'\\n    \', escape=False)\nresponse.files.append(URL(\'static\',\'js/superfish.js\'))\nresponse.write(\'\\n    \', escape=False)\n#------ include web2py specific js code (jquery, calendar, form stuff) ------\nresponse.write(\'\\n    \', escape=False)\nresponse.files.insert(0,URL(\'static\',\'js/jquery.js\'))\nresponse.files.insert(1,URL(\'static\',\'css/calendar.css\'))\nresponse.files.insert(2,URL(\'static\',\'js/calendar.js\'))\nfor _item in response.meta or []:\n    response.write(\'\\n     <meta name="\', escape=False)\n    response.write(_item)\n    response.write(\'" content="\', escape=False)\n    response.write(response.meta[_item])\n    response.write(\'" />\', escape=False)\n    pass\nfor _k,_file in enumerate(response.files or []):\n    if _file in response.files[:_k]:\n        continue\n    _file0=_file.lower().split(\'?\')[0]\n    if _file0.endswith(\'.css\'):\n        response.write(\'\\n     <link href="\', escape=False)\n        response.write(_file)\n        response.write(\'" rel="stylesheet" type="text/css" />\', escape=False)\n    elif _file0.endswith(\'.js\'):\n        response.write(\'\\n     <script src="\', escape=False)\n        response.write(_file)\n        response.write(\'" type="text/javascript"></script>\', escape=False)\n        pass\n    pass\nresponse.write(\'\\n    <script type="text/javascript"><!--\\n    // These variables are used by the web2py_ajax_init function in web2py_ajax.js (which is loaded below).\\n    var w2p_ajax_confirm_message = "\', escape=False)\nresponse.write(T(\'Are you sure you want to delete this object?\'))\nresponse.write(\'";\\n    var w2p_ajax_date_format = "\', escape=False)\nresponse.write(T(\'%Y-%m-%d\'))\nresponse.write(\'";\\n    var w2p_ajax_datetime_format = "\', escape=False)\nresponse.write(T(\'%Y-%m-%d %H:%M:%S\'))\nresponse.write(\'";\\n    //--></script>\\n    <script src="\', escape=False)\nresponse.write(URL(\'static\',\'js/web2py_ajax.js\'))\nresponse.write(\'" type="text/javascript"></script>\\n\', escape=False)\nresponse.write(\'\\n\\n    \', escape=False)\n#using sidebars need to know what sidebar you want to use\n#prior of using it, because of static width size of content, you can use\n#left_sidebar, right_sidebar, both or none (False left and right)\nleft_sidebar_enabled = globals().get(\'left_sidebar_enabled\',False)\nright_sidebar_enabled = globals().get(\'right_sidebar_enabled\',False)\nif left_sidebar_enabled and right_sidebar_enabled: width_content=\'63%\'\nelif left_sidebar_enabled != right_sidebar_enabled: width_content=\'740px\'\nelse: width_content=\'100%\'\nif left_sidebar_enabled: left_sidebar_style = \'style="display: block;"\'\nelse: left_sidebar_style = \'style="display: none;"\'\nif right_sidebar_enabled: right_sidebar_style = \'style="display: block;"\'\nelse: right_sidebar_style = \'style="display: none;"\'\nstyle_content = \'style="width: %s"\' % width_content\nresponse.write(\'\\n  </head>\\n  \\n  <!-- paulirish.com/2008/conditional-stylesheets-vs-css-hacks-answer-neither/ -->\\t\\n  <!--[if lt IE 7 ]> <body class="ie6"> <![endif]-->\\n  <!--[if IE 7 ]>    <body class="ie7"> <![endif]-->\\n  <!--[if IE 8 ]>    <body class="ie8"> <![endif]-->\\n  <!--[if IE 9 ]>    <body class="ie9"> <![endif]-->\\n  <!--[if (gt IE 9)|!(IE)]><!--> <body> <!--<![endif]-->\\n    \\n    <div class="flash">\', escape=False)\nresponse.write(response.flash or \'\')\nresponse.write(\'</div> <!-- notification div -->\\n    \\n    <div id="container">\\t      \\t\\t      \\t\\n      \\n      <div id="wrapper">\\t\\t\\n\\t\\n\\t<div id="header"> <!-- header and login nav -->\\n\\t  \', escape=False)\nresponse.write(\' <!-- this is default header -->\\n\\t  \', escape=False)\ntry:\n    response.write(auth.navbar(action=URL(\'default\',\'user\')))\nexcept:pass\nresponse.write(\'\\t\\t          \\n\\t  <h1><span id="appname">\', escape=False)\nresponse.write(request.application.capitalize())\nresponse.write(\'</span>App</h1>\\n\\t  <div style="clear: both;"></div><!-- Clear the divs -->\\n\\t  \', escape=False)\nresponse.write(\'\\t\\t\\t\\t  \\t\\t\\t\\t\\t  \\n\\t</div><!-- header  -->\\n\\t\\n\\t<div id="statusbar"><!-- statusbar is menu zone -->\\n\\t  \', escape=False)\nresponse.write(\' <!-- this is default statusbar -->\\n\\t  \', escape=False)\n#------ superfish menu ------\nresponse.write(\'\\n\\t  \', escape=False)\nresponse.write(MENU(response.menu,_class=\'sf-menu\'))\nresponse.write(\'\\n\\t  <script type="text/javascript">\\n\\t    jQuery(document).ready(function(){\\n\\t    jQuery(\\\'ul.sf-menu\\\').superfish();});\\n\\t  </script>\\n\\t  <div style="clear: both;"></div><!-- Clear the divs -->\\t\\n\\t  \', escape=False)\nresponse.write(\'\\t\\t\\t\\t\\n\\t</div><!-- statusbar -->\\n\\t\\n\\t<div id="page"> <!-- Here my central body -->\\t  \\n\\n\\t  \', escape=False)\nif left_sidebar_enabled:\n    response.write(\'\\n          <div id="left_sidebar" \', escape=False)\n    response.write(XML(left_sidebar_style))\n    response.write(\' >\\n            <div style="padding: 4px;">\\n\\t      \', escape=False)\n    response.write(\'Content Left Sidebar\', escape=False)\n    response.write(\'\\t\\t  \\n            </div>\\n          </div><!-- left_sidebar -->\\n\\t  \', escape=False)\n    pass\nresponse.write(\'\\n\\n\\t  <!-- content -->\\n\\t  <div id="content" \', escape=False)\nresponse.write(XML(style_content))\nresponse.write(\' >\\n\\t    \', escape=False)\nresponse.write(\'\\n<h3>Matching Songs</h3>\\n\', escape=False)\nfor i in r:\n    response.write(\'\\n   <a href = "/Music_Repo/default/display_details?idno=\', escape=False)\n    response.write(i.song.id)\n    response.write(\'">\', escape=False)\n    response.write(i.song.name)\n    response.write(\'</a>\\n\\n\\n\', escape=False)\n    pass\nresponse.write(\'\\n\', escape=False)\nresponse.write(\'\\t\\n\\t  </div>\\n\\t  <!-- content -->\\n\\n\\t  \', escape=False)\nif right_sidebar_enabled:\n    response.write(\'\\n          <div id="right_sidebar" \', escape=False)\n    response.write(XML(right_sidebar_style))\n    response.write(\' >\\n            <div style="padding: 4px;">\\n              \', escape=False)\n    response.write(\'Content Right Sidebar\', escape=False)\n    response.write(\'\\n            </div>\\n\\t  </div><!-- right_sidebar -->\\n          \', escape=False)\n    pass\nresponse.write(\'\\n\\n\\n\\t  <div style="clear: both;"></div><!-- Clear the divs -->\\n\\t  \\n\\t</div><!-- page -->\\t\\t\\t\\t\\t\\t\\t\\n\\t\\n\\t<div id="footer">\\n\\t  \', escape=False)\nresponse.write(\' <!-- this is default footer -->\\n\\t  <a href="http://www.web2py.com/" style="float: left; padding-right: 6px;">\\n\\t    <img src="\', escape=False)\nresponse.write(URL(\'static\',\'images/poweredby.png\'))\nresponse.write(\'"/>\\n\\t  </a>\\n\\t  \', escape=False)\nresponse.write(T(\'Copyright\'))\nresponse.write(\' &#169; 2010\\t\\t\\t\\t\\n\\t  <div style="clear: both;"></div><!-- Clear the divs -->\\n\\t  \', escape=False)\nresponse.write(\'\\n\\n\\t</div><!-- footer -->\\t\\t\\t\\n      </div><!-- wrapper -->\\n    </div><!-- container -->\\t\\t\\n    \\n    <!--[if lt IE 7 ]>\\n\\t<script src="\', escape=False)\nresponse.write(URL(\'static\',\'js/dd_belatedpng.js\'))\nresponse.write(\'"></script>\\n\\t<script> DD_belatedPNG.fix(\\\'img, .png_bg\\\'); //fix any <img> or .png_bg background-images </script>\\n\\t<![endif]-->\\n    \\n    <!-- asynchronous google analytics: mathiasbynens.be/notes/async-analytics-snippet \\n\\t change the UA-XXXXX-X to be your site\\\'s ID -->\\n    <!--   \\n\\t   <script>\\n\\t     var _gaq = [[\\\'_setAccount\\\', \\\'UA-XXXXX-X\\\'], [\\\'_trackPageview\\\']];\\n\\t     (function(d, t) {\\n\\t     var g = d.createElement(t),\\n\\t     s = d.getElementsByTagName(t)[0];\\n\\t     g.async = true;\\n\\t     g.src = \\\'//www.google-analytics.com/ga.js\\\';\\n\\t     s.parentNode.insertBefore(g, s);\\n\\t     })(document, \\\'script\\\');\\n\\t   </script>\\n\\t   -->    \\n  </body>\\n</html>\\n\', escape=False)'
p6
sS'snapshot'
p7
(dp8
S'exception'
p9
(dp10
S'__hash__'
p11
S"<method-wrapper '__hash__' of exceptions.AttributeError object>"
p12
sS'__setattr__'
p13
S"<method-wrapper '__setattr__' of exceptions.AttributeError object>"
p14
sS'__reduce_ex__'
p15
S'<built-in method __reduce_ex__ of exceptions.AttributeError object>'
p16
sS'__getslice__'
p17
S"<method-wrapper '__getslice__' of exceptions.AttributeError object>"
p18
sS'__getitem__'
p19
S"<method-wrapper '__getitem__' of exceptions.AttributeError object>"
p20
sS'__setstate__'
p21
S'<built-in method __setstate__ of exceptions.AttributeError object>'
p22
sS'__reduce__'
p23
S'<built-in method __reduce__ of exceptions.AttributeError object>'
p24
sS'__str__'
p25
S"<method-wrapper '__str__' of exceptions.AttributeError object>"
p26
sS'__format__'
p27
S'<built-in method __format__ of exceptions.AttributeError object>'
p28
sS'__getattribute__'
p29
S"<method-wrapper '__getattribute__' of exceptions.AttributeError object>"
p30
sS'__class__'
p31
S"<type 'exceptions.AttributeError'>"
p32
sS'__unicode__'
p33
S'<built-in method __unicode__ of exceptions.AttributeError object>'
p34
sS'__delattr__'
p35
S"<method-wrapper '__delattr__' of exceptions.AttributeError object>"
p36
sS'__subclasshook__'
p37
S'<built-in method __subclasshook__ of type object>'
p38
sS'__repr__'
p39
S"<method-wrapper '__repr__' of exceptions.AttributeError object>"
p40
sS'args'
p41
S'("\'str\' object has no attribute \'song\'",)'
p42
sS'__dict__'
p43
S'{}'
p44
sS'__sizeof__'
p45
S'<built-in method __sizeof__ of exceptions.AttributeError object>'
p46
sS'__doc__'
p47
S"'Attribute not found.'"
p48
sS'__init__'
p49
S"<method-wrapper '__init__' of exceptions.AttributeError object>"
p50
sS'__new__'
p51
S'<built-in method __new__ of type object>'
p52
ssS'evalue'
p53
S"'str' object has no attribute 'song'"
p54
sS'request'
p55
ccopy_reg
_reconstructor
p56
(cgluon.html
BEAUTIFY
p57
c__builtin__
object
p58
NtRp59
(dp60
S'attributes'
p61
(dp62
sS'components'
p63
(lp64
g56
(cgluon.html
TABLE
p65
g58
NtRp66
(dp67
g61
(dp68
S'level'
p69
I5
ssS'parent'
p70
Nsg63
(lp71
g56
(cgluon.html
TR
p72
g58
NtRp73
(dp74
g61
(dp75
sg70
g66
sg63
(lp76
g56
(cgluon.html
TD
p77
g58
NtRp78
(dp79
g61
(dp80
S'_style'
p81
S'font-weight:bold;'
p82
ssg70
g73
sg63
(lp83
S'ajax'
p84
asbag56
(g77
g58
NtRp85
(dp86
g61
(dp87
S'_valign'
p88
S'top'
p89
ssg70
g73
sg63
(lp90
S':'
asbag56
(g77
g58
NtRp91
(dp92
g61
(dp93
sg70
g73
sg63
(lp94
g56
(g57
g58
NtRp95
(dp96
g61
(dp97
g69
I5
ssg70
g91
sg63
(lp98
S'False'
p99
asbasbasbag56
(g72
g58
NtRp100
(dp101
g61
(dp102
sg70
g66
sg63
(lp103
g56
(g77
g58
NtRp104
(dp105
g61
(dp106
g81
g82
ssg70
g100
sg63
(lp107
S'application'
p108
asbag56
(g77
g58
NtRp109
(dp110
g61
(dp111
g88
g89
ssg70
g100
sg63
(lp112
S':'
asbag56
(g77
g58
NtRp113
(dp114
g61
(dp115
sg70
g100
sg63
(lp116
g56
(g57
g58
NtRp117
(dp118
g61
(dp119
g69
I5
ssg70
g113
sg63
(lp120
S'Music_Repo'
p121
asbasbasbag56
(g72
g58
NtRp122
(dp123
g61
(dp124
sg70
g66
sg63
(lp125
g56
(g77
g58
NtRp126
(dp127
g61
(dp128
g81
g82
ssg70
g122
sg63
(lp129
g41
asbag56
(g77
g58
NtRp130
(dp131
g61
(dp132
g88
g89
ssg70
g122
sg63
(lp133
S':'
asbag56
(g77
g58
NtRp134
(dp135
g61
(dp136
sg70
g122
sg63
(lp137
g56
(g57
g58
NtRp138
(dp139
g61
(dp140
g69
I5
ssg70
g134
sg63
(lp141
g56
(g65
g58
NtRp142
(dp143
g61
(dp144
g69
I4
ssg70
Nsg63
(lp145
sbasbasbasbag56
(g72
g58
NtRp146
(dp147
g61
(dp148
sg70
g66
sg63
(lp149
g56
(g77
g58
NtRp150
(dp151
g61
(dp152
g81
g82
ssg70
g146
sg63
(lp153
S'body'
p154
asbag56
(g77
g58
NtRp155
(dp156
g61
(dp157
g88
g89
ssg70
g146
sg63
(lp158
S':'
asbag56
(g77
g58
NtRp159
(dp160
g61
(dp161
sg70
g146
sg63
(lp162
g56
(g57
g58
NtRp163
(dp164
g61
(dp165
g69
I5
ssg70
g159
sg63
(lp166
S'<cStringIO.StringO object at 0xb27da20>'
p167
asbasbasbag56
(g72
g58
NtRp168
(dp169
g61
(dp170
sg70
g66
sg63
(lp171
g56
(g77
g58
NtRp172
(dp173
g61
(dp174
g81
g82
ssg70
g168
sg63
(lp175
S'client'
p176
asbag56
(g77
g58
NtRp177
(dp178
g61
(dp179
g88
g89
ssg70
g168
sg63
(lp180
S':'
asbag56
(g77
g58
NtRp181
(dp182
g61
(dp183
sg70
g168
sg63
(lp184
g56
(g57
g58
NtRp185
(dp186
g61
(dp187
g69
I5
ssg70
g181
sg63
(lp188
S'127.0.0.1'
p189
asbasbasbag56
(g72
g58
NtRp190
(dp191
g61
(dp192
sg70
g66
sg63
(lp193
g56
(g77
g58
NtRp194
(dp195
g61
(dp196
g81
g82
ssg70
g190
sg63
(lp197
S'controller'
p198
asbag56
(g77
g58
NtRp199
(dp200
g61
(dp201
g88
g89
ssg70
g190
sg63
(lp202
S':'
asbag56
(g77
g58
NtRp203
(dp204
g61
(dp205
sg70
g190
sg63
(lp206
g56
(g57
g58
NtRp207
(dp208
g61
(dp209
g69
I5
ssg70
g203
sg63
(lp210
S'default'
p211
asbasbasbag56
(g72
g58
NtRp212
(dp213
g61
(dp214
sg70
g66
sg63
(lp215
g56
(g77
g58
NtRp216
(dp217
g61
(dp218
g81
g82
ssg70
g212
sg63
(lp219
S'cookies'
p220
asbag56
(g77
g58
NtRp221
(dp222
g61
(dp223
g88
g89
ssg70
g212
sg63
(lp224
S':'
asbag56
(g77
g58
NtRp225
(dp226
g61
(dp227
sg70
g212
sg63
(lp228
g56
(g57
g58
NtRp229
(dp230
g61
(dp231
g69
I5
ssg70
g225
sg63
(lp232
g56
(g65
g58
NtRp233
(dp234
g61
(dp235
g69
I4
ssg70
Nsg63
(lp236
g56
(g72
g58
NtRp237
(dp238
g61
(dp239
sg70
g233
sg63
(lp240
g56
(g77
g58
NtRp241
(dp242
g61
(dp243
g81
g82
ssg70
g237
sg63
(lp244
S'session_id_admin'
p245
asbag56
(g77
g58
NtRp246
(dp247
g61
(dp248
g88
g89
ssg70
g237
sg63
(lp249
S':'
asbag56
(g77
g58
NtRp250
(dp251
g61
(dp252
sg70
g237
sg63
(lp253
g56
(g57
g58
NtRp254
(dp255
g61
(dp256
g69
I4
ssg70
g250
sg63
(lp257
g56
(g65
g58
NtRp258
(dp259
g61
(dp260
g69
I3
ssg70
Nsg63
(lp261
g56
(g72
g58
NtRp262
(dp263
g61
(dp264
sg70
g258
sg63
(lp265
g56
(g77
g58
NtRp266
(dp267
g61
(dp268
g81
g82
ssg70
g262
sg63
(lp269
S'comment'
p270
asbag56
(g77
g58
NtRp271
(dp272
g61
(dp273
g88
g89
ssg70
g262
sg63
(lp274
S':'
asbag56
(g77
g58
NtRp275
(dp276
g61
(dp277
sg70
g262
sg63
(lp278
g56
(g57
g58
NtRp279
(dp280
g61
(dp281
g69
I3
ssg70
g275
sg63
(lp282
S''
asbasbasbag56
(g72
g58
NtRp283
(dp284
g61
(dp285
sg70
g258
sg63
(lp286
g56
(g77
g58
NtRp287
(dp288
g61
(dp289
g81
g82
ssg70
g283
sg63
(lp290
S'domain'
p291
asbag56
(g77
g58
NtRp292
(dp293
g61
(dp294
g88
g89
ssg70
g283
sg63
(lp295
S':'
asbag56
(g77
g58
NtRp296
(dp297
g61
(dp298
sg70
g283
sg63
(lp299
g56
(g57
g58
NtRp300
(dp301
g61
(dp302
g69
I3
ssg70
g296
sg63
(lp303
S''
asbasbasbag56
(g72
g58
NtRp304
(dp305
g61
(dp306
sg70
g258
sg63
(lp307
g56
(g77
g58
NtRp308
(dp309
g61
(dp310
g81
g82
ssg70
g304
sg63
(lp311
S'expires'
p312
asbag56
(g77
g58
NtRp313
(dp314
g61
(dp315
g88
g89
ssg70
g304
sg63
(lp316
S':'
asbag56
(g77
g58
NtRp317
(dp318
g61
(dp319
sg70
g304
sg63
(lp320
g56
(g57
g58
NtRp321
(dp322
g61
(dp323
g69
I3
ssg70
g317
sg63
(lp324
S''
asbasbasbag56
(g72
g58
NtRp325
(dp326
g61
(dp327
sg70
g258
sg63
(lp328
g56
(g77
g58
NtRp329
(dp330
g61
(dp331
g81
g82
ssg70
g325
sg63
(lp332
S'httponly'
p333
asbag56
(g77
g58
NtRp334
(dp335
g61
(dp336
g88
g89
ssg70
g325
sg63
(lp337
S':'
asbag56
(g77
g58
NtRp338
(dp339
g61
(dp340
sg70
g325
sg63
(lp341
g56
(g57
g58
NtRp342
(dp343
g61
(dp344
g69
I3
ssg70
g338
sg63
(lp345
S''
asbasbasbag56
(g72
g58
NtRp346
(dp347
g61
(dp348
sg70
g258
sg63
(lp349
g56
(g77
g58
NtRp350
(dp351
g61
(dp352
g81
g82
ssg70
g346
sg63
(lp353
S'max-age'
p354
asbag56
(g77
g58
NtRp355
(dp356
g61
(dp357
g88
g89
ssg70
g346
sg63
(lp358
S':'
asbag56
(g77
g58
NtRp359
(dp360
g61
(dp361
sg70
g346
sg63
(lp362
g56
(g57
g58
NtRp363
(dp364
g61
(dp365
g69
I3
ssg70
g359
sg63
(lp366
S''
asbasbasbag56
(g72
g58
NtRp367
(dp368
g61
(dp369
sg70
g258
sg63
(lp370
g56
(g77
g58
NtRp371
(dp372
g61
(dp373
g81
g82
ssg70
g367
sg63
(lp374
S'path'
p375
asbag56
(g77
g58
NtRp376
(dp377
g61
(dp378
g88
g89
ssg70
g367
sg63
(lp379
S':'
asbag56
(g77
g58
NtRp380
(dp381
g61
(dp382
sg70
g367
sg63
(lp383
g56
(g57
g58
NtRp384
(dp385
g61
(dp386
g69
I3
ssg70
g380
sg63
(lp387
S''
asbasbasbag56
(g72
g58
NtRp388
(dp389
g61
(dp390
sg70
g258
sg63
(lp391
g56
(g77
g58
NtRp392
(dp393
g61
(dp394
g81
g82
ssg70
g388
sg63
(lp395
S'secure'
p396
asbag56
(g77
g58
NtRp397
(dp398
g61
(dp399
g88
g89
ssg70
g388
sg63
(lp400
S':'
asbag56
(g77
g58
NtRp401
(dp402
g61
(dp403
sg70
g388
sg63
(lp404
g56
(g57
g58
NtRp405
(dp406
g61
(dp407
g69
I3
ssg70
g401
sg63
(lp408
S''
asbasbasbag56
(g72
g58
NtRp409
(dp410
g61
(dp411
sg70
g258
sg63
(lp412
g56
(g77
g58
NtRp413
(dp414
g61
(dp415
g81
g82
ssg70
g409
sg63
(lp416
S'version'
p417
asbag56
(g77
g58
NtRp418
(dp419
g61
(dp420
g88
g89
ssg70
g409
sg63
(lp421
S':'
asbag56
(g77
g58
NtRp422
(dp423
g61
(dp424
sg70
g409
sg63
(lp425
g56
(g57
g58
NtRp426
(dp427
g61
(dp428
g69
I3
ssg70
g422
sg63
(lp429
S''
asbasbasbasbasbasbasbag56
(g72
g58
NtRp430
(dp431
g61
(dp432
sg70
g233
sg63
(lp433
g56
(g77
g58
NtRp434
(dp435
g61
(dp436
g81
g82
ssg70
g430
sg63
(lp437
S'session_id_music_repo'
p438
asbag56
(g77
g58
NtRp439
(dp440
g61
(dp441
g88
g89
ssg70
g430
sg63
(lp442
S':'
asbag56
(g77
g58
NtRp443
(dp444
g61
(dp445
sg70
g430
sg63
(lp446
g56
(g57
g58
NtRp447
(dp448
g61
(dp449
g69
I4
ssg70
g443
sg63
(lp450
g56
(g65
g58
NtRp451
(dp452
g61
(dp453
g69
I3
ssg70
Nsg63
(lp454
g56
(g72
g58
NtRp455
(dp456
g61
(dp457
sg70
g451
sg63
(lp458
g56
(g77
g58
NtRp459
(dp460
g61
(dp461
g81
g82
ssg70
g455
sg63
(lp462
g270
asbag56
(g77
g58
NtRp463
(dp464
g61
(dp465
g88
g89
ssg70
g455
sg63
(lp466
S':'
asbag56
(g77
g58
NtRp467
(dp468
g61
(dp469
sg70
g455
sg63
(lp470
g56
(g57
g58
NtRp471
(dp472
g61
(dp473
g69
I3
ssg70
g467
sg63
(lp474
S''
asbasbasbag56
(g72
g58
NtRp475
(dp476
g61
(dp477
sg70
g451
sg63
(lp478
g56
(g77
g58
NtRp479
(dp480
g61
(dp481
g81
g82
ssg70
g475
sg63
(lp482
g291
asbag56
(g77
g58
NtRp483
(dp484
g61
(dp485
g88
g89
ssg70
g475
sg63
(lp486
S':'
asbag56
(g77
g58
NtRp487
(dp488
g61
(dp489
sg70
g475
sg63
(lp490
g56
(g57
g58
NtRp491
(dp492
g61
(dp493
g69
I3
ssg70
g487
sg63
(lp494
S''
asbasbasbag56
(g72
g58
NtRp495
(dp496
g61
(dp497
sg70
g451
sg63
(lp498
g56
(g77
g58
NtRp499
(dp500
g61
(dp501
g81
g82
ssg70
g495
sg63
(lp502
g312
asbag56
(g77
g58
NtRp503
(dp504
g61
(dp505
g88
g89
ssg70
g495
sg63
(lp506
S':'
asbag56
(g77
g58
NtRp507
(dp508
g61
(dp509
sg70
g495
sg63
(lp510
g56
(g57
g58
NtRp511
(dp512
g61
(dp513
g69
I3
ssg70
g507
sg63
(lp514
S''
asbasbasbag56
(g72
g58
NtRp515
(dp516
g61
(dp517
sg70
g451
sg63
(lp518
g56
(g77
g58
NtRp519
(dp520
g61
(dp521
g81
g82
ssg70
g515
sg63
(lp522
g333
asbag56
(g77
g58
NtRp523
(dp524
g61
(dp525
g88
g89
ssg70
g515
sg63
(lp526
S':'
asbag56
(g77
g58
NtRp527
(dp528
g61
(dp529
sg70
g515
sg63
(lp530
g56
(g57
g58
NtRp531
(dp532
g61
(dp533
g69
I3
ssg70
g527
sg63
(lp534
S''
asbasbasbag56
(g72
g58
NtRp535
(dp536
g61
(dp537
sg70
g451
sg63
(lp538
g56
(g77
g58
NtRp539
(dp540
g61
(dp541
g81
g82
ssg70
g535
sg63
(lp542
g354
asbag56
(g77
g58
NtRp543
(dp544
g61
(dp545
g88
g89
ssg70
g535
sg63
(lp546
S':'
asbag56
(g77
g58
NtRp547
(dp548
g61
(dp549
sg70
g535
sg63
(lp550
g56
(g57
g58
NtRp551
(dp552
g61
(dp553
g69
I3
ssg70
g547
sg63
(lp554
S''
asbasbasbag56
(g72
g58
NtRp555
(dp556
g61
(dp557
sg70
g451
sg63
(lp558
g56
(g77
g58
NtRp559
(dp560
g61
(dp561
g81
g82
ssg70
g555
sg63
(lp562
g375
asbag56
(g77
g58
NtRp563
(dp564
g61
(dp565
g88
g89
ssg70
g555
sg63
(lp566
S':'
asbag56
(g77
g58
NtRp567
(dp568
g61
(dp569
sg70
g555
sg63
(lp570
g56
(g57
g58
NtRp571
(dp572
g61
(dp573
g69
I3
ssg70
g567
sg63
(lp574
S''
asbasbasbag56
(g72
g58
NtRp575
(dp576
g61
(dp577
sg70
g451
sg63
(lp578
g56
(g77
g58
NtRp579
(dp580
g61
(dp581
g81
g82
ssg70
g575
sg63
(lp582
g396
asbag56
(g77
g58
NtRp583
(dp584
g61
(dp585
g88
g89
ssg70
g575
sg63
(lp586
S':'
asbag56
(g77
g58
NtRp587
(dp588
g61
(dp589
sg70
g575
sg63
(lp590
g56
(g57
g58
NtRp591
(dp592
g61
(dp593
g69
I3
ssg70
g587
sg63
(lp594
S''
asbasbasbag56
(g72
g58
NtRp595
(dp596
g61
(dp597
sg70
g451
sg63
(lp598
g56
(g77
g58
NtRp599
(dp600
g61
(dp601
g81
g82
ssg70
g595
sg63
(lp602
g417
asbag56
(g77
g58
NtRp603
(dp604
g61
(dp605
g88
g89
ssg70
g595
sg63
(lp606
S':'
asbag56
(g77
g58
NtRp607
(dp608
g61
(dp609
sg70
g595
sg63
(lp610
g56
(g57
g58
NtRp611
(dp612
g61
(dp613
g69
I3
ssg70
g607
sg63
(lp614
S''
asbasbasbasbasbasbasbag56
(g72
g58
NtRp615
(dp616
g61
(dp617
sg70
g233
sg63
(lp618
g56
(g77
g58
NtRp619
(dp620
g61
(dp621
g81
g82
ssg70
g615
sg63
(lp622
S'session_id_welcome'
p623
asbag56
(g77
g58
NtRp624
(dp625
g61
(dp626
g88
g89
ssg70
g615
sg63
(lp627
S':'
asbag56
(g77
g58
NtRp628
(dp629
g61
(dp630
sg70
g615
sg63
(lp631
g56
(g57
g58
NtRp632
(dp633
g61
(dp634
g69
I4
ssg70
g628
sg63
(lp635
g56
(g65
g58
NtRp636
(dp637
g61
(dp638
g69
I3
ssg70
Nsg63
(lp639
g56
(g72
g58
NtRp640
(dp641
g61
(dp642
sg70
g636
sg63
(lp643
g56
(g77
g58
NtRp644
(dp645
g61
(dp646
g81
g82
ssg70
g640
sg63
(lp647
g270
asbag56
(g77
g58
NtRp648
(dp649
g61
(dp650
g88
g89
ssg70
g640
sg63
(lp651
S':'
asbag56
(g77
g58
NtRp652
(dp653
g61
(dp654
sg70
g640
sg63
(lp655
g56
(g57
g58
NtRp656
(dp657
g61
(dp658
g69
I3
ssg70
g652
sg63
(lp659
S''
asbasbasbag56
(g72
g58
NtRp660
(dp661
g61
(dp662
sg70
g636
sg63
(lp663
g56
(g77
g58
NtRp664
(dp665
g61
(dp666
g81
g82
ssg70
g660
sg63
(lp667
g291
asbag56
(g77
g58
NtRp668
(dp669
g61
(dp670
g88
g89
ssg70
g660
sg63
(lp671
S':'
asbag56
(g77
g58
NtRp672
(dp673
g61
(dp674
sg70
g660
sg63
(lp675
g56
(g57
g58
NtRp676
(dp677
g61
(dp678
g69
I3
ssg70
g672
sg63
(lp679
S''
asbasbasbag56
(g72
g58
NtRp680
(dp681
g61
(dp682
sg70
g636
sg63
(lp683
g56
(g77
g58
NtRp684
(dp685
g61
(dp686
g81
g82
ssg70
g680
sg63
(lp687
g312
asbag56
(g77
g58
NtRp688
(dp689
g61
(dp690
g88
g89
ssg70
g680
sg63
(lp691
S':'
asbag56
(g77
g58
NtRp692
(dp693
g61
(dp694
sg70
g680
sg63
(lp695
g56
(g57
g58
NtRp696
(dp697
g61
(dp698
g69
I3
ssg70
g692
sg63
(lp699
S''
asbasbasbag56
(g72
g58
NtRp700
(dp701
g61
(dp702
sg70
g636
sg63
(lp703
g56
(g77
g58
NtRp704
(dp705
g61
(dp706
g81
g82
ssg70
g700
sg63
(lp707
g333
asbag56
(g77
g58
NtRp708
(dp709
g61
(dp710
g88
g89
ssg70
g700
sg63
(lp711
S':'
asbag56
(g77
g58
NtRp712
(dp713
g61
(dp714
sg70
g700
sg63
(lp715
g56
(g57
g58
NtRp716
(dp717
g61
(dp718
g69
I3
ssg70
g712
sg63
(lp719
S''
asbasbasbag56
(g72
g58
NtRp720
(dp721
g61
(dp722
sg70
g636
sg63
(lp723
g56
(g77
g58
NtRp724
(dp725
g61
(dp726
g81
g82
ssg70
g720
sg63
(lp727
g354
asbag56
(g77
g58
NtRp728
(dp729
g61
(dp730
g88
g89
ssg70
g720
sg63
(lp731
S':'
asbag56
(g77
g58
NtRp732
(dp733
g61
(dp734
sg70
g720
sg63
(lp735
g56
(g57
g58
NtRp736
(dp737
g61
(dp738
g69
I3
ssg70
g732
sg63
(lp739
S''
asbasbasbag56
(g72
g58
NtRp740
(dp741
g61
(dp742
sg70
g636
sg63
(lp743
g56
(g77
g58
NtRp744
(dp745
g61
(dp746
g81
g82
ssg70
g740
sg63
(lp747
g375
asbag56
(g77
g58
NtRp748
(dp749
g61
(dp750
g88
g89
ssg70
g740
sg63
(lp751
S':'
asbag56
(g77
g58
NtRp752
(dp753
g61
(dp754
sg70
g740
sg63
(lp755
g56
(g57
g58
NtRp756
(dp757
g61
(dp758
g69
I3
ssg70
g752
sg63
(lp759
S''
asbasbasbag56
(g72
g58
NtRp760
(dp761
g61
(dp762
sg70
g636
sg63
(lp763
g56
(g77
g58
NtRp764
(dp765
g61
(dp766
g81
g82
ssg70
g760
sg63
(lp767
g396
asbag56
(g77
g58
NtRp768
(dp769
g61
(dp770
g88
g89
ssg70
g760
sg63
(lp771
S':'
asbag56
(g77
g58
NtRp772
(dp773
g61
(dp774
sg70
g760
sg63
(lp775
g56
(g57
g58
NtRp776
(dp777
g61
(dp778
g69
I3
ssg70
g772
sg63
(lp779
S''
asbasbasbag56
(g72
g58
NtRp780
(dp781
g61
(dp782
sg70
g636
sg63
(lp783
g56
(g77
g58
NtRp784
(dp785
g61
(dp786
g81
g82
ssg70
g780
sg63
(lp787
g417
asbag56
(g77
g58
NtRp788
(dp789
g61
(dp790
g88
g89
ssg70
g780
sg63
(lp791
S':'
asbag56
(g77
g58
NtRp792
(dp793
g61
(dp794
sg70
g780
sg63
(lp795
g56
(g57
g58
NtRp796
(dp797
g61
(dp798
g69
I3
ssg70
g792
sg63
(lp799
S''
asbasbasbasbasbasbasbasbasbasbasbag56
(g72
g58
NtRp800
(dp801
g61
(dp802
sg70
g66
sg63
(lp803
g56
(g77
g58
NtRp804
(dp805
g61
(dp806
g81
g82
ssg70
g800
sg63
(lp807
S'env'
p808
asbag56
(g77
g58
NtRp809
(dp810
g61
(dp811
g88
g89
ssg70
g800
sg63
(lp812
S':'
asbag56
(g77
g58
NtRp813
(dp814
g61
(dp815
sg70
g800
sg63
(lp816
g56
(g57
g58
NtRp817
(dp818
g61
(dp819
g69
I5
ssg70
g813
sg63
(lp820
g56
(g65
g58
NtRp821
(dp822
g61
(dp823
g69
I4
ssg70
Nsg63
(lp824
g56
(g72
g58
NtRp825
(dp826
g61
(dp827
sg70
g821
sg63
(lp828
g56
(g77
g58
NtRp829
(dp830
g61
(dp831
g81
g82
ssg70
g825
sg63
(lp832
S'app_folders'
p833
asbag56
(g77
g58
NtRp834
(dp835
g61
(dp836
g88
g89
ssg70
g825
sg63
(lp837
S':'
asbag56
(g77
g58
NtRp838
(dp839
g61
(dp840
sg70
g825
sg63
(lp841
g56
(g57
g58
NtRp842
(dp843
g61
(dp844
g69
I4
ssg70
g838
sg63
(lp845
S"set(['/home/vsvah/Desktop/Coursework/Sem3/SSAD/web2py/applications/Music_Repo/', '/home/vsvah/Desktop/Coursework/Sem3/SSAD/web2py/applications/admin/', '/home/vsvah/Desktop/Coursework/Sem3/SSAD/web2py/applications/welcome/'])"
p846
asbasbasbag56
(g72
g58
NtRp847
(dp848
g61
(dp849
sg70
g821
sg63
(lp850
g56
(g77
g58
NtRp851
(dp852
g61
(dp853
g81
g82
ssg70
g847
sg63
(lp854
S'applications_parent'
p855
asbag56
(g77
g58
NtRp856
(dp857
g61
(dp858
g88
g89
ssg70
g847
sg63
(lp859
S':'
asbag56
(g77
g58
NtRp860
(dp861
g61
(dp862
sg70
g847
sg63
(lp863
g56
(g57
g58
NtRp864
(dp865
g61
(dp866
g69
I4
ssg70
g860
sg63
(lp867
S'/home/vsvah/Desktop/Coursework/Sem3/SSAD/web2py'
p868
asbasbasbag56
(g72
g58
NtRp869
(dp870
g61
(dp871
sg70
g821
sg63
(lp872
g56
(g77
g58
NtRp873
(dp874
g61
(dp875
g81
g82
ssg70
g869
sg63
(lp876
S'cmd_args'
p877
asbag56
(g77
g58
NtRp878
(dp879
g61
(dp880
g88
g89
ssg70
g869
sg63
(lp881
S':'
asbag56
(g77
g58
NtRp882
(dp883
g61
(dp884
sg70
g869
sg63
(lp885
g56
(g57
g58
NtRp886
(dp887
g61
(dp888
g69
I4
ssg70
g882
sg63
(lp889
g56
(g65
g58
NtRp890
(dp891
g61
(dp892
g69
I3
ssg70
Nsg63
(lp893
sbasbasbasbag56
(g72
g58
NtRp894
(dp895
g61
(dp896
sg70
g821
sg63
(lp897
g56
(g77
g58
NtRp898
(dp899
g61
(dp900
g81
g82
ssg70
g894
sg63
(lp901
S'cmd_options'
p902
asbag56
(g77
g58
NtRp903
(dp904
g61
(dp905
g88
g89
ssg70
g894
sg63
(lp906
S':'
asbag56
(g77
g58
NtRp907
(dp908
g61
(dp909
sg70
g894
sg63
(lp910
g56
(g57
g58
NtRp911
(dp912
g61
(dp913
g69
I4
ssg70
g907
sg63
(lp914
S"<Values at 0xa17704c: {'verbose': False, 'ip': '127.0.0.1', 'shutdown_timeout': 5, 'taskbar': False, 'port': 8000, 'maxthreads': None, 'softcron': False, 'server_name': 'vsvah-laptop', 'bpython': False, 'nogui': False, 'nocron': False, 'extcron': False, 'debuglevel': 30, 'test': None, 'folder': '/home/vsvah/Desktop/Coursework/Sem3/SSAD/web2py', 'config': '', 'import_models': False, 'winservice': '', 'shell': None, 'run': '', 'log_filename': 'httpserver.log', 'args': [''], 'profiler_filename': None, 'ssl_private_key': '', 'password': '<ask>', 'request_queue_size': 5, 'ssl_certificate': '', 'cronjob': False, 'plain': False, 'quiet': False, 'interfaces': None, 'minthreads': None, 'timeout': 10, 'numthreads': None, 'nobanner': False, 'pid_filename': 'httpserver.pid'}>"
p915
asbasbasbag56
(g72
g58
NtRp916
(dp917
g61
(dp918
sg70
g821
sg63
(lp919
g56
(g77
g58
NtRp920
(dp921
g61
(dp922
g81
g82
ssg70
g916
sg63
(lp923
S'db_sessions'
p924
asbag56
(g77
g58
NtRp925
(dp926
g61
(dp927
g88
g89
ssg70
g916
sg63
(lp928
S':'
asbag56
(g77
g58
NtRp929
(dp930
g61
(dp931
sg70
g916
sg63
(lp932
g56
(g57
g58
NtRp933
(dp934
g61
(dp935
g69
I4
ssg70
g929
sg63
(lp936
S'set([])'
p937
asbasbasbag56
(g72
g58
NtRp938
(dp939
g61
(dp940
sg70
g821
sg63
(lp941
g56
(g77
g58
NtRp942
(dp943
g61
(dp944
g81
g82
ssg70
g938
sg63
(lp945
S'debugging'
p946
asbag56
(g77
g58
NtRp947
(dp948
g61
(dp949
g88
g89
ssg70
g938
sg63
(lp950
S':'
asbag56
(g77
g58
NtRp951
(dp952
g61
(dp953
sg70
g938
sg63
(lp954
g56
(g57
g58
NtRp955
(dp956
g61
(dp957
g69
I4
ssg70
g951
sg63
(lp958
g99
asbasbasbag56
(g72
g58
NtRp959
(dp960
g61
(dp961
sg70
g821
sg63
(lp962
g56
(g77
g58
NtRp963
(dp964
g61
(dp965
g81
g82
ssg70
g959
sg63
(lp966
S'gluon_parent'
p967
asbag56
(g77
g58
NtRp968
(dp969
g61
(dp970
g88
g89
ssg70
g959
sg63
(lp971
S':'
asbag56
(g77
g58
NtRp972
(dp973
g61
(dp974
sg70
g959
sg63
(lp975
g56
(g57
g58
NtRp976
(dp977
g61
(dp978
g69
I4
ssg70
g972
sg63
(lp979
S'/home/vsvah/Desktop/Coursework/Sem3/SSAD/web2py'
p980
asbasbasbag56
(g72
g58
NtRp981
(dp982
g61
(dp983
sg70
g821
sg63
(lp984
g56
(g77
g58
NtRp985
(dp986
g61
(dp987
g81
g82
ssg70
g981
sg63
(lp988
S'http_accept'
p989
asbag56
(g77
g58
NtRp990
(dp991
g61
(dp992
g88
g89
ssg70
g981
sg63
(lp993
S':'
asbag56
(g77
g58
NtRp994
(dp995
g61
(dp996
sg70
g981
sg63
(lp997
g56
(g57
g58
NtRp998
(dp999
g61
(dp1000
g69
I4
ssg70
g994
sg63
(lp1001
S'text/html,application/xhtml+xml,application/xml;q=0.9,*/*;q=0.8'
p1002
asbasbasbag56
(g72
g58
NtRp1003
(dp1004
g61
(dp1005
sg70
g821
sg63
(lp1006
g56
(g77
g58
NtRp1007
(dp1008
g61
(dp1009
g81
g82
ssg70
g1003
sg63
(lp1010
S'http_accept_charset'
p1011
asbag56
(g77
g58
NtRp1012
(dp1013
g61
(dp1014
g88
g89
ssg70
g1003
sg63
(lp1015
S':'
asbag56
(g77
g58
NtRp1016
(dp1017
g61
(dp1018
sg70
g1003
sg63
(lp1019
g56
(g57
g58
NtRp1020
(dp1021
g61
(dp1022
g69
I4
ssg70
g1016
sg63
(lp1023
S'ISO-8859-1,utf-8;q=0.7,*;q=0.7'
p1024
asbasbasbag56
(g72
g58
NtRp1025
(dp1026
g61
(dp1027
sg70
g821
sg63
(lp1028
g56
(g77
g58
NtRp1029
(dp1030
g61
(dp1031
g81
g82
ssg70
g1025
sg63
(lp1032
S'http_accept_encoding'
p1033
asbag56
(g77
g58
NtRp1034
(dp1035
g61
(dp1036
g88
g89
ssg70
g1025
sg63
(lp1037
S':'
asbag56
(g77
g58
NtRp1038
(dp1039
g61
(dp1040
sg70
g1025
sg63
(lp1041
g56
(g57
g58
NtRp1042
(dp1043
g61
(dp1044
g69
I4
ssg70
g1038
sg63
(lp1045
S'gzip,deflate'
p1046
asbasbasbag56
(g72
g58
NtRp1047
(dp1048
g61
(dp1049
sg70
g821
sg63
(lp1050
g56
(g77
g58
NtRp1051
(dp1052
g61
(dp1053
g81
g82
ssg70
g1047
sg63
(lp1054
S'http_accept_language'
p1055
asbag56
(g77
g58
NtRp1056
(dp1057
g61
(dp1058
g88
g89
ssg70
g1047
sg63
(lp1059
S':'
asbag56
(g77
g58
NtRp1060
(dp1061
g61
(dp1062
sg70
g1047
sg63
(lp1063
g56
(g57
g58
NtRp1064
(dp1065
g61
(dp1066
g69
I4
ssg70
g1060
sg63
(lp1067
S'en-us,en;q=0.5'
p1068
asbasbasbag56
(g72
g58
NtRp1069
(dp1070
g61
(dp1071
sg70
g821
sg63
(lp1072
g56
(g77
g58
NtRp1073
(dp1074
g61
(dp1075
g81
g82
ssg70
g1069
sg63
(lp1076
S'http_connection'
p1077
asbag56
(g77
g58
NtRp1078
(dp1079
g61
(dp1080
g88
g89
ssg70
g1069
sg63
(lp1081
S':'
asbag56
(g77
g58
NtRp1082
(dp1083
g61
(dp1084
sg70
g1069
sg63
(lp1085
g56
(g57
g58
NtRp1086
(dp1087
g61
(dp1088
g69
I4
ssg70
g1082
sg63
(lp1089
S'keep-alive'
p1090
asbasbasbag56
(g72
g58
NtRp1091
(dp1092
g61
(dp1093
sg70
g821
sg63
(lp1094
g56
(g77
g58
NtRp1095
(dp1096
g61
(dp1097
g81
g82
ssg70
g1091
sg63
(lp1098
S'http_cookie'
p1099
asbag56
(g77
g58
NtRp1100
(dp1101
g61
(dp1102
g88
g89
ssg70
g1091
sg63
(lp1103
S':'
asbag56
(g77
g58
NtRp1104
(dp1105
g61
(dp1106
sg70
g1091
sg63
(lp1107
g56
(g57
g58
NtRp1108
(dp1109
g61
(dp1110
g69
I4
ssg70
g1104
sg63
(lp1111
S'session_id_welcome=127.0.0.1-4768e59f-be37-4bf8-bfff-bc793ba4c0eb; session_id_admin=127.0.0.1-e201a2ca-01a5-46de-bfba-f3c3291e2f67; session_id_music_repo=127.0.0.1-0cc5ad7f-61ca-479a-933d-b13352216d24'
p1112
asbasbasbag56
(g72
g58
NtRp1113
(dp1114
g61
(dp1115
sg70
g821
sg63
(lp1116
g56
(g77
g58
NtRp1117
(dp1118
g61
(dp1119
g81
g82
ssg70
g1113
sg63
(lp1120
S'http_host'
p1121
asbag56
(g77
g58
NtRp1122
(dp1123
g61
(dp1124
g88
g89
ssg70
g1113
sg63
(lp1125
S':'
asbag56
(g77
g58
NtRp1126
(dp1127
g61
(dp1128
sg70
g1113
sg63
(lp1129
g56
(g57
g58
NtRp1130
(dp1131
g61
(dp1132
g69
I4
ssg70
g1126
sg63
(lp1133
S'127.0.0.1:8000'
p1134
asbasbasbag56
(g72
g58
NtRp1135
(dp1136
g61
(dp1137
sg70
g821
sg63
(lp1138
g56
(g77
g58
NtRp1139
(dp1140
g61
(dp1141
g81
g82
ssg70
g1135
sg63
(lp1142
S'http_keep_alive'
p1143
asbag56
(g77
g58
NtRp1144
(dp1145
g61
(dp1146
g88
g89
ssg70
g1135
sg63
(lp1147
S':'
asbag56
(g77
g58
NtRp1148
(dp1149
g61
(dp1150
sg70
g1135
sg63
(lp1151
g56
(g57
g58
NtRp1152
(dp1153
g61
(dp1154
g69
I4
ssg70
g1148
sg63
(lp1155
S'115'
p1156
asbasbasbag56
(g72
g58
NtRp1157
(dp1158
g61
(dp1159
sg70
g821
sg63
(lp1160
g56
(g77
g58
NtRp1161
(dp1162
g61
(dp1163
g81
g82
ssg70
g1157
sg63
(lp1164
S'http_referer'
p1165
asbag56
(g77
g58
NtRp1166
(dp1167
g61
(dp1168
g88
g89
ssg70
g1157
sg63
(lp1169
S':'
asbag56
(g77
g58
NtRp1170
(dp1171
g61
(dp1172
sg70
g1157
sg63
(lp1173
g56
(g57
g58
NtRp1174
(dp1175
g61
(dp1176
g69
I4
ssg70
g1170
sg63
(lp1177
S'http://127.0.0.1:8000/Music_Repo/default/movie_artist_query'
p1178
asbasbasbag56
(g72
g58
NtRp1179
(dp1180
g61
(dp1181
sg70
g821
sg63
(lp1182
g56
(g77
g58
NtRp1183
(dp1184
g61
(dp1185
g81
g82
ssg70
g1179
sg63
(lp1186
S'http_user_agent'
p1187
asbag56
(g77
g58
NtRp1188
(dp1189
g61
(dp1190
g88
g89
ssg70
g1179
sg63
(lp1191
S':'
asbag56
(g77
g58
NtRp1192
(dp1193
g61
(dp1194
sg70
g1179
sg63
(lp1195
g56
(g57
g58
NtRp1196
(dp1197
g61
(dp1198
g69
I4
ssg70
g1192
sg63
(lp1199
S'Mozilla/5.0 (X11; U; Linux i686; en-US; rv:1.9.2.16) Gecko/20110323 Ubuntu/10.04 (lucid) Firefox/3.6.16'
p1200
asbasbasbag56
(g72
g58
NtRp1201
(dp1202
g61
(dp1203
sg70
g821
sg63
(lp1204
g56
(g77
g58
NtRp1205
(dp1206
g61
(dp1207
g81
g82
ssg70
g1201
sg63
(lp1208
S'is_jython'
p1209
asbag56
(g77
g58
NtRp1210
(dp1211
g61
(dp1212
g88
g89
ssg70
g1201
sg63
(lp1213
S':'
asbag56
(g77
g58
NtRp1214
(dp1215
g61
(dp1216
sg70
g1201
sg63
(lp1217
g56
(g57
g58
NtRp1218
(dp1219
g61
(dp1220
g69
I4
ssg70
g1214
sg63
(lp1221
g99
asbasbasbag56
(g72
g58
NtRp1222
(dp1223
g61
(dp1224
sg70
g821
sg63
(lp1225
g56
(g77
g58
NtRp1226
(dp1227
g61
(dp1228
g81
g82
ssg70
g1222
sg63
(lp1229
S'path_info'
p1230
asbag56
(g77
g58
NtRp1231
(dp1232
g61
(dp1233
g88
g89
ssg70
g1222
sg63
(lp1234
S':'
asbag56
(g77
g58
NtRp1235
(dp1236
g61
(dp1237
sg70
g1222
sg63
(lp1238
g56
(g57
g58
NtRp1239
(dp1240
g61
(dp1241
g69
I4
ssg70
g1235
sg63
(lp1242
S'/Music_Repo/default/display_link'
p1243
asbasbasbag56
(g72
g58
NtRp1244
(dp1245
g61
(dp1246
sg70
g821
sg63
(lp1247
g56
(g77
g58
NtRp1248
(dp1249
g61
(dp1250
g81
g82
ssg70
g1244
sg63
(lp1251
S'query_string'
p1252
asbag56
(g77
g58
NtRp1253
(dp1254
g61
(dp1255
g88
g89
ssg70
g1244
sg63
(lp1256
S':'
asbag56
(g77
g58
NtRp1257
(dp1258
g61
(dp1259
sg70
g1244
sg63
(lp1260
g56
(g57
g58
NtRp1261
(dp1262
g61
(dp1263
g69
I4
ssg70
g1257
sg63
(lp1264
S''
asbasbasbag56
(g72
g58
NtRp1265
(dp1266
g61
(dp1267
sg70
g821
sg63
(lp1268
g56
(g77
g58
NtRp1269
(dp1270
g61
(dp1271
g81
g82
ssg70
g1265
sg63
(lp1272
S'remote_addr'
p1273
asbag56
(g77
g58
NtRp1274
(dp1275
g61
(dp1276
g88
g89
ssg70
g1265
sg63
(lp1277
S':'
asbag56
(g77
g58
NtRp1278
(dp1279
g61
(dp1280
sg70
g1265
sg63
(lp1281
g56
(g57
g58
NtRp1282
(dp1283
g61
(dp1284
g69
I4
ssg70
g1278
sg63
(lp1285
g189
asbasbasbag56
(g72
g58
NtRp1286
(dp1287
g61
(dp1288
sg70
g821
sg63
(lp1289
g56
(g77
g58
NtRp1290
(dp1291
g61
(dp1292
g81
g82
ssg70
g1286
sg63
(lp1293
S'remote_port'
p1294
asbag56
(g77
g58
NtRp1295
(dp1296
g61
(dp1297
g88
g89
ssg70
g1286
sg63
(lp1298
S':'
asbag56
(g77
g58
NtRp1299
(dp1300
g61
(dp1301
sg70
g1286
sg63
(lp1302
g56
(g57
g58
NtRp1303
(dp1304
g61
(dp1305
g69
I4
ssg70
g1299
sg63
(lp1306
S'59417'
p1307
asbasbasbag56
(g72
g58
NtRp1308
(dp1309
g61
(dp1310
sg70
g821
sg63
(lp1311
g56
(g77
g58
NtRp1312
(dp1313
g61
(dp1314
g81
g82
ssg70
g1308
sg63
(lp1315
S'request_method'
p1316
asbag56
(g77
g58
NtRp1317
(dp1318
g61
(dp1319
g88
g89
ssg70
g1308
sg63
(lp1320
S':'
asbag56
(g77
g58
NtRp1321
(dp1322
g61
(dp1323
sg70
g1308
sg63
(lp1324
g56
(g57
g58
NtRp1325
(dp1326
g61
(dp1327
g69
I4
ssg70
g1321
sg63
(lp1328
S'GET'
p1329
asbasbasbag56
(g72
g58
NtRp1330
(dp1331
g61
(dp1332
sg70
g821
sg63
(lp1333
g56
(g77
g58
NtRp1334
(dp1335
g61
(dp1336
g81
g82
ssg70
g1330
sg63
(lp1337
S'script_name'
p1338
asbag56
(g77
g58
NtRp1339
(dp1340
g61
(dp1341
g88
g89
ssg70
g1330
sg63
(lp1342
S':'
asbag56
(g77
g58
NtRp1343
(dp1344
g61
(dp1345
sg70
g1330
sg63
(lp1346
g56
(g57
g58
NtRp1347
(dp1348
g61
(dp1349
g69
I4
ssg70
g1343
sg63
(lp1350
S''
asbasbasbag56
(g72
g58
NtRp1351
(dp1352
g61
(dp1353
sg70
g821
sg63
(lp1354
g56
(g77
g58
NtRp1355
(dp1356
g61
(dp1357
g81
g82
ssg70
g1351
sg63
(lp1358
S'server_name'
p1359
asbag56
(g77
g58
NtRp1360
(dp1361
g61
(dp1362
g88
g89
ssg70
g1351
sg63
(lp1363
S':'
asbag56
(g77
g58
NtRp1364
(dp1365
g61
(dp1366
sg70
g1351
sg63
(lp1367
g56
(g57
g58
NtRp1368
(dp1369
g61
(dp1370
g69
I4
ssg70
g1364
sg63
(lp1371
S'vsvah-laptop'
p1372
asbasbasbag56
(g72
g58
NtRp1373
(dp1374
g61
(dp1375
sg70
g821
sg63
(lp1376
g56
(g77
g58
NtRp1377
(dp1378
g61
(dp1379
g81
g82
ssg70
g1373
sg63
(lp1380
S'server_port'
p1381
asbag56
(g77
g58
NtRp1382
(dp1383
g61
(dp1384
g88
g89
ssg70
g1373
sg63
(lp1385
S':'
asbag56
(g77
g58
NtRp1386
(dp1387
g61
(dp1388
sg70
g1373
sg63
(lp1389
g56
(g57
g58
NtRp1390
(dp1391
g61
(dp1392
g69
I4
ssg70
g1386
sg63
(lp1393
S'8000'
p1394
asbasbasbag56
(g72
g58
NtRp1395
(dp1396
g61
(dp1397
sg70
g821
sg63
(lp1398
g56
(g77
g58
NtRp1399
(dp1400
g61
(dp1401
g81
g82
ssg70
g1395
sg63
(lp1402
S'server_protocol'
p1403
asbag56
(g77
g58
NtRp1404
(dp1405
g61
(dp1406
g88
g89
ssg70
g1395
sg63
(lp1407
S':'
asbag56
(g77
g58
NtRp1408
(dp1409
g61
(dp1410
sg70
g1395
sg63
(lp1411
g56
(g57
g58
NtRp1412
(dp1413
g61
(dp1414
g69
I4
ssg70
g1408
sg63
(lp1415
S'HTTP/1.1'
p1416
asbasbasbag56
(g72
g58
NtRp1417
(dp1418
g61
(dp1419
sg70
g821
sg63
(lp1420
g56
(g77
g58
NtRp1421
(dp1422
g61
(dp1423
g81
g82
ssg70
g1417
sg63
(lp1424
S'server_software'
p1425
asbag56
(g77
g58
NtRp1426
(dp1427
g61
(dp1428
g88
g89
ssg70
g1417
sg63
(lp1429
S':'
asbag56
(g77
g58
NtRp1430
(dp1431
g61
(dp1432
sg70
g1417
sg63
(lp1433
g56
(g57
g58
NtRp1434
(dp1435
g61
(dp1436
g69
I4
ssg70
g1430
sg63
(lp1437
S'Rocket 1.2.2'
p1438
asbasbasbag56
(g72
g58
NtRp1439
(dp1440
g61
(dp1441
sg70
g821
sg63
(lp1442
g56
(g77
g58
NtRp1443
(dp1444
g61
(dp1445
g81
g82
ssg70
g1439
sg63
(lp1446
S'web2py_crontype'
p1447
asbag56
(g77
g58
NtRp1448
(dp1449
g61
(dp1450
g88
g89
ssg70
g1439
sg63
(lp1451
S':'
asbag56
(g77
g58
NtRp1452
(dp1453
g61
(dp1454
sg70
g1439
sg63
(lp1455
g56
(g57
g58
NtRp1456
(dp1457
g61
(dp1458
g69
I4
ssg70
g1452
sg63
(lp1459
S'hard'
p1460
asbasbasbag56
(g72
g58
NtRp1461
(dp1462
g61
(dp1463
sg70
g821
sg63
(lp1464
g56
(g77
g58
NtRp1465
(dp1466
g61
(dp1467
g81
g82
ssg70
g1461
sg63
(lp1468
S'web2py_path'
p1469
asbag56
(g77
g58
NtRp1470
(dp1471
g61
(dp1472
g88
g89
ssg70
g1461
sg63
(lp1473
S':'
asbag56
(g77
g58
NtRp1474
(dp1475
g61
(dp1476
sg70
g1461
sg63
(lp1477
g56
(g57
g58
NtRp1478
(dp1479
g61
(dp1480
g69
I4
ssg70
g1474
sg63
(lp1481
g868
asbasbasbag56
(g72
g58
NtRp1482
(dp1483
g61
(dp1484
sg70
g821
sg63
(lp1485
g56
(g77
g58
NtRp1486
(dp1487
g61
(dp1488
g81
g82
ssg70
g1482
sg63
(lp1489
S'web2py_version'
p1490
asbag56
(g77
g58
NtRp1491
(dp1492
g61
(dp1493
g88
g89
ssg70
g1482
sg63
(lp1494
S':'
asbag56
(g77
g58
NtRp1495
(dp1496
g61
(dp1497
sg70
g1482
sg63
(lp1498
g56
(g57
g58
NtRp1499
(dp1500
g61
(dp1501
g69
I4
ssg70
g1495
sg63
(lp1502
S'Version 1.98.2 (2011-08-04 00:47:09)\n'
p1503
asbasbasbag56
(g72
g58
NtRp1504
(dp1505
g61
(dp1506
sg70
g821
sg63
(lp1507
g56
(g77
g58
NtRp1508
(dp1509
g61
(dp1510
g81
g82
ssg70
g1504
sg63
(lp1511
S'wsgi_errors'
p1512
asbag56
(g77
g58
NtRp1513
(dp1514
g61
(dp1515
g88
g89
ssg70
g1504
sg63
(lp1516
S':'
asbag56
(g77
g58
NtRp1517
(dp1518
g61
(dp1519
sg70
g1504
sg63
(lp1520
g56
(g57
g58
NtRp1521
(dp1522
g61
(dp1523
g69
I4
ssg70
g1517
sg63
(lp1524
S"<open file '<stderr>', mode 'w' at 0xb78110d0>"
p1525
asbasbasbag56
(g72
g58
NtRp1526
(dp1527
g61
(dp1528
sg70
g821
sg63
(lp1529
g56
(g77
g58
NtRp1530
(dp1531
g61
(dp1532
g81
g82
ssg70
g1526
sg63
(lp1533
S'wsgi_file_wrapper'
p1534
asbag56
(g77
g58
NtRp1535
(dp1536
g61
(dp1537
g88
g89
ssg70
g1526
sg63
(lp1538
S':'
asbag56
(g77
g58
NtRp1539
(dp1540
g61
(dp1541
sg70
g1526
sg63
(lp1542
g56
(g57
g58
NtRp1543
(dp1544
g61
(dp1545
g69
I4
ssg70
g1539
sg63
(lp1546
S'<class gluon.rocket.FileWrapper at 0xa07f08c>'
p1547
asbasbasbag56
(g72
g58
NtRp1548
(dp1549
g61
(dp1550
sg70
g821
sg63
(lp1551
g56
(g77
g58
NtRp1552
(dp1553
g61
(dp1554
g81
g82
ssg70
g1548
sg63
(lp1555
S'wsgi_input'
p1556
asbag56
(g77
g58
NtRp1557
(dp1558
g61
(dp1559
g88
g89
ssg70
g1548
sg63
(lp1560
S':'
asbag56
(g77
g58
NtRp1561
(dp1562
g61
(dp1563
sg70
g1548
sg63
(lp1564
g56
(g57
g58
NtRp1565
(dp1566
g61
(dp1567
g69
I4
ssg70
g1561
sg63
(lp1568
S'<socket._fileobject object at 0xb3513ec>'
p1569
asbasbasbag56
(g72
g58
NtRp1570
(dp1571
g61
(dp1572
sg70
g821
sg63
(lp1573
g56
(g77
g58
NtRp1574
(dp1575
g61
(dp1576
g81
g82
ssg70
g1570
sg63
(lp1577
S'wsgi_multiprocess'
p1578
asbag56
(g77
g58
NtRp1579
(dp1580
g61
(dp1581
g88
g89
ssg70
g1570
sg63
(lp1582
S':'
asbag56
(g77
g58
NtRp1583
(dp1584
g61
(dp1585
sg70
g1570
sg63
(lp1586
g56
(g57
g58
NtRp1587
(dp1588
g61
(dp1589
g69
I4
ssg70
g1583
sg63
(lp1590
g99
asbasbasbag56
(g72
g58
NtRp1591
(dp1592
g61
(dp1593
sg70
g821
sg63
(lp1594
g56
(g77
g58
NtRp1595
(dp1596
g61
(dp1597
g81
g82
ssg70
g1591
sg63
(lp1598
S'wsgi_multithread'
p1599
asbag56
(g77
g58
NtRp1600
(dp1601
g61
(dp1602
g88
g89
ssg70
g1591
sg63
(lp1603
S':'
asbag56
(g77
g58
NtRp1604
(dp1605
g61
(dp1606
sg70
g1591
sg63
(lp1607
g56
(g57
g58
NtRp1608
(dp1609
g61
(dp1610
g69
I4
ssg70
g1604
sg63
(lp1611
S'True'
p1612
asbasbasbag56
(g72
g58
NtRp1613
(dp1614
g61
(dp1615
sg70
g821
sg63
(lp1616
g56
(g77
g58
NtRp1617
(dp1618
g61
(dp1619
g81
g82
ssg70
g1613
sg63
(lp1620
S'wsgi_run_once'
p1621
asbag56
(g77
g58
NtRp1622
(dp1623
g61
(dp1624
g88
g89
ssg70
g1613
sg63
(lp1625
S':'
asbag56
(g77
g58
NtRp1626
(dp1627
g61
(dp1628
sg70
g1613
sg63
(lp1629
g56
(g57
g58
NtRp1630
(dp1631
g61
(dp1632
g69
I4
ssg70
g1626
sg63
(lp1633
g99
asbasbasbag56
(g72
g58
NtRp1634
(dp1635
g61
(dp1636
sg70
g821
sg63
(lp1637
g56
(g77
g58
NtRp1638
(dp1639
g61
(dp1640
g81
g82
ssg70
g1634
sg63
(lp1641
S'wsgi_url_scheme'
p1642
asbag56
(g77
g58
NtRp1643
(dp1644
g61
(dp1645
g88
g89
ssg70
g1634
sg63
(lp1646
S':'
asbag56
(g77
g58
NtRp1647
(dp1648
g61
(dp1649
sg70
g1634
sg63
(lp1650
g56
(g57
g58
NtRp1651
(dp1652
g61
(dp1653
g69
I4
ssg70
g1647
sg63
(lp1654
S'http'
p1655
asbasbasbag56
(g72
g58
NtRp1656
(dp1657
g61
(dp1658
sg70
g821
sg63
(lp1659
g56
(g77
g58
NtRp1660
(dp1661
g61
(dp1662
g81
g82
ssg70
g1656
sg63
(lp1663
S'wsgi_version'
p1664
asbag56
(g77
g58
NtRp1665
(dp1666
g61
(dp1667
g88
g89
ssg70
g1656
sg63
(lp1668
S':'
asbag56
(g77
g58
NtRp1669
(dp1670
g61
(dp1671
sg70
g1656
sg63
(lp1672
g56
(g57
g58
NtRp1673
(dp1674
g61
(dp1675
g69
I4
ssg70
g1669
sg63
(lp1676
g56
(g65
g58
NtRp1677
(dp1678
g61
(dp1679
g69
I3
ssg70
Nsg63
(lp1680
g56
(g72
g58
NtRp1681
(dp1682
g61
(dp1683
sg70
g1677
sg63
(lp1684
g56
(g77
g58
NtRp1685
(dp1686
g61
(dp1687
sg70
g1681
sg63
(lp1688
g56
(g57
g58
NtRp1689
(dp1690
g61
(dp1691
g69
I3
ssg70
g1685
sg63
(lp1692
S'1'
asbasbasbag56
(g72
g58
NtRp1693
(dp1694
g61
(dp1695
sg70
g1677
sg63
(lp1696
g56
(g77
g58
NtRp1697
(dp1698
g61
(dp1699
sg70
g1693
sg63
(lp1700
g56
(g57
g58
NtRp1701
(dp1702
g61
(dp1703
g69
I3
ssg70
g1697
sg63
(lp1704
S'0'
asbasbasbasbasbasbasbasbasbasbasbag56
(g72
g58
NtRp1705
(dp1706
g61
(dp1707
sg70
g66
sg63
(lp1708
g56
(g77
g58
NtRp1709
(dp1710
g61
(dp1711
g81
g82
ssg70
g1705
sg63
(lp1712
S'extension'
p1713
asbag56
(g77
g58
NtRp1714
(dp1715
g61
(dp1716
g88
g89
ssg70
g1705
sg63
(lp1717
S':'
asbag56
(g77
g58
NtRp1718
(dp1719
g61
(dp1720
sg70
g1705
sg63
(lp1721
g56
(g57
g58
NtRp1722
(dp1723
g61
(dp1724
g69
I5
ssg70
g1718
sg63
(lp1725
S'html'
p1726
asbasbasbag56
(g72
g58
NtRp1727
(dp1728
g61
(dp1729
sg70
g66
sg63
(lp1730
g56
(g77
g58
NtRp1731
(dp1732
g61
(dp1733
g81
g82
ssg70
g1727
sg63
(lp1734
S'folder'
p1735
asbag56
(g77
g58
NtRp1736
(dp1737
g61
(dp1738
g88
g89
ssg70
g1727
sg63
(lp1739
S':'
asbag56
(g77
g58
NtRp1740
(dp1741
g61
(dp1742
sg70
g1727
sg63
(lp1743
g56
(g57
g58
NtRp1744
(dp1745
g61
(dp1746
g69
I5
ssg70
g1740
sg63
(lp1747
S'/home/vsvah/Desktop/Coursework/Sem3/SSAD/web2py/applications/Music_Repo/'
p1748
asbasbasbag56
(g72
g58
NtRp1749
(dp1750
g61
(dp1751
sg70
g66
sg63
(lp1752
g56
(g77
g58
NtRp1753
(dp1754
g61
(dp1755
g81
g82
ssg70
g1749
sg63
(lp1756
S'function'
p1757
asbag56
(g77
g58
NtRp1758
(dp1759
g61
(dp1760
g88
g89
ssg70
g1749
sg63
(lp1761
S':'
asbag56
(g77
g58
NtRp1762
(dp1763
g61
(dp1764
sg70
g1749
sg63
(lp1765
g56
(g57
g58
NtRp1766
(dp1767
g61
(dp1768
g69
I5
ssg70
g1762
sg63
(lp1769
S'display_link'
p1770
asbasbasbag56
(g72
g58
NtRp1771
(dp1772
g61
(dp1773
sg70
g66
sg63
(lp1774
g56
(g77
g58
NtRp1775
(dp1776
g61
(dp1777
g81
g82
ssg70
g1771
sg63
(lp1778
S'get_vars'
p1779
asbag56
(g77
g58
NtRp1780
(dp1781
g61
(dp1782
g88
g89
ssg70
g1771
sg63
(lp1783
S':'
asbag56
(g77
g58
NtRp1784
(dp1785
g61
(dp1786
sg70
g1771
sg63
(lp1787
g56
(g57
g58
NtRp1788
(dp1789
g61
(dp1790
g69
I5
ssg70
g1784
sg63
(lp1791
g56
(g65
g58
NtRp1792
(dp1793
g61
(dp1794
g69
I4
ssg70
Nsg63
(lp1795
sbasbasbasbag56
(g72
g58
NtRp1796
(dp1797
g61
(dp1798
sg70
g66
sg63
(lp1799
g56
(g77
g58
NtRp1800
(dp1801
g61
(dp1802
g81
g82
ssg70
g1796
sg63
(lp1803
S'is_https'
p1804
asbag56
(g77
g58
NtRp1805
(dp1806
g61
(dp1807
g88
g89
ssg70
g1796
sg63
(lp1808
S':'
asbag56
(g77
g58
NtRp1809
(dp1810
g61
(dp1811
sg70
g1796
sg63
(lp1812
g56
(g57
g58
NtRp1813
(dp1814
g61
(dp1815
g69
I5
ssg70
g1809
sg63
(lp1816
g99
asbasbasbag56
(g72
g58
NtRp1817
(dp1818
g61
(dp1819
sg70
g66
sg63
(lp1820
g56
(g77
g58
NtRp1821
(dp1822
g61
(dp1823
g81
g82
ssg70
g1817
sg63
(lp1824
S'is_local'
p1825
asbag56
(g77
g58
NtRp1826
(dp1827
g61
(dp1828
g88
g89
ssg70
g1817
sg63
(lp1829
S':'
asbag56
(g77
g58
NtRp1830
(dp1831
g61
(dp1832
sg70
g1817
sg63
(lp1833
g56
(g57
g58
NtRp1834
(dp1835
g61
(dp1836
g69
I5
ssg70
g1830
sg63
(lp1837
g1612
asbasbasbag56
(g72
g58
NtRp1838
(dp1839
g61
(dp1840
sg70
g66
sg63
(lp1841
g56
(g77
g58
NtRp1842
(dp1843
g61
(dp1844
g81
g82
ssg70
g1838
sg63
(lp1845
S'is_restful'
p1846
asbag56
(g77
g58
NtRp1847
(dp1848
g61
(dp1849
g88
g89
ssg70
g1838
sg63
(lp1850
S':'
asbag56
(g77
g58
NtRp1851
(dp1852
g61
(dp1853
sg70
g1838
sg63
(lp1854
g56
(g57
g58
NtRp1855
(dp1856
g61
(dp1857
g69
I5
ssg70
g1851
sg63
(lp1858
g99
asbasbasbag56
(g72
g58
NtRp1859
(dp1860
g61
(dp1861
sg70
g66
sg63
(lp1862
g56
(g77
g58
NtRp1863
(dp1864
g61
(dp1865
g81
g82
ssg70
g1859
sg63
(lp1866
S'now'
p1867
asbag56
(g77
g58
NtRp1868
(dp1869
g61
(dp1870
g88
g89
ssg70
g1859
sg63
(lp1871
S':'
asbag56
(g77
g58
NtRp1872
(dp1873
g61
(dp1874
sg70
g1859
sg63
(lp1875
g56
(g57
g58
NtRp1876
(dp1877
g61
(dp1878
g69
I5
ssg70
g1872
sg63
(lp1879
S'datetime.datetime(2011, 9, 7, 16, 17, 36, 647182)'
p1880
asbasbasbag56
(g72
g58
NtRp1881
(dp1882
g61
(dp1883
sg70
g66
sg63
(lp1884
g56
(g77
g58
NtRp1885
(dp1886
g61
(dp1887
g81
g82
ssg70
g1881
sg63
(lp1888
S'post_vars'
p1889
asbag56
(g77
g58
NtRp1890
(dp1891
g61
(dp1892
g88
g89
ssg70
g1881
sg63
(lp1893
S':'
asbag56
(g77
g58
NtRp1894
(dp1895
g61
(dp1896
sg70
g1881
sg63
(lp1897
g56
(g57
g58
NtRp1898
(dp1899
g61
(dp1900
g69
I5
ssg70
g1894
sg63
(lp1901
g56
(g65
g58
NtRp1902
(dp1903
g61
(dp1904
g69
I4
ssg70
Nsg63
(lp1905
sbasbasbasbag56
(g72
g58
NtRp1906
(dp1907
g61
(dp1908
sg70
g66
sg63
(lp1909
g56
(g77
g58
NtRp1910
(dp1911
g61
(dp1912
g81
g82
ssg70
g1906
sg63
(lp1913
S'url'
p1914
asbag56
(g77
g58
NtRp1915
(dp1916
g61
(dp1917
g88
g89
ssg70
g1906
sg63
(lp1918
S':'
asbag56
(g77
g58
NtRp1919
(dp1920
g61
(dp1921
sg70
g1906
sg63
(lp1922
g56
(g57
g58
NtRp1923
(dp1924
g61
(dp1925
g69
I5
ssg70
g1919
sg63
(lp1926
S'/Music_Repo/default/display_link'
p1927
asbasbasbag56
(g72
g58
NtRp1928
(dp1929
g61
(dp1930
sg70
g66
sg63
(lp1931
g56
(g77
g58
NtRp1932
(dp1933
g61
(dp1934
g81
g82
ssg70
g1928
sg63
(lp1935
S'uuid'
p1936
asbag56
(g77
g58
NtRp1937
(dp1938
g61
(dp1939
g88
g89
ssg70
g1928
sg63
(lp1940
S':'
asbag56
(g77
g58
NtRp1941
(dp1942
g61
(dp1943
sg70
g1928
sg63
(lp1944
g56
(g57
g58
NtRp1945
(dp1946
g61
(dp1947
g69
I5
ssg70
g1941
sg63
(lp1948
S'Music_Repo/127.0.0.1.2011-09-07.16-17-36.47c166a4-cd47-4933-a679-1c8f05cb86ca'
p1949
asbasbasbag56
(g72
g58
NtRp1950
(dp1951
g61
(dp1952
sg70
g66
sg63
(lp1953
g56
(g77
g58
NtRp1954
(dp1955
g61
(dp1956
g81
g82
ssg70
g1950
sg63
(lp1957
S'vars'
p1958
asbag56
(g77
g58
NtRp1959
(dp1960
g61
(dp1961
g88
g89
ssg70
g1950
sg63
(lp1962
S':'
asbag56
(g77
g58
NtRp1963
(dp1964
g61
(dp1965
sg70
g1950
sg63
(lp1966
g56
(g57
g58
NtRp1967
(dp1968
g61
(dp1969
g69
I5
ssg70
g1963
sg63
(lp1970
g56
(g65
g58
NtRp1971
(dp1972
g61
(dp1973
g69
I4
ssg70
Nsg63
(lp1974
sbasbasbasbag56
(g72
g58
NtRp1975
(dp1976
g61
(dp1977
sg70
g66
sg63
(lp1978
g56
(g77
g58
NtRp1979
(dp1980
g61
(dp1981
g81
g82
ssg70
g1975
sg63
(lp1982
S'wsgi'
p1983
asbag56
(g77
g58
NtRp1984
(dp1985
g61
(dp1986
g88
g89
ssg70
g1975
sg63
(lp1987
S':'
asbag56
(g77
g58
NtRp1988
(dp1989
g61
(dp1990
sg70
g1975
sg63
(lp1991
g56
(g57
g58
NtRp1992
(dp1993
g61
(dp1994
g69
I5
ssg70
g1988
sg63
(lp1995
g56
(g65
g58
NtRp1996
(dp1997
g61
(dp1998
g69
I4
ssg70
Nsg63
(lp1999
g56
(g72
g58
NtRp2000
(dp2001
g61
(dp2002
sg70
g1996
sg63
(lp2003
g56
(g77
g58
NtRp2004
(dp2005
g61
(dp2006
g81
g82
ssg70
g2000
sg63
(lp2007
S'environ'
p2008
asbag56
(g77
g58
NtRp2009
(dp2010
g61
(dp2011
g88
g89
ssg70
g2000
sg63
(lp2012
S':'
asbag56
(g77
g58
NtRp2013
(dp2014
g61
(dp2015
sg70
g2000
sg63
(lp2016
g56
(g57
g58
NtRp2017
(dp2018
g61
(dp2019
g69
I4
ssg70
g2013
sg63
(lp2020
g56
(g65
g58
NtRp2021
(dp2022
g61
(dp2023
g69
I3
ssg70
Nsg63
(lp2024
g56
(g72
g58
NtRp2025
(dp2026
g61
(dp2027
sg70
g2021
sg63
(lp2028
g56
(g77
g58
NtRp2029
(dp2030
g61
(dp2031
g81
g82
ssg70
g2025
sg63
(lp2032
S'HTTP_ACCEPT'
p2033
asbag56
(g77
g58
NtRp2034
(dp2035
g61
(dp2036
g88
g89
ssg70
g2025
sg63
(lp2037
S':'
asbag56
(g77
g58
NtRp2038
(dp2039
g61
(dp2040
sg70
g2025
sg63
(lp2041
g56
(g57
g58
NtRp2042
(dp2043
g61
(dp2044
g69
I3
ssg70
g2038
sg63
(lp2045
g1002
asbasbasbag56
(g72
g58
NtRp2046
(dp2047
g61
(dp2048
sg70
g2021
sg63
(lp2049
g56
(g77
g58
NtRp2050
(dp2051
g61
(dp2052
g81
g82
ssg70
g2046
sg63
(lp2053
S'HTTP_ACCEPT_CHARSET'
p2054
asbag56
(g77
g58
NtRp2055
(dp2056
g61
(dp2057
g88
g89
ssg70
g2046
sg63
(lp2058
S':'
asbag56
(g77
g58
NtRp2059
(dp2060
g61
(dp2061
sg70
g2046
sg63
(lp2062
g56
(g57
g58
NtRp2063
(dp2064
g61
(dp2065
g69
I3
ssg70
g2059
sg63
(lp2066
g1024
asbasbasbag56
(g72
g58
NtRp2067
(dp2068
g61
(dp2069
sg70
g2021
sg63
(lp2070
g56
(g77
g58
NtRp2071
(dp2072
g61
(dp2073
g81
g82
ssg70
g2067
sg63
(lp2074
S'HTTP_ACCEPT_ENCODING'
p2075
asbag56
(g77
g58
NtRp2076
(dp2077
g61
(dp2078
g88
g89
ssg70
g2067
sg63
(lp2079
S':'
asbag56
(g77
g58
NtRp2080
(dp2081
g61
(dp2082
sg70
g2067
sg63
(lp2083
g56
(g57
g58
NtRp2084
(dp2085
g61
(dp2086
g69
I3
ssg70
g2080
sg63
(lp2087
g1046
asbasbasbag56
(g72
g58
NtRp2088
(dp2089
g61
(dp2090
sg70
g2021
sg63
(lp2091
g56
(g77
g58
NtRp2092
(dp2093
g61
(dp2094
g81
g82
ssg70
g2088
sg63
(lp2095
S'HTTP_ACCEPT_LANGUAGE'
p2096
asbag56
(g77
g58
NtRp2097
(dp2098
g61
(dp2099
g88
g89
ssg70
g2088
sg63
(lp2100
S':'
asbag56
(g77
g58
NtRp2101
(dp2102
g61
(dp2103
sg70
g2088
sg63
(lp2104
g56
(g57
g58
NtRp2105
(dp2106
g61
(dp2107
g69
I3
ssg70
g2101
sg63
(lp2108
g1068
asbasbasbag56
(g72
g58
NtRp2109
(dp2110
g61
(dp2111
sg70
g2021
sg63
(lp2112
g56
(g77
g58
NtRp2113
(dp2114
g61
(dp2115
g81
g82
ssg70
g2109
sg63
(lp2116
S'HTTP_CONNECTION'
p2117
asbag56
(g77
g58
NtRp2118
(dp2119
g61
(dp2120
g88
g89
ssg70
g2109
sg63
(lp2121
S':'
asbag56
(g77
g58
NtRp2122
(dp2123
g61
(dp2124
sg70
g2109
sg63
(lp2125
g56
(g57
g58
NtRp2126
(dp2127
g61
(dp2128
g69
I3
ssg70
g2122
sg63
(lp2129
g1090
asbasbasbag56
(g72
g58
NtRp2130
(dp2131
g61
(dp2132
sg70
g2021
sg63
(lp2133
g56
(g77
g58
NtRp2134
(dp2135
g61
(dp2136
g81
g82
ssg70
g2130
sg63
(lp2137
S'HTTP_COOKIE'
p2138
asbag56
(g77
g58
NtRp2139
(dp2140
g61
(dp2141
g88
g89
ssg70
g2130
sg63
(lp2142
S':'
asbag56
(g77
g58
NtRp2143
(dp2144
g61
(dp2145
sg70
g2130
sg63
(lp2146
g56
(g57
g58
NtRp2147
(dp2148
g61
(dp2149
g69
I3
ssg70
g2143
sg63
(lp2150
g1112
asbasbasbag56
(g72
g58
NtRp2151
(dp2152
g61
(dp2153
sg70
g2021
sg63
(lp2154
g56
(g77
g58
NtRp2155
(dp2156
g61
(dp2157
g81
g82
ssg70
g2151
sg63
(lp2158
S'HTTP_HOST'
p2159
asbag56
(g77
g58
NtRp2160
(dp2161
g61
(dp2162
g88
g89
ssg70
g2151
sg63
(lp2163
S':'
asbag56
(g77
g58
NtRp2164
(dp2165
g61
(dp2166
sg70
g2151
sg63
(lp2167
g56
(g57
g58
NtRp2168
(dp2169
g61
(dp2170
g69
I3
ssg70
g2164
sg63
(lp2171
g1134
asbasbasbag56
(g72
g58
NtRp2172
(dp2173
g61
(dp2174
sg70
g2021
sg63
(lp2175
g56
(g77
g58
NtRp2176
(dp2177
g61
(dp2178
g81
g82
ssg70
g2172
sg63
(lp2179
S'HTTP_KEEP_ALIVE'
p2180
asbag56
(g77
g58
NtRp2181
(dp2182
g61
(dp2183
g88
g89
ssg70
g2172
sg63
(lp2184
S':'
asbag56
(g77
g58
NtRp2185
(dp2186
g61
(dp2187
sg70
g2172
sg63
(lp2188
g56
(g57
g58
NtRp2189
(dp2190
g61
(dp2191
g69
I3
ssg70
g2185
sg63
(lp2192
g1156
asbasbasbag56
(g72
g58
NtRp2193
(dp2194
g61
(dp2195
sg70
g2021
sg63
(lp2196
g56
(g77
g58
NtRp2197
(dp2198
g61
(dp2199
g81
g82
ssg70
g2193
sg63
(lp2200
S'HTTP_REFERER'
p2201
asbag56
(g77
g58
NtRp2202
(dp2203
g61
(dp2204
g88
g89
ssg70
g2193
sg63
(lp2205
S':'
asbag56
(g77
g58
NtRp2206
(dp2207
g61
(dp2208
sg70
g2193
sg63
(lp2209
g56
(g57
g58
NtRp2210
(dp2211
g61
(dp2212
g69
I3
ssg70
g2206
sg63
(lp2213
g1178
asbasbasbag56
(g72
g58
NtRp2214
(dp2215
g61
(dp2216
sg70
g2021
sg63
(lp2217
g56
(g77
g58
NtRp2218
(dp2219
g61
(dp2220
g81
g82
ssg70
g2214
sg63
(lp2221
S'HTTP_USER_AGENT'
p2222
asbag56
(g77
g58
NtRp2223
(dp2224
g61
(dp2225
g88
g89
ssg70
g2214
sg63
(lp2226
S':'
asbag56
(g77
g58
NtRp2227
(dp2228
g61
(dp2229
sg70
g2214
sg63
(lp2230
g56
(g57
g58
NtRp2231
(dp2232
g61
(dp2233
g69
I3
ssg70
g2227
sg63
(lp2234
g1200
asbasbasbag56
(g72
g58
NtRp2235
(dp2236
g61
(dp2237
sg70
g2021
sg63
(lp2238
g56
(g77
g58
NtRp2239
(dp2240
g61
(dp2241
g81
g82
ssg70
g2235
sg63
(lp2242
S'PATH_INFO'
p2243
asbag56
(g77
g58
NtRp2244
(dp2245
g61
(dp2246
g88
g89
ssg70
g2235
sg63
(lp2247
S':'
asbag56
(g77
g58
NtRp2248
(dp2249
g61
(dp2250
sg70
g2235
sg63
(lp2251
g56
(g57
g58
NtRp2252
(dp2253
g61
(dp2254
g69
I3
ssg70
g2248
sg63
(lp2255
g1243
asbasbasbag56
(g72
g58
NtRp2256
(dp2257
g61
(dp2258
sg70
g2021
sg63
(lp2259
g56
(g77
g58
NtRp2260
(dp2261
g61
(dp2262
g81
g82
ssg70
g2256
sg63
(lp2263
S'QUERY_STRING'
p2264
asbag56
(g77
g58
NtRp2265
(dp2266
g61
(dp2267
g88
g89
ssg70
g2256
sg63
(lp2268
S':'
asbag56
(g77
g58
NtRp2269
(dp2270
g61
(dp2271
sg70
g2256
sg63
(lp2272
g56
(g57
g58
NtRp2273
(dp2274
g61
(dp2275
g69
I3
ssg70
g2269
sg63
(lp2276
S''
asbasbasbag56
(g72
g58
NtRp2277
(dp2278
g61
(dp2279
sg70
g2021
sg63
(lp2280
g56
(g77
g58
NtRp2281
(dp2282
g61
(dp2283
g81
g82
ssg70
g2277
sg63
(lp2284
S'REMOTE_ADDR'
p2285
asbag56
(g77
g58
NtRp2286
(dp2287
g61
(dp2288
g88
g89
ssg70
g2277
sg63
(lp2289
S':'
asbag56
(g77
g58
NtRp2290
(dp2291
g61
(dp2292
sg70
g2277
sg63
(lp2293
g56
(g57
g58
NtRp2294
(dp2295
g61
(dp2296
g69
I3
ssg70
g2290
sg63
(lp2297
g189
asbasbasbag56
(g72
g58
NtRp2298
(dp2299
g61
(dp2300
sg70
g2021
sg63
(lp2301
g56
(g77
g58
NtRp2302
(dp2303
g61
(dp2304
g81
g82
ssg70
g2298
sg63
(lp2305
S'REMOTE_PORT'
p2306
asbag56
(g77
g58
NtRp2307
(dp2308
g61
(dp2309
g88
g89
ssg70
g2298
sg63
(lp2310
S':'
asbag56
(g77
g58
NtRp2311
(dp2312
g61
(dp2313
sg70
g2298
sg63
(lp2314
g56
(g57
g58
NtRp2315
(dp2316
g61
(dp2317
g69
I3
ssg70
g2311
sg63
(lp2318
g1307
asbasbasbag56
(g72
g58
NtRp2319
(dp2320
g61
(dp2321
sg70
g2021
sg63
(lp2322
g56
(g77
g58
NtRp2323
(dp2324
g61
(dp2325
g81
g82
ssg70
g2319
sg63
(lp2326
S'REQUEST_METHOD'
p2327
asbag56
(g77
g58
NtRp2328
(dp2329
g61
(dp2330
g88
g89
ssg70
g2319
sg63
(lp2331
S':'
asbag56
(g77
g58
NtRp2332
(dp2333
g61
(dp2334
sg70
g2319
sg63
(lp2335
g56
(g57
g58
NtRp2336
(dp2337
g61
(dp2338
g69
I3
ssg70
g2332
sg63
(lp2339
g1329
asbasbasbag56
(g72
g58
NtRp2340
(dp2341
g61
(dp2342
sg70
g2021
sg63
(lp2343
g56
(g77
g58
NtRp2344
(dp2345
g61
(dp2346
g81
g82
ssg70
g2340
sg63
(lp2347
S'SCRIPT_NAME'
p2348
asbag56
(g77
g58
NtRp2349
(dp2350
g61
(dp2351
g88
g89
ssg70
g2340
sg63
(lp2352
S':'
asbag56
(g77
g58
NtRp2353
(dp2354
g61
(dp2355
sg70
g2340
sg63
(lp2356
g56
(g57
g58
NtRp2357
(dp2358
g61
(dp2359
g69
I3
ssg70
g2353
sg63
(lp2360
S''
asbasbasbag56
(g72
g58
NtRp2361
(dp2362
g61
(dp2363
sg70
g2021
sg63
(lp2364
g56
(g77
g58
NtRp2365
(dp2366
g61
(dp2367
g81
g82
ssg70
g2361
sg63
(lp2368
S'SERVER_NAME'
p2369
asbag56
(g77
g58
NtRp2370
(dp2371
g61
(dp2372
g88
g89
ssg70
g2361
sg63
(lp2373
S':'
asbag56
(g77
g58
NtRp2374
(dp2375
g61
(dp2376
sg70
g2361
sg63
(lp2377
g56
(g57
g58
NtRp2378
(dp2379
g61
(dp2380
g69
I3
ssg70
g2374
sg63
(lp2381
g1372
asbasbasbag56
(g72
g58
NtRp2382
(dp2383
g61
(dp2384
sg70
g2021
sg63
(lp2385
g56
(g77
g58
NtRp2386
(dp2387
g61
(dp2388
g81
g82
ssg70
g2382
sg63
(lp2389
S'SERVER_PORT'
p2390
asbag56
(g77
g58
NtRp2391
(dp2392
g61
(dp2393
g88
g89
ssg70
g2382
sg63
(lp2394
S':'
asbag56
(g77
g58
NtRp2395
(dp2396
g61
(dp2397
sg70
g2382
sg63
(lp2398
g56
(g57
g58
NtRp2399
(dp2400
g61
(dp2401
g69
I3
ssg70
g2395
sg63
(lp2402
g1394
asbasbasbag56
(g72
g58
NtRp2403
(dp2404
g61
(dp2405
sg70
g2021
sg63
(lp2406
g56
(g77
g58
NtRp2407
(dp2408
g61
(dp2409
g81
g82
ssg70
g2403
sg63
(lp2410
S'SERVER_PROTOCOL'
p2411
asbag56
(g77
g58
NtRp2412
(dp2413
g61
(dp2414
g88
g89
ssg70
g2403
sg63
(lp2415
S':'
asbag56
(g77
g58
NtRp2416
(dp2417
g61
(dp2418
sg70
g2403
sg63
(lp2419
g56
(g57
g58
NtRp2420
(dp2421
g61
(dp2422
g69
I3
ssg70
g2416
sg63
(lp2423
g1416
asbasbasbag56
(g72
g58
NtRp2424
(dp2425
g61
(dp2426
sg70
g2021
sg63
(lp2427
g56
(g77
g58
NtRp2428
(dp2429
g61
(dp2430
g81
g82
ssg70
g2424
sg63
(lp2431
S'SERVER_SOFTWARE'
p2432
asbag56
(g77
g58
NtRp2433
(dp2434
g61
(dp2435
g88
g89
ssg70
g2424
sg63
(lp2436
S':'
asbag56
(g77
g58
NtRp2437
(dp2438
g61
(dp2439
sg70
g2424
sg63
(lp2440
g56
(g57
g58
NtRp2441
(dp2442
g61
(dp2443
g69
I3
ssg70
g2437
sg63
(lp2444
g1438
asbasbasbag56
(g72
g58
NtRp2445
(dp2446
g61
(dp2447
sg70
g2021
sg63
(lp2448
g56
(g77
g58
NtRp2449
(dp2450
g61
(dp2451
g81
g82
ssg70
g2445
sg63
(lp2452
S'wsgi.errors'
p2453
asbag56
(g77
g58
NtRp2454
(dp2455
g61
(dp2456
g88
g89
ssg70
g2445
sg63
(lp2457
S':'
asbag56
(g77
g58
NtRp2458
(dp2459
g61
(dp2460
sg70
g2445
sg63
(lp2461
g56
(g57
g58
NtRp2462
(dp2463
g61
(dp2464
g69
I3
ssg70
g2458
sg63
(lp2465
S"<open file '<stderr>', mode 'w' at 0xb78110d0>"
p2466
asbasbasbag56
(g72
g58
NtRp2467
(dp2468
g61
(dp2469
sg70
g2021
sg63
(lp2470
g56
(g77
g58
NtRp2471
(dp2472
g61
(dp2473
g81
g82
ssg70
g2467
sg63
(lp2474
S'wsgi.file_wrapper'
p2475
asbag56
(g77
g58
NtRp2476
(dp2477
g61
(dp2478
g88
g89
ssg70
g2467
sg63
(lp2479
S':'
asbag56
(g77
g58
NtRp2480
(dp2481
g61
(dp2482
sg70
g2467
sg63
(lp2483
g56
(g57
g58
NtRp2484
(dp2485
g61
(dp2486
g69
I3
ssg70
g2480
sg63
(lp2487
S'<class gluon.rocket.FileWrapper at 0xa07f08c>'
p2488
asbasbasbag56
(g72
g58
NtRp2489
(dp2490
g61
(dp2491
sg70
g2021
sg63
(lp2492
g56
(g77
g58
NtRp2493
(dp2494
g61
(dp2495
g81
g82
ssg70
g2489
sg63
(lp2496
S'wsgi.input'
p2497
asbag56
(g77
g58
NtRp2498
(dp2499
g61
(dp2500
g88
g89
ssg70
g2489
sg63
(lp2501
S':'
asbag56
(g77
g58
NtRp2502
(dp2503
g61
(dp2504
sg70
g2489
sg63
(lp2505
g56
(g57
g58
NtRp2506
(dp2507
g61
(dp2508
g69
I3
ssg70
g2502
sg63
(lp2509
S'<cStringIO.StringO object at 0xb27da20>'
p2510
asbasbasbag56
(g72
g58
NtRp2511
(dp2512
g61
(dp2513
sg70
g2021
sg63
(lp2514
g56
(g77
g58
NtRp2515
(dp2516
g61
(dp2517
g81
g82
ssg70
g2511
sg63
(lp2518
S'wsgi.multiprocess'
p2519
asbag56
(g77
g58
NtRp2520
(dp2521
g61
(dp2522
g88
g89
ssg70
g2511
sg63
(lp2523
S':'
asbag56
(g77
g58
NtRp2524
(dp2525
g61
(dp2526
sg70
g2511
sg63
(lp2527
g56
(g57
g58
NtRp2528
(dp2529
g61
(dp2530
g69
I3
ssg70
g2524
sg63
(lp2531
g99
asbasbasbag56
(g72
g58
NtRp2532
(dp2533
g61
(dp2534
sg70
g2021
sg63
(lp2535
g56
(g77
g58
NtRp2536
(dp2537
g61
(dp2538
g81
g82
ssg70
g2532
sg63
(lp2539
S'wsgi.multithread'
p2540
asbag56
(g77
g58
NtRp2541
(dp2542
g61
(dp2543
g88
g89
ssg70
g2532
sg63
(lp2544
S':'
asbag56
(g77
g58
NtRp2545
(dp2546
g61
(dp2547
sg70
g2532
sg63
(lp2548
g56
(g57
g58
NtRp2549
(dp2550
g61
(dp2551
g69
I3
ssg70
g2545
sg63
(lp2552
g1612
asbasbasbag56
(g72
g58
NtRp2553
(dp2554
g61
(dp2555
sg70
g2021
sg63
(lp2556
g56
(g77
g58
NtRp2557
(dp2558
g61
(dp2559
g81
g82
ssg70
g2553
sg63
(lp2560
S'wsgi.run_once'
p2561
asbag56
(g77
g58
NtRp2562
(dp2563
g61
(dp2564
g88
g89
ssg70
g2553
sg63
(lp2565
S':'
asbag56
(g77
g58
NtRp2566
(dp2567
g61
(dp2568
sg70
g2553
sg63
(lp2569
g56
(g57
g58
NtRp2570
(dp2571
g61
(dp2572
g69
I3
ssg70
g2566
sg63
(lp2573
g99
asbasbasbag56
(g72
g58
NtRp2574
(dp2575
g61
(dp2576
sg70
g2021
sg63
(lp2577
g56
(g77
g58
NtRp2578
(dp2579
g61
(dp2580
g81
g82
ssg70
g2574
sg63
(lp2581
S'wsgi.url_scheme'
p2582
asbag56
(g77
g58
NtRp2583
(dp2584
g61
(dp2585
g88
g89
ssg70
g2574
sg63
(lp2586
S':'
asbag56
(g77
g58
NtRp2587
(dp2588
g61
(dp2589
sg70
g2574
sg63
(lp2590
g56
(g57
g58
NtRp2591
(dp2592
g61
(dp2593
g69
I3
ssg70
g2587
sg63
(lp2594
g1655
asbasbasbag56
(g72
g58
NtRp2595
(dp2596
g61
(dp2597
sg70
g2021
sg63
(lp2598
g56
(g77
g58
NtRp2599
(dp2600
g61
(dp2601
g81
g82
ssg70
g2595
sg63
(lp2602
S'wsgi.version'
p2603
asbag56
(g77
g58
NtRp2604
(dp2605
g61
(dp2606
g88
g89
ssg70
g2595
sg63
(lp2607
S':'
asbag56
(g77
g58
NtRp2608
(dp2609
g61
(dp2610
sg70
g2595
sg63
(lp2611
g56
(g57
g58
NtRp2612
(dp2613
g61
(dp2614
g69
I3
ssg70
g2608
sg63
(lp2615
S'1'
asbasbasbasbasbasbasbasbasbasbasbasbasbsS'frames'
p2616
(lp2617
(dp2618
S'file'
p2619
S'/home/vsvah/Desktop/Coursework/Sem3/SSAD/web2py/gluon/restricted.py'
p2620
sS'dump'
p2621
(dp2622
S'environment'
p2623
S"{'A': <class 'gluon.html.A'>, 'Auth': <class 'gluon.tools.Auth'>, 'B': <class 'gluon.html.B'>, 'BEAUTIFY': <class 'gluon.html.BEAUTIFY'>, 'BODY': <class 'gluon.html.BODY'>, 'BR': <class 'gluon.html.BR'>, 'BUTTON': <class 'gluon.html.BUTTON'>, 'CAT': <class 'gluon.html.CAT'>, 'CENTER': <class 'gluon.html.CENTER'>, 'CLEANUP': <class 'gluon.validators.CLEANUP'>, ...}"
p2624
sS'ccode'
p2625
S'<code object <module> at 0xb26be78, file "/home/...ic_Repo/views/default/display_link.html", line 1>'
p2626
ssS'lnum'
p2627
I192
sS'lines'
p2628
(dp2629
I192
S'        exec ccode in environment'
p2630
sI193
S'    except HTTP:'
p2631
sI194
S'        raise'
p2632
sI195
S'    except Exception, error:'
p2633
sI196
S'        # XXX Show exception in Wing IDE if running in debugger'
p2634
sI187
S'    try:'
p2635
sI188
S'        if type(code) == types.CodeType:'
p2636
sI189
S'            ccode = code'
p2637
sI190
S'        else:'
p2638
sI191
S'            ccode = compile2(code,layer)'
p2639
ssS'call'
p2640
S'(code=r"left_sidebar_enabled=right_sidebar_enabled=False...t   -->    \\n  </body>\\n</html>\\n\', escape=False)", environment={\'A\': <class \'gluon.html.A\'>, \'Auth\': <class \'gluon.tools.Auth\'>, \'B\': <class \'gluon.html.B\'>, \'BEAUTIFY\': <class \'gluon.html.BEAUTIFY\'>, \'BODY\': <class \'gluon.html.BODY\'>, \'BR\': <class \'gluon.html.BR\'>, \'BUTTON\': <class \'gluon.html.BUTTON\'>, \'CAT\': <class \'gluon.html.CAT\'>, \'CENTER\': <class \'gluon.html.CENTER\'>, \'CLEANUP\': <class \'gluon.validators.CLEANUP\'>, ...}, layer=\'/home/vsvah/Desktop/Coursework/Sem3/SSAD/web2py/...ations/Music_Repo/views/default/display_link.html\')'
p2641
sS'func'
p2642
S'restricted'
p2643
sa(dp2644
g2619
S'/home/vsvah/Desktop/Coursework/Sem3/SSAD/web2py/applications/Music_Repo/views/default/display_link.html'
p2645
sg2621
(dp2646
sg2627
I105
sg2628
(dp2647
I96
S"    response.write('Content Left Sidebar', escape=False)"
p2648
sI97
S"    response.write('\\t\\t  \\n            </div>\\n          </div><!-- left_sidebar -->\\n\\t  ', escape=False)"
p2649
sI98
S'    pass'
p2650
sI99
S'response.write(\'\\n\\n\\t  <!-- content -->\\n\\t  <div id="content" \', escape=False)'
p2651
sI100
S'response.write(XML(style_content))'
p2652
sI101
S"response.write(' >\\n\\t    ', escape=False)"
p2653
sI102
S"response.write('\\n<h3>Matching Songs</h3>\\n', escape=False)"
p2654
sI103
S'for i in r:'
p2655
sI104
S'    response.write(\'\\n   <a href = "/Music_Repo/default/display_details?idno=\', escape=False)'
p2656
sI105
S'    response.write(i.song.id)'
p2657
sI106
S'    response.write(\'">\', escape=False)'
p2658
sI107
S'    response.write(i.song.name)'
p2659
sI108
S"    response.write('</a>\\n\\n\\n', escape=False)"
p2660
sI109
S'    pass'
p2661
sI110
S"response.write('\\n', escape=False)"
p2662
sI111
S"response.write('\\t\\n\\t  </div>\\n\\t  <!-- content -->\\n\\n\\t  ', escape=False)"
p2663
sI112
S'if right_sidebar_enabled:'
p2664
sI113
S'    response.write(\'\\n          <div id="right_sidebar" \', escape=False)'
p2665
sI114
S'    response.write(XML(right_sidebar_style))'
p2666
sI115
S'    response.write(\' >\\n            <div style="padding: 4px;">\\n              \', escape=False)'
p2667
ssg2640
S'()'
p2668
sg2642
S'<module>'
p2669
sasS'pyver'
p2670
S'Python 2.6.5: /usr/bin/python'
p2671
sS'session'
p2672
g56
(g57
g58
NtRp2673
(dp2674
g61
(dp2675
sg63
(lp2676
g56
(g65
g58
NtRp2677
(dp2678
g61
(dp2679
g69
I5
ssg70
Nsg63
(lp2680
g56
(g72
g58
NtRp2681
(dp2682
g61
(dp2683
sg70
g2677
sg63
(lp2684
g56
(g77
g58
NtRp2685
(dp2686
g61
(dp2687
g81
g82
ssg70
g2681
sg63
(lp2688
S'artist'
p2689
asbag56
(g77
g58
NtRp2690
(dp2691
g61
(dp2692
g88
g89
ssg70
g2681
sg63
(lp2693
S':'
asbag56
(g77
g58
NtRp2694
(dp2695
g61
(dp2696
sg70
g2681
sg63
(lp2697
g56
(g57
g58
NtRp2698
(dp2699
g61
(dp2700
g69
I5
ssg70
g2694
sg63
(lp2701
S''
asbasbasbag56
(g72
g58
NtRp2702
(dp2703
g61
(dp2704
sg70
g2677
sg63
(lp2705
g56
(g77
g58
NtRp2706
(dp2707
g61
(dp2708
g81
g82
ssg70
g2702
sg63
(lp2709
S'last_query'
p2710
asbag56
(g77
g58
NtRp2711
(dp2712
g61
(dp2713
g88
g89
ssg70
g2702
sg63
(lp2714
S':'
asbag56
(g77
g58
NtRp2715
(dp2716
g61
(dp2717
sg70
g2702
sg63
(lp2718
g56
(g57
g58
NtRp2719
(dp2720
g61
(dp2721
g69
I5
ssg70
g2715
sg63
(lp2722
S'db.movie.id>0'
p2723
asbasbasbag56
(g72
g58
NtRp2724
(dp2725
g61
(dp2726
sg70
g2677
sg63
(lp2727
g56
(g77
g58
NtRp2728
(dp2729
g61
(dp2730
g81
g82
ssg70
g2724
sg63
(lp2731
S'movie'
p2732
asbag56
(g77
g58
NtRp2733
(dp2734
g61
(dp2735
g88
g89
ssg70
g2724
sg63
(lp2736
S':'
asbag56
(g77
g58
NtRp2737
(dp2738
g61
(dp2739
sg70
g2724
sg63
(lp2740
g56
(g57
g58
NtRp2741
(dp2742
g61
(dp2743
g69
I5
ssg70
g2737
sg63
(lp2744
S'MOVIE'
p2745
asbasbasbasbasbsS'etype'
p2746
S"<type 'exceptions.AttributeError'>"
p2747
sS'date'
p2748
S'Wed Sep  7 16:17:36 2011'
p2749
sS'response'
p2750
g56
(g57
g58
NtRp2751
(dp2752
g61
(dp2753
sg63
(lp2754
g56
(g65
g58
NtRp2755
(dp2756
g61
(dp2757
g69
I5
ssg70
Nsg63
(lp2758
g56
(g72
g58
NtRp2759
(dp2760
g61
(dp2761
sg70
g2755
sg63
(lp2762
g56
(g77
g58
NtRp2763
(dp2764
g61
(dp2765
g81
g82
ssg70
g2759
sg63
(lp2766
g154
asbag56
(g77
g58
NtRp2767
(dp2768
g61
(dp2769
g88
g89
ssg70
g2759
sg63
(lp2770
S':'
asbag56
(g77
g58
NtRp2771
(dp2772
g61
(dp2773
sg70
g2759
sg63
(lp2774
g56
(g57
g58
NtRp2775
(dp2776
g61
(dp2777
g69
I5
ssg70
g2771
sg63
(lp2778
S'<cStringIO.StringO object at 0xb26a640>'
p2779
asbasbasbag56
(g72
g58
NtRp2780
(dp2781
g61
(dp2782
sg70
g2755
sg63
(lp2783
g56
(g77
g58
NtRp2784
(dp2785
g61
(dp2786
g81
g82
ssg70
g2780
sg63
(lp2787
g220
asbag56
(g77
g58
NtRp2788
(dp2789
g61
(dp2790
g88
g89
ssg70
g2780
sg63
(lp2791
S':'
asbag56
(g77
g58
NtRp2792
(dp2793
g61
(dp2794
sg70
g2780
sg63
(lp2795
g56
(g57
g58
NtRp2796
(dp2797
g61
(dp2798
g69
I5
ssg70
g2792
sg63
(lp2799
g56
(g65
g58
NtRp2800
(dp2801
g61
(dp2802
g69
I4
ssg70
Nsg63
(lp2803
g56
(g72
g58
NtRp2804
(dp2805
g61
(dp2806
sg70
g2800
sg63
(lp2807
g56
(g77
g58
NtRp2808
(dp2809
g61
(dp2810
g81
g82
ssg70
g2804
sg63
(lp2811
S'session_id_music_repo'
p2812
asbag56
(g77
g58
NtRp2813
(dp2814
g61
(dp2815
g88
g89
ssg70
g2804
sg63
(lp2816
S':'
asbag56
(g77
g58
NtRp2817
(dp2818
g61
(dp2819
sg70
g2804
sg63
(lp2820
g56
(g57
g58
NtRp2821
(dp2822
g61
(dp2823
g69
I4
ssg70
g2817
sg63
(lp2824
g56
(g65
g58
NtRp2825
(dp2826
g61
(dp2827
g69
I3
ssg70
Nsg63
(lp2828
g56
(g72
g58
NtRp2829
(dp2830
g61
(dp2831
sg70
g2825
sg63
(lp2832
g56
(g77
g58
NtRp2833
(dp2834
g61
(dp2835
g81
g82
ssg70
g2829
sg63
(lp2836
g270
asbag56
(g77
g58
NtRp2837
(dp2838
g61
(dp2839
g88
g89
ssg70
g2829
sg63
(lp2840
S':'
asbag56
(g77
g58
NtRp2841
(dp2842
g61
(dp2843
sg70
g2829
sg63
(lp2844
g56
(g57
g58
NtRp2845
(dp2846
g61
(dp2847
g69
I3
ssg70
g2841
sg63
(lp2848
S''
asbasbasbag56
(g72
g58
NtRp2849
(dp2850
g61
(dp2851
sg70
g2825
sg63
(lp2852
g56
(g77
g58
NtRp2853
(dp2854
g61
(dp2855
g81
g82
ssg70
g2849
sg63
(lp2856
g291
asbag56
(g77
g58
NtRp2857
(dp2858
g61
(dp2859
g88
g89
ssg70
g2849
sg63
(lp2860
S':'
asbag56
(g77
g58
NtRp2861
(dp2862
g61
(dp2863
sg70
g2849
sg63
(lp2864
g56
(g57
g58
NtRp2865
(dp2866
g61
(dp2867
g69
I3
ssg70
g2861
sg63
(lp2868
S''
asbasbasbag56
(g72
g58
NtRp2869
(dp2870
g61
(dp2871
sg70
g2825
sg63
(lp2872
g56
(g77
g58
NtRp2873
(dp2874
g61
(dp2875
g81
g82
ssg70
g2869
sg63
(lp2876
g312
asbag56
(g77
g58
NtRp2877
(dp2878
g61
(dp2879
g88
g89
ssg70
g2869
sg63
(lp2880
S':'
asbag56
(g77
g58
NtRp2881
(dp2882
g61
(dp2883
sg70
g2869
sg63
(lp2884
g56
(g57
g58
NtRp2885
(dp2886
g61
(dp2887
g69
I3
ssg70
g2881
sg63
(lp2888
S''
asbasbasbag56
(g72
g58
NtRp2889
(dp2890
g61
(dp2891
sg70
g2825
sg63
(lp2892
g56
(g77
g58
NtRp2893
(dp2894
g61
(dp2895
g81
g82
ssg70
g2889
sg63
(lp2896
g333
asbag56
(g77
g58
NtRp2897
(dp2898
g61
(dp2899
g88
g89
ssg70
g2889
sg63
(lp2900
S':'
asbag56
(g77
g58
NtRp2901
(dp2902
g61
(dp2903
sg70
g2889
sg63
(lp2904
g56
(g57
g58
NtRp2905
(dp2906
g61
(dp2907
g69
I3
ssg70
g2901
sg63
(lp2908
S''
asbasbasbag56
(g72
g58
NtRp2909
(dp2910
g61
(dp2911
sg70
g2825
sg63
(lp2912
g56
(g77
g58
NtRp2913
(dp2914
g61
(dp2915
g81
g82
ssg70
g2909
sg63
(lp2916
g354
asbag56
(g77
g58
NtRp2917
(dp2918
g61
(dp2919
g88
g89
ssg70
g2909
sg63
(lp2920
S':'
asbag56
(g77
g58
NtRp2921
(dp2922
g61
(dp2923
sg70
g2909
sg63
(lp2924
g56
(g57
g58
NtRp2925
(dp2926
g61
(dp2927
g69
I3
ssg70
g2921
sg63
(lp2928
S''
asbasbasbag56
(g72
g58
NtRp2929
(dp2930
g61
(dp2931
sg70
g2825
sg63
(lp2932
g56
(g77
g58
NtRp2933
(dp2934
g61
(dp2935
g81
g82
ssg70
g2929
sg63
(lp2936
g375
asbag56
(g77
g58
NtRp2937
(dp2938
g61
(dp2939
g88
g89
ssg70
g2929
sg63
(lp2940
S':'
asbag56
(g77
g58
NtRp2941
(dp2942
g61
(dp2943
sg70
g2929
sg63
(lp2944
g56
(g57
g58
NtRp2945
(dp2946
g61
(dp2947
g69
I3
ssg70
g2941
sg63
(lp2948
S'/'
asbasbasbag56
(g72
g58
NtRp2949
(dp2950
g61
(dp2951
sg70
g2825
sg63
(lp2952
g56
(g77
g58
NtRp2953
(dp2954
g61
(dp2955
g81
g82
ssg70
g2949
sg63
(lp2956
g396
asbag56
(g77
g58
NtRp2957
(dp2958
g61
(dp2959
g88
g89
ssg70
g2949
sg63
(lp2960
S':'
asbag56
(g77
g58
NtRp2961
(dp2962
g61
(dp2963
sg70
g2949
sg63
(lp2964
g56
(g57
g58
NtRp2965
(dp2966
g61
(dp2967
g69
I3
ssg70
g2961
sg63
(lp2968
S''
asbasbasbag56
(g72
g58
NtRp2969
(dp2970
g61
(dp2971
sg70
g2825
sg63
(lp2972
g56
(g77
g58
NtRp2973
(dp2974
g61
(dp2975
g81
g82
ssg70
g2969
sg63
(lp2976
g417
asbag56
(g77
g58
NtRp2977
(dp2978
g61
(dp2979
g88
g89
ssg70
g2969
sg63
(lp2980
S':'
asbag56
(g77
g58
NtRp2981
(dp2982
g61
(dp2983
sg70
g2969
sg63
(lp2984
g56
(g57
g58
NtRp2985
(dp2986
g61
(dp2987
g69
I3
ssg70
g2981
sg63
(lp2988
S''
asbasbasbasbasbasbasbasbasbasbasbag56
(g72
g58
NtRp2989
(dp2990
g61
(dp2991
sg70
g2755
sg63
(lp2992
g56
(g77
g58
NtRp2993
(dp2994
g61
(dp2995
g81
g82
ssg70
g2989
sg63
(lp2996
S'files'
p2997
asbag56
(g77
g58
NtRp2998
(dp2999
g61
(dp3000
g88
g89
ssg70
g2989
sg63
(lp3001
S':'
asbag56
(g77
g58
NtRp3002
(dp3003
g61
(dp3004
sg70
g2989
sg63
(lp3005
g56
(g57
g58
NtRp3006
(dp3007
g61
(dp3008
g69
I5
ssg70
g3002
sg63
(lp3009
g56
(g65
g58
NtRp3010
(dp3011
g61
(dp3012
g69
I4
ssg70
Nsg63
(lp3013
g56
(g72
g58
NtRp3014
(dp3015
g61
(dp3016
sg70
g3010
sg63
(lp3017
g56
(g77
g58
NtRp3018
(dp3019
g61
(dp3020
sg70
g3014
sg63
(lp3021
g56
(g57
g58
NtRp3022
(dp3023
g61
(dp3024
g69
I4
ssg70
g3018
sg63
(lp3025
S'/Music_Repo/static/js/jquery.js'
p3026
asbasbasbag56
(g72
g58
NtRp3027
(dp3028
g61
(dp3029
sg70
g3010
sg63
(lp3030
g56
(g77
g58
NtRp3031
(dp3032
g61
(dp3033
sg70
g3027
sg63
(lp3034
g56
(g57
g58
NtRp3035
(dp3036
g61
(dp3037
g69
I4
ssg70
g3031
sg63
(lp3038
S'/Music_Repo/static/css/calendar.css'
p3039
asbasbasbag56
(g72
g58
NtRp3040
(dp3041
g61
(dp3042
sg70
g3010
sg63
(lp3043
g56
(g77
g58
NtRp3044
(dp3045
g61
(dp3046
sg70
g3040
sg63
(lp3047
g56
(g57
g58
NtRp3048
(dp3049
g61
(dp3050
g69
I4
ssg70
g3044
sg63
(lp3051
S'/Music_Repo/static/js/calendar.js'
p3052
asbasbasbag56
(g72
g58
NtRp3053
(dp3054
g61
(dp3055
sg70
g3010
sg63
(lp3056
g56
(g77
g58
NtRp3057
(dp3058
g61
(dp3059
sg70
g3053
sg63
(lp3060
g56
(g57
g58
NtRp3061
(dp3062
g61
(dp3063
g69
I4
ssg70
g3057
sg63
(lp3064
S'/Music_Repo/static/css/base.css'
p3065
asbasbasbag56
(g72
g58
NtRp3066
(dp3067
g61
(dp3068
sg70
g3010
sg63
(lp3069
g56
(g77
g58
NtRp3070
(dp3071
g61
(dp3072
sg70
g3066
sg63
(lp3073
g56
(g57
g58
NtRp3074
(dp3075
g61
(dp3076
g69
I4
ssg70
g3070
sg63
(lp3077
S'/Music_Repo/static/css/superfish.css'
p3078
asbasbasbag56
(g72
g58
NtRp3079
(dp3080
g61
(dp3081
sg70
g3010
sg63
(lp3082
g56
(g77
g58
NtRp3083
(dp3084
g61
(dp3085
sg70
g3079
sg63
(lp3086
g56
(g57
g58
NtRp3087
(dp3088
g61
(dp3089
g69
I4
ssg70
g3083
sg63
(lp3090
S'/Music_Repo/static/js/superfish.js'
p3091
asbasbasbasbasbasbasbag56
(g72
g58
NtRp3092
(dp3093
g61
(dp3094
sg70
g2755
sg63
(lp3095
g56
(g77
g58
NtRp3096
(dp3097
g61
(dp3098
g81
g82
ssg70
g3092
sg63
(lp3099
S'flash'
p3100
asbag56
(g77
g58
NtRp3101
(dp3102
g61
(dp3103
g88
g89
ssg70
g3092
sg63
(lp3104
S':'
asbag56
(g77
g58
NtRp3105
(dp3106
g61
(dp3107
sg70
g3092
sg63
(lp3108
g56
(g57
g58
NtRp3109
(dp3110
g61
(dp3111
g69
I5
ssg70
g3105
sg63
(lp3112
S''
asbasbasbag56
(g72
g58
NtRp3113
(dp3114
g61
(dp3115
sg70
g2755
sg63
(lp3116
g56
(g77
g58
NtRp3117
(dp3118
g61
(dp3119
g81
g82
ssg70
g3113
sg63
(lp3120
S'generic_patterns'
p3121
asbag56
(g77
g58
NtRp3122
(dp3123
g61
(dp3124
g88
g89
ssg70
g3113
sg63
(lp3125
S':'
asbag56
(g77
g58
NtRp3126
(dp3127
g61
(dp3128
sg70
g3113
sg63
(lp3129
g56
(g57
g58
NtRp3130
(dp3131
g61
(dp3132
g69
I5
ssg70
g3126
sg63
(lp3133
g56
(g65
g58
NtRp3134
(dp3135
g61
(dp3136
g69
I4
ssg70
Nsg63
(lp3137
g56
(g72
g58
NtRp3138
(dp3139
g61
(dp3140
sg70
g3134
sg63
(lp3141
g56
(g77
g58
NtRp3142
(dp3143
g61
(dp3144
sg70
g3138
sg63
(lp3145
g56
(g57
g58
NtRp3146
(dp3147
g61
(dp3148
g69
I4
ssg70
g3142
sg63
(lp3149
S'*'
asbasbasbasbasbasbasbag56
(g72
g58
NtRp3150
(dp3151
g61
(dp3152
sg70
g2755
sg63
(lp3153
g56
(g77
g58
NtRp3154
(dp3155
g61
(dp3156
g81
g82
ssg70
g3150
sg63
(lp3157
S'headers'
p3158
asbag56
(g77
g58
NtRp3159
(dp3160
g61
(dp3161
g88
g89
ssg70
g3150
sg63
(lp3162
S':'
asbag56
(g77
g58
NtRp3163
(dp3164
g61
(dp3165
sg70
g3150
sg63
(lp3166
g56
(g57
g58
NtRp3167
(dp3168
g61
(dp3169
g69
I5
ssg70
g3163
sg63
(lp3170
g56
(g65
g58
NtRp3171
(dp3172
g61
(dp3173
g69
I4
ssg70
Nsg63
(lp3174
g56
(g72
g58
NtRp3175
(dp3176
g61
(dp3177
sg70
g3171
sg63
(lp3178
g56
(g77
g58
NtRp3179
(dp3180
g61
(dp3181
g81
g82
ssg70
g3175
sg63
(lp3182
S'Cache-Control'
p3183
asbag56
(g77
g58
NtRp3184
(dp3185
g61
(dp3186
g88
g89
ssg70
g3175
sg63
(lp3187
S':'
asbag56
(g77
g58
NtRp3188
(dp3189
g61
(dp3190
sg70
g3175
sg63
(lp3191
g56
(g57
g58
NtRp3192
(dp3193
g61
(dp3194
g69
I4
ssg70
g3188
sg63
(lp3195
S'no-store, no-cache, must-revalidate, post-check=0, pre-check=0'
p3196
asbasbasbag56
(g72
g58
NtRp3197
(dp3198
g61
(dp3199
sg70
g3171
sg63
(lp3200
g56
(g77
g58
NtRp3201
(dp3202
g61
(dp3203
g81
g82
ssg70
g3197
sg63
(lp3204
S'Content-Type'
p3205
asbag56
(g77
g58
NtRp3206
(dp3207
g61
(dp3208
g88
g89
ssg70
g3197
sg63
(lp3209
S':'
asbag56
(g77
g58
NtRp3210
(dp3211
g61
(dp3212
sg70
g3197
sg63
(lp3213
g56
(g57
g58
NtRp3214
(dp3215
g61
(dp3216
g69
I4
ssg70
g3210
sg63
(lp3217
S'text/html; charset=utf-8'
p3218
asbasbasbag56
(g72
g58
NtRp3219
(dp3220
g61
(dp3221
sg70
g3171
sg63
(lp3222
g56
(g77
g58
NtRp3223
(dp3224
g61
(dp3225
g81
g82
ssg70
g3219
sg63
(lp3226
S'Expires'
p3227
asbag56
(g77
g58
NtRp3228
(dp3229
g61
(dp3230
g88
g89
ssg70
g3219
sg63
(lp3231
S':'
asbag56
(g77
g58
NtRp3232
(dp3233
g61
(dp3234
sg70
g3219
sg63
(lp3235
g56
(g57
g58
NtRp3236
(dp3237
g61
(dp3238
g69
I4
ssg70
g3232
sg63
(lp3239
S'Wed, 07 Sep 2011 10:47:36 GMT'
p3240
asbasbasbag56
(g72
g58
NtRp3241
(dp3242
g61
(dp3243
sg70
g3171
sg63
(lp3244
g56
(g77
g58
NtRp3245
(dp3246
g61
(dp3247
g81
g82
ssg70
g3241
sg63
(lp3248
S'Pragma'
p3249
asbag56
(g77
g58
NtRp3250
(dp3251
g61
(dp3252
g88
g89
ssg70
g3241
sg63
(lp3253
S':'
asbag56
(g77
g58
NtRp3254
(dp3255
g61
(dp3256
sg70
g3241
sg63
(lp3257
g56
(g57
g58
NtRp3258
(dp3259
g61
(dp3260
g69
I4
ssg70
g3254
sg63
(lp3261
S'no-cache'
p3262
asbasbasbag56
(g72
g58
NtRp3263
(dp3264
g61
(dp3265
sg70
g3171
sg63
(lp3266
g56
(g77
g58
NtRp3267
(dp3268
g61
(dp3269
g81
g82
ssg70
g3263
sg63
(lp3270
S'X-Powered-By'
p3271
asbag56
(g77
g58
NtRp3272
(dp3273
g61
(dp3274
g88
g89
ssg70
g3263
sg63
(lp3275
S':'
asbag56
(g77
g58
NtRp3276
(dp3277
g61
(dp3278
sg70
g3263
sg63
(lp3279
g56
(g57
g58
NtRp3280
(dp3281
g61
(dp3282
g69
I4
ssg70
g3276
sg63
(lp3283
S'web2py'
p3284
asbasbasbasbasbasbasbag56
(g72
g58
NtRp3285
(dp3286
g61
(dp3287
sg70
g2755
sg63
(lp3288
g56
(g77
g58
NtRp3289
(dp3290
g61
(dp3291
g81
g82
ssg70
g3285
sg63
(lp3292
S'menu'
p3293
asbag56
(g77
g58
NtRp3294
(dp3295
g61
(dp3296
g88
g89
ssg70
g3285
sg63
(lp3297
S':'
asbag56
(g77
g58
NtRp3298
(dp3299
g61
(dp3300
sg70
g3285
sg63
(lp3301
g56
(g57
g58
NtRp3302
(dp3303
g61
(dp3304
g69
I5
ssg70
g3298
sg63
(lp3305
g56
(g65
g58
NtRp3306
(dp3307
g61
(dp3308
g69
I4
ssg70
Nsg63
(lp3309
g56
(g72
g58
NtRp3310
(dp3311
g61
(dp3312
sg70
g3306
sg63
(lp3313
g56
(g77
g58
NtRp3314
(dp3315
g61
(dp3316
sg70
g3310
sg63
(lp3317
g56
(g57
g58
NtRp3318
(dp3319
g61
(dp3320
g69
I4
ssg70
g3314
sg63
(lp3321
g56
(g65
g58
NtRp3322
(dp3323
g61
(dp3324
g69
I3
ssg70
Nsg63
(lp3325
g56
(g72
g58
NtRp3326
(dp3327
g61
(dp3328
sg70
g3322
sg63
(lp3329
g56
(g77
g58
NtRp3330
(dp3331
g61
(dp3332
sg70
g3326
sg63
(lp3333
g56
(g57
g58
NtRp3334
(dp3335
g61
(dp3336
g69
I3
ssg70
g3330
sg63
(lp3337
cgluon.languages
lazyT_unpickle
p3338
(S's\x04\x00\x00\x00Home'
tRp3339
asbasbasbag56
(g72
g58
NtRp3340
(dp3341
g61
(dp3342
sg70
g3322
sg63
(lp3343
g56
(g77
g58
NtRp3344
(dp3345
g61
(dp3346
sg70
g3340
sg63
(lp3347
g56
(g57
g58
NtRp3348
(dp3349
g61
(dp3350
g69
I3
ssg70
g3344
sg63
(lp3351
g99
asbasbasbag56
(g72
g58
NtRp3352
(dp3353
g61
(dp3354
sg70
g3322
sg63
(lp3355
g56
(g77
g58
NtRp3356
(dp3357
g61
(dp3358
sg70
g3352
sg63
(lp3359
g56
(g57
g58
NtRp3360
(dp3361
g61
(dp3362
g69
I3
ssg70
g3356
sg63
(lp3363
S'/Music_Repo/default/index'
p3364
asbasbasbag56
(g72
g58
NtRp3365
(dp3366
g61
(dp3367
sg70
g3322
sg63
(lp3368
g56
(g77
g58
NtRp3369
(dp3370
g61
(dp3371
sg70
g3365
sg63
(lp3372
g56
(g57
g58
NtRp3373
(dp3374
g61
(dp3375
g69
I3
ssg70
g3369
sg63
(lp3376
g56
(g65
g58
NtRp3377
(dp3378
g61
(dp3379
g69
I2
ssg70
Nsg63
(lp3380
sbasbasbasbasbasbasbasbag56
(g72
g58
NtRp3381
(dp3382
g61
(dp3383
sg70
g3306
sg63
(lp3384
g56
(g77
g58
NtRp3385
(dp3386
g61
(dp3387
sg70
g3381
sg63
(lp3388
g56
(g57
g58
NtRp3389
(dp3390
g61
(dp3391
g69
I4
ssg70
g3385
sg63
(lp3392
g56
(g65
g58
NtRp3393
(dp3394
g61
(dp3395
g69
I3
ssg70
Nsg63
(lp3396
g56
(g72
g58
NtRp3397
(dp3398
g61
(dp3399
sg70
g3393
sg63
(lp3400
g56
(g77
g58
NtRp3401
(dp3402
g61
(dp3403
sg70
g3397
sg63
(lp3404
g56
(g57
g58
NtRp3405
(dp3406
g61
(dp3407
g69
I3
ssg70
g3401
sg63
(lp3408
g3338
(S's\x08\x00\x00\x00This App'
tRp3409
asbasbasbag56
(g72
g58
NtRp3410
(dp3411
g61
(dp3412
sg70
g3393
sg63
(lp3413
g56
(g77
g58
NtRp3414
(dp3415
g61
(dp3416
sg70
g3410
sg63
(lp3417
g56
(g57
g58
NtRp3418
(dp3419
g61
(dp3420
g69
I3
ssg70
g3414
sg63
(lp3421
g99
asbasbasbag56
(g72
g58
NtRp3422
(dp3423
g61
(dp3424
sg70
g3393
sg63
(lp3425
g56
(g77
g58
NtRp3426
(dp3427
g61
(dp3428
sg70
g3422
sg63
(lp3429
g56
(g57
g58
NtRp3430
(dp3431
g61
(dp3432
g69
I3
ssg70
g3426
sg63
(lp3433
S'/admin/default/design/Music_Repo'
p3434
asbasbasbag56
(g72
g58
NtRp3435
(dp3436
g61
(dp3437
sg70
g3393
sg63
(lp3438
g56
(g77
g58
NtRp3439
(dp3440
g61
(dp3441
sg70
g3435
sg63
(lp3442
g56
(g57
g58
NtRp3443
(dp3444
g61
(dp3445
g69
I3
ssg70
g3439
sg63
(lp3446
g56
(g65
g58
NtRp3447
(dp3448
g61
(dp3449
g69
I2
ssg70
Nsg63
(lp3450
g56
(g72
g58
NtRp3451
(dp3452
g61
(dp3453
sg70
g3447
sg63
(lp3454
g56
(g77
g58
NtRp3455
(dp3456
g61
(dp3457
sg70
g3451
sg63
(lp3458
g56
(g57
g58
NtRp3459
(dp3460
g61
(dp3461
g69
I2
ssg70
g3455
sg63
(lp3462
g56
(g65
g58
NtRp3463
(dp3464
g61
(dp3465
g69
I1
ssg70
Nsg63
(lp3466
g56
(g72
g58
NtRp3467
(dp3468
g61
(dp3469
sg70
g3463
sg63
(lp3470
g56
(g77
g58
NtRp3471
(dp3472
g61
(dp3473
sg70
g3467
sg63
(lp3474
g56
(g57
g58
NtRp3475
(dp3476
g61
(dp3477
g69
I1
ssg70
g3471
sg63
(lp3478
g3338
(S's\n\x00\x00\x00Controller'
tRp3479
asbasbasbag56
(g72
g58
NtRp3480
(dp3481
g61
(dp3482
sg70
g3463
sg63
(lp3483
g56
(g77
g58
NtRp3484
(dp3485
g61
(dp3486
sg70
g3480
sg63
(lp3487
g56
(g57
g58
NtRp3488
(dp3489
g61
(dp3490
g69
I1
ssg70
g3484
sg63
(lp3491
I00
asbasbasbag56
(g72
g58
NtRp3492
(dp3493
g61
(dp3494
sg70
g3463
sg63
(lp3495
g56
(g77
g58
NtRp3496
(dp3497
g61
(dp3498
sg70
g3492
sg63
(lp3499
g56
(g57
g58
NtRp3500
(dp3501
g61
(dp3502
g69
I1
ssg70
g3496
sg63
(lp3503
S'/admin/default/edit/Music_Repo/controllers/default.py'
p3504
asbasbasbasbasbasbasbag56
(g72
g58
NtRp3505
(dp3506
g61
(dp3507
sg70
g3447
sg63
(lp3508
g56
(g77
g58
NtRp3509
(dp3510
g61
(dp3511
sg70
g3505
sg63
(lp3512
g56
(g57
g58
NtRp3513
(dp3514
g61
(dp3515
g69
I2
ssg70
g3509
sg63
(lp3516
g56
(g65
g58
NtRp3517
(dp3518
g61
(dp3519
g69
I1
ssg70
Nsg63
(lp3520
g56
(g72
g58
NtRp3521
(dp3522
g61
(dp3523
sg70
g3517
sg63
(lp3524
g56
(g77
g58
NtRp3525
(dp3526
g61
(dp3527
sg70
g3521
sg63
(lp3528
g56
(g57
g58
NtRp3529
(dp3530
g61
(dp3531
g69
I1
ssg70
g3525
sg63
(lp3532
g3338
(S's\x04\x00\x00\x00View'
tRp3533
asbasbasbag56
(g72
g58
NtRp3534
(dp3535
g61
(dp3536
sg70
g3517
sg63
(lp3537
g56
(g77
g58
NtRp3538
(dp3539
g61
(dp3540
sg70
g3534
sg63
(lp3541
g56
(g57
g58
NtRp3542
(dp3543
g61
(dp3544
g69
I1
ssg70
g3538
sg63
(lp3545
I00
asbasbasbag56
(g72
g58
NtRp3546
(dp3547
g61
(dp3548
sg70
g3517
sg63
(lp3549
g56
(g77
g58
NtRp3550
(dp3551
g61
(dp3552
sg70
g3546
sg63
(lp3553
g56
(g57
g58
NtRp3554
(dp3555
g61
(dp3556
g69
I1
ssg70
g3550
sg63
(lp3557
S'/admin/default/edit/Music_Repo/views/default/display_link.html'
p3558
asbasbasbasbasbasbasbag56
(g72
g58
NtRp3559
(dp3560
g61
(dp3561
sg70
g3447
sg63
(lp3562
g56
(g77
g58
NtRp3563
(dp3564
g61
(dp3565
sg70
g3559
sg63
(lp3566
g56
(g57
g58
NtRp3567
(dp3568
g61
(dp3569
g69
I2
ssg70
g3563
sg63
(lp3570
g56
(g65
g58
NtRp3571
(dp3572
g61
(dp3573
g69
I1
ssg70
Nsg63
(lp3574
g56
(g72
g58
NtRp3575
(dp3576
g61
(dp3577
sg70
g3571
sg63
(lp3578
g56
(g77
g58
NtRp3579
(dp3580
g61
(dp3581
sg70
g3575
sg63
(lp3582
g56
(g57
g58
NtRp3583
(dp3584
g61
(dp3585
g69
I1
ssg70
g3579
sg63
(lp3586
g3338
(S's\x06\x00\x00\x00Layout'
tRp3587
asbasbasbag56
(g72
g58
NtRp3588
(dp3589
g61
(dp3590
sg70
g3571
sg63
(lp3591
g56
(g77
g58
NtRp3592
(dp3593
g61
(dp3594
sg70
g3588
sg63
(lp3595
g56
(g57
g58
NtRp3596
(dp3597
g61
(dp3598
g69
I1
ssg70
g3592
sg63
(lp3599
I00
asbasbasbag56
(g72
g58
NtRp3600
(dp3601
g61
(dp3602
sg70
g3571
sg63
(lp3603
g56
(g77
g58
NtRp3604
(dp3605
g61
(dp3606
sg70
g3600
sg63
(lp3607
g56
(g57
g58
NtRp3608
(dp3609
g61
(dp3610
g69
I1
ssg70
g3604
sg63
(lp3611
S'/admin/default/edit/Music_Repo/views/layout.html'
p3612
asbasbasbasbasbasbasbag56
(g72
g58
NtRp3613
(dp3614
g61
(dp3615
sg70
g3447
sg63
(lp3616
g56
(g77
g58
NtRp3617
(dp3618
g61
(dp3619
sg70
g3613
sg63
(lp3620
g56
(g57
g58
NtRp3621
(dp3622
g61
(dp3623
g69
I2
ssg70
g3617
sg63
(lp3624
g56
(g65
g58
NtRp3625
(dp3626
g61
(dp3627
g69
I1
ssg70
Nsg63
(lp3628
g56
(g72
g58
NtRp3629
(dp3630
g61
(dp3631
sg70
g3625
sg63
(lp3632
g56
(g77
g58
NtRp3633
(dp3634
g61
(dp3635
sg70
g3629
sg63
(lp3636
g56
(g57
g58
NtRp3637
(dp3638
g61
(dp3639
g69
I1
ssg70
g3633
sg63
(lp3640
g3338
(S's\n\x00\x00\x00Stylesheet'
tRp3641
asbasbasbag56
(g72
g58
NtRp3642
(dp3643
g61
(dp3644
sg70
g3625
sg63
(lp3645
g56
(g77
g58
NtRp3646
(dp3647
g61
(dp3648
sg70
g3642
sg63
(lp3649
g56
(g57
g58
NtRp3650
(dp3651
g61
(dp3652
g69
I1
ssg70
g3646
sg63
(lp3653
I00
asbasbasbag56
(g72
g58
NtRp3654
(dp3655
g61
(dp3656
sg70
g3625
sg63
(lp3657
g56
(g77
g58
NtRp3658
(dp3659
g61
(dp3660
sg70
g3654
sg63
(lp3661
g56
(g57
g58
NtRp3662
(dp3663
g61
(dp3664
g69
I1
ssg70
g3658
sg63
(lp3665
S'/admin/default/edit/Music_Repo/static/base.css'
p3666
asbasbasbasbasbasbasbag56
(g72
g58
NtRp3667
(dp3668
g61
(dp3669
sg70
g3447
sg63
(lp3670
g56
(g77
g58
NtRp3671
(dp3672
g61
(dp3673
sg70
g3667
sg63
(lp3674
g56
(g57
g58
NtRp3675
(dp3676
g61
(dp3677
g69
I2
ssg70
g3671
sg63
(lp3678
g56
(g65
g58
NtRp3679
(dp3680
g61
(dp3681
g69
I1
ssg70
Nsg63
(lp3682
g56
(g72
g58
NtRp3683
(dp3684
g61
(dp3685
sg70
g3679
sg63
(lp3686
g56
(g77
g58
NtRp3687
(dp3688
g61
(dp3689
sg70
g3683
sg63
(lp3690
g56
(g57
g58
NtRp3691
(dp3692
g61
(dp3693
g69
I1
ssg70
g3687
sg63
(lp3694
g3338
(S's\x08\x00\x00\x00DB Model'
tRp3695
asbasbasbag56
(g72
g58
NtRp3696
(dp3697
g61
(dp3698
sg70
g3679
sg63
(lp3699
g56
(g77
g58
NtRp3700
(dp3701
g61
(dp3702
sg70
g3696
sg63
(lp3703
g56
(g57
g58
NtRp3704
(dp3705
g61
(dp3706
g69
I1
ssg70
g3700
sg63
(lp3707
I00
asbasbasbag56
(g72
g58
NtRp3708
(dp3709
g61
(dp3710
sg70
g3679
sg63
(lp3711
g56
(g77
g58
NtRp3712
(dp3713
g61
(dp3714
sg70
g3708
sg63
(lp3715
g56
(g57
g58
NtRp3716
(dp3717
g61
(dp3718
g69
I1
ssg70
g3712
sg63
(lp3719
S'/admin/default/edit/Music_Repo/models/db.py'
p3720
asbasbasbasbasbasbasbag56
(g72
g58
NtRp3721
(dp3722
g61
(dp3723
sg70
g3447
sg63
(lp3724
g56
(g77
g58
NtRp3725
(dp3726
g61
(dp3727
sg70
g3721
sg63
(lp3728
g56
(g57
g58
NtRp3729
(dp3730
g61
(dp3731
g69
I2
ssg70
g3725
sg63
(lp3732
g56
(g65
g58
NtRp3733
(dp3734
g61
(dp3735
g69
I1
ssg70
Nsg63
(lp3736
g56
(g72
g58
NtRp3737
(dp3738
g61
(dp3739
sg70
g3733
sg63
(lp3740
g56
(g77
g58
NtRp3741
(dp3742
g61
(dp3743
sg70
g3737
sg63
(lp3744
g56
(g57
g58
NtRp3745
(dp3746
g61
(dp3747
g69
I1
ssg70
g3741
sg63
(lp3748
g3338
(S's\n\x00\x00\x00Menu Model'
tRp3749
asbasbasbag56
(g72
g58
NtRp3750
(dp3751
g61
(dp3752
sg70
g3733
sg63
(lp3753
g56
(g77
g58
NtRp3754
(dp3755
g61
(dp3756
sg70
g3750
sg63
(lp3757
g56
(g57
g58
NtRp3758
(dp3759
g61
(dp3760
g69
I1
ssg70
g3754
sg63
(lp3761
I00
asbasbasbag56
(g72
g58
NtRp3762
(dp3763
g61
(dp3764
sg70
g3733
sg63
(lp3765
g56
(g77
g58
NtRp3766
(dp3767
g61
(dp3768
sg70
g3762
sg63
(lp3769
g56
(g57
g58
NtRp3770
(dp3771
g61
(dp3772
g69
I1
ssg70
g3766
sg63
(lp3773
S'/admin/default/edit/Music_Repo/models/menu.py'
p3774
asbasbasbasbasbasbasbag56
(g72
g58
NtRp3775
(dp3776
g61
(dp3777
sg70
g3447
sg63
(lp3778
g56
(g77
g58
NtRp3779
(dp3780
g61
(dp3781
sg70
g3775
sg63
(lp3782
g56
(g57
g58
NtRp3783
(dp3784
g61
(dp3785
g69
I2
ssg70
g3779
sg63
(lp3786
g56
(g65
g58
NtRp3787
(dp3788
g61
(dp3789
g69
I1
ssg70
Nsg63
(lp3790
g56
(g72
g58
NtRp3791
(dp3792
g61
(dp3793
sg70
g3787
sg63
(lp3794
g56
(g77
g58
NtRp3795
(dp3796
g61
(dp3797
sg70
g3791
sg63
(lp3798
g56
(g57
g58
NtRp3799
(dp3800
g61
(dp3801
g69
I1
ssg70
g3795
sg63
(lp3802
g3338
(S's\x08\x00\x00\x00Database'
tRp3803
asbasbasbag56
(g72
g58
NtRp3804
(dp3805
g61
(dp3806
sg70
g3787
sg63
(lp3807
g56
(g77
g58
NtRp3808
(dp3809
g61
(dp3810
sg70
g3804
sg63
(lp3811
g56
(g57
g58
NtRp3812
(dp3813
g61
(dp3814
g69
I1
ssg70
g3808
sg63
(lp3815
I00
asbasbasbag56
(g72
g58
NtRp3816
(dp3817
g61
(dp3818
sg70
g3787
sg63
(lp3819
g56
(g77
g58
NtRp3820
(dp3821
g61
(dp3822
sg70
g3816
sg63
(lp3823
g56
(g57
g58
NtRp3824
(dp3825
g61
(dp3826
g69
I1
ssg70
g3820
sg63
(lp3827
S'/Music_Repo/appadmin/index'
p3828
asbasbasbasbasbasbasbag56
(g72
g58
NtRp3829
(dp3830
g61
(dp3831
sg70
g3447
sg63
(lp3832
g56
(g77
g58
NtRp3833
(dp3834
g61
(dp3835
sg70
g3829
sg63
(lp3836
g56
(g57
g58
NtRp3837
(dp3838
g61
(dp3839
g69
I2
ssg70
g3833
sg63
(lp3840
g56
(g65
g58
NtRp3841
(dp3842
g61
(dp3843
g69
I1
ssg70
Nsg63
(lp3844
g56
(g72
g58
NtRp3845
(dp3846
g61
(dp3847
sg70
g3841
sg63
(lp3848
g56
(g77
g58
NtRp3849
(dp3850
g61
(dp3851
sg70
g3845
sg63
(lp3852
g56
(g57
g58
NtRp3853
(dp3854
g61
(dp3855
g69
I1
ssg70
g3849
sg63
(lp3856
g3338
(S's\x06\x00\x00\x00Errors'
tRp3857
asbasbasbag56
(g72
g58
NtRp3858
(dp3859
g61
(dp3860
sg70
g3841
sg63
(lp3861
g56
(g77
g58
NtRp3862
(dp3863
g61
(dp3864
sg70
g3858
sg63
(lp3865
g56
(g57
g58
NtRp3866
(dp3867
g61
(dp3868
g69
I1
ssg70
g3862
sg63
(lp3869
I00
asbasbasbag56
(g72
g58
NtRp3870
(dp3871
g61
(dp3872
sg70
g3841
sg63
(lp3873
g56
(g77
g58
NtRp3874
(dp3875
g61
(dp3876
sg70
g3870
sg63
(lp3877
g56
(g57
g58
NtRp3878
(dp3879
g61
(dp3880
g69
I1
ssg70
g3874
sg63
(lp3881
S'/admin/default/errors/Music_Repo'
p3882
asbasbasbasbasbasbasbag56
(g72
g58
NtRp3883
(dp3884
g61
(dp3885
sg70
g3447
sg63
(lp3886
g56
(g77
g58
NtRp3887
(dp3888
g61
(dp3889
sg70
g3883
sg63
(lp3890
g56
(g57
g58
NtRp3891
(dp3892
g61
(dp3893
g69
I2
ssg70
g3887
sg63
(lp3894
g56
(g65
g58
NtRp3895
(dp3896
g61
(dp3897
g69
I1
ssg70
Nsg63
(lp3898
g56
(g72
g58
NtRp3899
(dp3900
g61
(dp3901
sg70
g3895
sg63
(lp3902
g56
(g77
g58
NtRp3903
(dp3904
g61
(dp3905
sg70
g3899
sg63
(lp3906
g56
(g57
g58
NtRp3907
(dp3908
g61
(dp3909
g69
I1
ssg70
g3903
sg63
(lp3910
g3338
(S's\x05\x00\x00\x00About'
tRp3911
asbasbasbag56
(g72
g58
NtRp3912
(dp3913
g61
(dp3914
sg70
g3895
sg63
(lp3915
g56
(g77
g58
NtRp3916
(dp3917
g61
(dp3918
sg70
g3912
sg63
(lp3919
g56
(g57
g58
NtRp3920
(dp3921
g61
(dp3922
g69
I1
ssg70
g3916
sg63
(lp3923
I00
asbasbasbag56
(g72
g58
NtRp3924
(dp3925
g61
(dp3926
sg70
g3895
sg63
(lp3927
g56
(g77
g58
NtRp3928
(dp3929
g61
(dp3930
sg70
g3924
sg63
(lp3931
g56
(g57
g58
NtRp3932
(dp3933
g61
(dp3934
g69
I1
ssg70
g3928
sg63
(lp3935
S'/admin/default/about/Music_Repo'
p3936
asbasbasbasbasbasbasbasbasbasbasbasbasbasbasbag56
(g72
g58
NtRp3937
(dp3938
g61
(dp3939
sg70
g3306
sg63
(lp3940
g56
(g77
g58
NtRp3941
(dp3942
g61
(dp3943
sg70
g3937
sg63
(lp3944
g56
(g57
g58
NtRp3945
(dp3946
g61
(dp3947
g69
I4
ssg70
g3941
sg63
(lp3948
g56
(g65
g58
NtRp3949
(dp3950
g61
(dp3951
g69
I3
ssg70
Nsg63
(lp3952
g56
(g72
g58
NtRp3953
(dp3954
g61
(dp3955
sg70
g3949
sg63
(lp3956
g56
(g77
g58
NtRp3957
(dp3958
g61
(dp3959
sg70
g3953
sg63
(lp3960
g56
(g57
g58
NtRp3961
(dp3962
g61
(dp3963
g69
I3
ssg70
g3957
sg63
(lp3964
g3338
(S's\t\x00\x00\x00Resources'
tRp3965
asbasbasbag56
(g72
g58
NtRp3966
(dp3967
g61
(dp3968
sg70
g3949
sg63
(lp3969
g56
(g77
g58
NtRp3970
(dp3971
g61
(dp3972
sg70
g3966
sg63
(lp3973
g56
(g57
g58
NtRp3974
(dp3975
g61
(dp3976
g69
I3
ssg70
g3970
sg63
(lp3977
g99
asbasbasbag56
(g72
g58
NtRp3978
(dp3979
g61
(dp3980
sg70
g3949
sg63
(lp3981
g56
(g77
g58
NtRp3982
(dp3983
g61
(dp3984
sg70
g3978
sg63
(lp3985
g56
(g57
g58
NtRp3986
(dp3987
g61
(dp3988
g69
I3
ssg70
g3982
sg63
(lp3989
S'None'
p3990
asbasbasbag56
(g72
g58
NtRp3991
(dp3992
g61
(dp3993
sg70
g3949
sg63
(lp3994
g56
(g77
g58
NtRp3995
(dp3996
g61
(dp3997
sg70
g3991
sg63
(lp3998
g56
(g57
g58
NtRp3999
(dp4000
g61
(dp4001
g69
I3
ssg70
g3995
sg63
(lp4002
g56
(g65
g58
NtRp4003
(dp4004
g61
(dp4005
g69
I2
ssg70
Nsg63
(lp4006
g56
(g72
g58
NtRp4007
(dp4008
g61
(dp4009
sg70
g4003
sg63
(lp4010
g56
(g77
g58
NtRp4011
(dp4012
g61
(dp4013
sg70
g4007
sg63
(lp4014
g56
(g57
g58
NtRp4015
(dp4016
g61
(dp4017
g69
I2
ssg70
g4011
sg63
(lp4018
g56
(g65
g58
NtRp4019
(dp4020
g61
(dp4021
g69
I1
ssg70
Nsg63
(lp4022
g56
(g72
g58
NtRp4023
(dp4024
g61
(dp4025
sg70
g4019
sg63
(lp4026
g56
(g77
g58
NtRp4027
(dp4028
g61
(dp4029
sg70
g4023
sg63
(lp4030
g56
(g57
g58
NtRp4031
(dp4032
g61
(dp4033
g69
I1
ssg70
g4027
sg63
(lp4034
g3338
(S's\r\x00\x00\x00Documentation'
tRp4035
asbasbasbag56
(g72
g58
NtRp4036
(dp4037
g61
(dp4038
sg70
g4019
sg63
(lp4039
g56
(g77
g58
NtRp4040
(dp4041
g61
(dp4042
sg70
g4036
sg63
(lp4043
g56
(g57
g58
NtRp4044
(dp4045
g61
(dp4046
g69
I1
ssg70
g4040
sg63
(lp4047
I00
asbasbasbag56
(g72
g58
NtRp4048
(dp4049
g61
(dp4050
sg70
g4019
sg63
(lp4051
g56
(g77
g58
NtRp4052
(dp4053
g61
(dp4054
sg70
g4048
sg63
(lp4055
g56
(g57
g58
NtRp4056
(dp4057
g61
(dp4058
g69
I1
ssg70
g4052
sg63
(lp4059
S'http://www.web2py.com/book'
p4060
asbasbasbag56
(g72
g58
NtRp4061
(dp4062
g61
(dp4063
sg70
g4019
sg63
(lp4064
g56
(g77
g58
NtRp4065
(dp4066
g61
(dp4067
sg70
g4061
sg63
(lp4068
g56
(g57
g58
NtRp4069
(dp4070
g61
(dp4071
g69
I1
ssg70
g4065
sg63
(lp4072
(lp4073
(g3338
(S's\x07\x00\x00\x00Preface'
tRp4074
I00
S'http://www.web2py.com/book/default/chapter/00'
tp4075
a(g3338
(S's\x0c\x00\x00\x00Introduction'
tRp4076
I00
S'http://www.web2py.com/book/default/chapter/01'
tp4077
a(g3338
(S's\x06\x00\x00\x00Python'
tRp4078
I00
S'http://www.web2py.com/book/default/chapter/02'
tp4079
a(g3338
(S's\x08\x00\x00\x00Overview'
tRp4080
I00
S'http://www.web2py.com/book/default/chapter/03'
tp4081
a(g3338
(S's\x08\x00\x00\x00The Core'
tRp4082
I00
S'http://www.web2py.com/book/default/chapter/04'
tp4083
a(g3338
(S's\t\x00\x00\x00The Views'
tRp4084
I00
S'http://www.web2py.com/book/default/chapter/05'
tp4085
a(g3338
(S's\x08\x00\x00\x00Database'
tRp4086
I00
S'http://www.web2py.com/book/default/chapter/06'
tp4087
a(g3338
(S's\x14\x00\x00\x00Forms and Validators'
tRp4088
I00
S'http://www.web2py.com/book/default/chapter/07'
tp4089
a(g3338
(S's\x0e\x00\x00\x00Access Control'
tRp4090
I00
S'http://www.web2py.com/book/default/chapter/08'
tp4091
a(g3338
(S's\x08\x00\x00\x00Services'
tRp4092
I00
S'http://www.web2py.com/book/default/chapter/09'
tp4093
a(g3338
(S's\x0c\x00\x00\x00Ajax Recipes'
tRp4094
I00
S'http://www.web2py.com/book/default/chapter/10'
tp4095
a(g3338
(S's\x12\x00\x00\x00Deployment Recipes'
tRp4096
I00
S'http://www.web2py.com/book/default/chapter/11'
tp4097
a(g3338
(S's\r\x00\x00\x00Other Recipes'
tRp4098
I00
S'http://www.web2py.com/book/default/chapter/12'
tp4099
a(g3338
(S's\r\x00\x00\x00Buy this book'
tRp4100
I00
S'http://stores.lulu.com/web2py'
tp4101
aasbasbasbasbasbasbasbag56
(g72
g58
NtRp4102
(dp4103
g61
(dp4104
sg70
g4003
sg63
(lp4105
g56
(g77
g58
NtRp4106
(dp4107
g61
(dp4108
sg70
g4102
sg63
(lp4109
g56
(g57
g58
NtRp4110
(dp4111
g61
(dp4112
g69
I2
ssg70
g4106
sg63
(lp4113
g56
(g65
g58
NtRp4114
(dp4115
g61
(dp4116
g69
I1
ssg70
Nsg63
(lp4117
g56
(g72
g58
NtRp4118
(dp4119
g61
(dp4120
sg70
g4114
sg63
(lp4121
g56
(g77
g58
NtRp4122
(dp4123
g61
(dp4124
sg70
g4118
sg63
(lp4125
g56
(g57
g58
NtRp4126
(dp4127
g61
(dp4128
g69
I1
ssg70
g4122
sg63
(lp4129
g3338
(S's\t\x00\x00\x00Community'
tRp4130
asbasbasbag56
(g72
g58
NtRp4131
(dp4132
g61
(dp4133
sg70
g4114
sg63
(lp4134
g56
(g77
g58
NtRp4135
(dp4136
g61
(dp4137
sg70
g4131
sg63
(lp4138
g56
(g57
g58
NtRp4139
(dp4140
g61
(dp4141
g69
I1
ssg70
g4135
sg63
(lp4142
I00
asbasbasbag56
(g72
g58
NtRp4143
(dp4144
g61
(dp4145
sg70
g4114
sg63
(lp4146
g56
(g77
g58
NtRp4147
(dp4148
g61
(dp4149
sg70
g4143
sg63
(lp4150
g56
(g57
g58
NtRp4151
(dp4152
g61
(dp4153
g69
I1
ssg70
g4147
sg63
(lp4154
Nasbasbasbag56
(g72
g58
NtRp4155
(dp4156
g61
(dp4157
sg70
g4114
sg63
(lp4158
g56
(g77
g58
NtRp4159
(dp4160
g61
(dp4161
sg70
g4155
sg63
(lp4162
g56
(g57
g58
NtRp4163
(dp4164
g61
(dp4165
g69
I1
ssg70
g4159
sg63
(lp4166
(lp4167
(g3338
(S's\x06\x00\x00\x00Groups'
tRp4168
I00
S'http://www.web2py.com/examples/default/usergroups'
tp4169
a(g3338
(S's\x07\x00\x00\x00Twitter'
tRp4170
I00
S'http://twitter.com/web2py'
tp4171
a(g3338
(S's\t\x00\x00\x00Live chat'
tRp4172
I00
S'http://mibbit.com/?channel=%23web2py&server=irc.mibbit.net'
tp4173
a(g3338
(S's\n\x00\x00\x00User Voice'
tRp4174
I00
S'http://web2py.uservoice.com/'
tp4175
aasbasbasbasbasbasbasbag56
(g72
g58
NtRp4176
(dp4177
g61
(dp4178
sg70
g4003
sg63
(lp4179
g56
(g77
g58
NtRp4180
(dp4181
g61
(dp4182
sg70
g4176
sg63
(lp4183
g56
(g57
g58
NtRp4184
(dp4185
g61
(dp4186
g69
I2
ssg70
g4180
sg63
(lp4187
g56
(g65
g58
NtRp4188
(dp4189
g61
(dp4190
g69
I1
ssg70
Nsg63
(lp4191
g56
(g72
g58
NtRp4192
(dp4193
g61
(dp4194
sg70
g4188
sg63
(lp4195
g56
(g77
g58
NtRp4196
(dp4197
g61
(dp4198
sg70
g4192
sg63
(lp4199
g56
(g57
g58
NtRp4200
(dp4201
g61
(dp4202
g69
I1
ssg70
g4196
sg63
(lp4203
g3338
(S's\x06\x00\x00\x00Web2py'
tRp4204
asbasbasbag56
(g72
g58
NtRp4205
(dp4206
g61
(dp4207
sg70
g4188
sg63
(lp4208
g56
(g77
g58
NtRp4209
(dp4210
g61
(dp4211
sg70
g4205
sg63
(lp4212
g56
(g57
g58
NtRp4213
(dp4214
g61
(dp4215
g69
I1
ssg70
g4209
sg63
(lp4216
I00
asbasbasbag56
(g72
g58
NtRp4217
(dp4218
g61
(dp4219
sg70
g4188
sg63
(lp4220
g56
(g77
g58
NtRp4221
(dp4222
g61
(dp4223
sg70
g4217
sg63
(lp4224
g56
(g57
g58
NtRp4225
(dp4226
g61
(dp4227
g69
I1
ssg70
g4221
sg63
(lp4228
S'http://www.web2py.com'
p4229
asbasbasbag56
(g72
g58
NtRp4230
(dp4231
g61
(dp4232
sg70
g4188
sg63
(lp4233
g56
(g77
g58
NtRp4234
(dp4235
g61
(dp4236
sg70
g4230
sg63
(lp4237
g56
(g57
g58
NtRp4238
(dp4239
g61
(dp4240
g69
I1
ssg70
g4234
sg63
(lp4241
(lp4242
(g3338
(S's\x08\x00\x00\x00Download'
tRp4243
I00
S'http://www.web2py.com/examples/default/download'
tp4244
a(g3338
(S's\x07\x00\x00\x00Support'
tRp4245
I00
S'http://www.web2py.com/examples/default/support'
tp4246
a(g3338
(S's\x0e\x00\x00\x00Quick Examples'
tRp4247
I00
S'http://web2py.com/examples/default/examples'
tp4248
a(g3338
(S's\x03\x00\x00\x00FAQ'
tRp4249
I00
S'http://web2py.com/AlterEgo'
tp4250
a(g3338
(S's\x11\x00\x00\x00Free Applications'
tRp4251
I00
S'http://web2py.com/appliances'
tp4252
a(g3338
(S's\x07\x00\x00\x00Plugins'
tRp4253
I00
S'http://web2py.com/plugins'
tp4254
a(g3338
(S's\x07\x00\x00\x00Recipes'
tRp4255
I00
S'http://web2pyslices.com/'
tp4256
a(g3338
(S's\x04\x00\x00\x00Demo'
tRp4257
I00
S'http://web2py.com/demo_admin'
tp4258
a(g3338
(S's\x08\x00\x00\x00Semantic'
tRp4259
I00
S'http://web2py.com/semantic'
tp4260
a(g3338
(S's\x07\x00\x00\x00Layouts'
tRp4261
I00
S'http://web2py.com/layouts'
tp4262
a(g3338
(S's\x06\x00\x00\x00Videos'
tRp4263
I00
S'http://www.web2py.com/examples/default/videos/'
tp4264
aasbasbasbasbasbasbasbasbasbasbasbasbasbasbasbasbasbasbasbag56
(g72
g58
NtRp4265
(dp4266
g61
(dp4267
sg70
g2755
sg63
(lp4268
g56
(g77
g58
NtRp4269
(dp4270
g61
(dp4271
g81
g82
ssg70
g4265
sg63
(lp4272
S'meta'
p4273
asbag56
(g77
g58
NtRp4274
(dp4275
g61
(dp4276
g88
g89
ssg70
g4265
sg63
(lp4277
S':'
asbag56
(g77
g58
NtRp4278
(dp4279
g61
(dp4280
sg70
g4265
sg63
(lp4281
g56
(g57
g58
NtRp4282
(dp4283
g61
(dp4284
g69
I5
ssg70
g4278
sg63
(lp4285
g56
(g65
g58
NtRp4286
(dp4287
g61
(dp4288
g69
I4
ssg70
Nsg63
(lp4289
g56
(g72
g58
NtRp4290
(dp4291
g61
(dp4292
sg70
g4286
sg63
(lp4293
g56
(g77
g58
NtRp4294
(dp4295
g61
(dp4296
g81
g82
ssg70
g4290
sg63
(lp4297
S'author'
p4298
asbag56
(g77
g58
NtRp4299
(dp4300
g61
(dp4301
g88
g89
ssg70
g4290
sg63
(lp4302
S':'
asbag56
(g77
g58
NtRp4303
(dp4304
g61
(dp4305
sg70
g4290
sg63
(lp4306
g56
(g57
g58
NtRp4307
(dp4308
g61
(dp4309
g69
I4
ssg70
g4303
sg63
(lp4310
S'you'
p4311
asbasbasbag56
(g72
g58
NtRp4312
(dp4313
g61
(dp4314
sg70
g4286
sg63
(lp4315
g56
(g77
g58
NtRp4316
(dp4317
g61
(dp4318
g81
g82
ssg70
g4312
sg63
(lp4319
S'copyright'
p4320
asbag56
(g77
g58
NtRp4321
(dp4322
g61
(dp4323
g88
g89
ssg70
g4312
sg63
(lp4324
S':'
asbag56
(g77
g58
NtRp4325
(dp4326
g61
(dp4327
sg70
g4312
sg63
(lp4328
g56
(g57
g58
NtRp4329
(dp4330
g61
(dp4331
g69
I4
ssg70
g4325
sg63
(lp4332
S'Copyright 2007-2010'
p4333
asbasbasbag56
(g72
g58
NtRp4334
(dp4335
g61
(dp4336
sg70
g4286
sg63
(lp4337
g56
(g77
g58
NtRp4338
(dp4339
g61
(dp4340
g81
g82
ssg70
g4334
sg63
(lp4341
S'description'
p4342
asbag56
(g77
g58
NtRp4343
(dp4344
g61
(dp4345
g88
g89
ssg70
g4334
sg63
(lp4346
S':'
asbag56
(g77
g58
NtRp4347
(dp4348
g61
(dp4349
sg70
g4334
sg63
(lp4350
g56
(g57
g58
NtRp4351
(dp4352
g61
(dp4353
g69
I4
ssg70
g4347
sg63
(lp4354
S'Free and open source full-stack enterprise framework for agile development of fast, scalable, secure and portable database-driven web-based applications. Written and programmable in Python'
p4355
asbasbasbag56
(g72
g58
NtRp4356
(dp4357
g61
(dp4358
sg70
g4286
sg63
(lp4359
g56
(g77
g58
NtRp4360
(dp4361
g61
(dp4362
g81
g82
ssg70
g4356
sg63
(lp4363
S'generator'
p4364
asbag56
(g77
g58
NtRp4365
(dp4366
g61
(dp4367
g88
g89
ssg70
g4356
sg63
(lp4368
S':'
asbag56
(g77
g58
NtRp4369
(dp4370
g61
(dp4371
sg70
g4356
sg63
(lp4372
g56
(g57
g58
NtRp4373
(dp4374
g61
(dp4375
g69
I4
ssg70
g4369
sg63
(lp4376
S'Web2py Enterprise Framework'
p4377
asbasbasbag56
(g72
g58
NtRp4378
(dp4379
g61
(dp4380
sg70
g4286
sg63
(lp4381
g56
(g77
g58
NtRp4382
(dp4383
g61
(dp4384
g81
g82
ssg70
g4378
sg63
(lp4385
S'keywords'
p4386
asbag56
(g77
g58
NtRp4387
(dp4388
g61
(dp4389
g88
g89
ssg70
g4378
sg63
(lp4390
S':'
asbag56
(g77
g58
NtRp4391
(dp4392
g61
(dp4393
sg70
g4378
sg63
(lp4394
g56
(g57
g58
NtRp4395
(dp4396
g61
(dp4397
g69
I4
ssg70
g4391
sg63
(lp4398
S'web2py, python, framework'
p4399
asbasbasbasbasbasbasbag56
(g72
g58
NtRp4400
(dp4401
g61
(dp4402
sg70
g2755
sg63
(lp4403
g56
(g77
g58
NtRp4404
(dp4405
g61
(dp4406
g81
g82
ssg70
g4400
sg63
(lp4407
S'postprocessing'
p4408
asbag56
(g77
g58
NtRp4409
(dp4410
g61
(dp4411
g88
g89
ssg70
g4400
sg63
(lp4412
S':'
asbag56
(g77
g58
NtRp4413
(dp4414
g61
(dp4415
sg70
g4400
sg63
(lp4416
g56
(g57
g58
NtRp4417
(dp4418
g61
(dp4419
g69
I5
ssg70
g4413
sg63
(lp4420
g56
(g65
g58
NtRp4421
(dp4422
g61
(dp4423
g69
I4
ssg70
Nsg63
(lp4424
sbasbasbasbag56
(g72
g58
NtRp4425
(dp4426
g61
(dp4427
sg70
g2755
sg63
(lp4428
g56
(g77
g58
NtRp4429
(dp4430
g61
(dp4431
g81
g82
ssg70
g4425
sg63
(lp4432
S'session_file'
p4433
asbag56
(g77
g58
NtRp4434
(dp4435
g61
(dp4436
g88
g89
ssg70
g4425
sg63
(lp4437
S':'
asbag56
(g77
g58
NtRp4438
(dp4439
g61
(dp4440
sg70
g4425
sg63
(lp4441
g56
(g57
g58
NtRp4442
(dp4443
g61
(dp4444
g69
I5
ssg70
g4438
sg63
(lp4445
S"<open file '/home/vsvah/Desktop/Coursework/Sem3/SSAD/web2py/applications/Music_Repo/sessions/127.0.0.1-0cc5ad7f-61ca-479a-933d-b13352216d24', mode 'rb+' at 0xb213440>"
p4446
asbasbasbag56
(g72
g58
NtRp4447
(dp4448
g61
(dp4449
sg70
g2755
sg63
(lp4450
g56
(g77
g58
NtRp4451
(dp4452
g61
(dp4453
g81
g82
ssg70
g4447
sg63
(lp4454
S'session_filename'
p4455
asbag56
(g77
g58
NtRp4456
(dp4457
g61
(dp4458
g88
g89
ssg70
g4447
sg63
(lp4459
S':'
asbag56
(g77
g58
NtRp4460
(dp4461
g61
(dp4462
sg70
g4447
sg63
(lp4463
g56
(g57
g58
NtRp4464
(dp4465
g61
(dp4466
g69
I5
ssg70
g4460
sg63
(lp4467
S'/home/vsvah/Desktop/Coursework/Sem3/SSAD/web2py/applications/Music_Repo/sessions/127.0.0.1-0cc5ad7f-61ca-479a-933d-b13352216d24'
p4468
asbasbasbag56
(g72
g58
NtRp4469
(dp4470
g61
(dp4471
sg70
g2755
sg63
(lp4472
g56
(g77
g58
NtRp4473
(dp4474
g61
(dp4475
g81
g82
ssg70
g4469
sg63
(lp4476
S'session_id'
p4477
asbag56
(g77
g58
NtRp4478
(dp4479
g61
(dp4480
g88
g89
ssg70
g4469
sg63
(lp4481
S':'
asbag56
(g77
g58
NtRp4482
(dp4483
g61
(dp4484
sg70
g4469
sg63
(lp4485
g56
(g57
g58
NtRp4486
(dp4487
g61
(dp4488
g69
I5
ssg70
g4482
sg63
(lp4489
S'127.0.0.1-0cc5ad7f-61ca-479a-933d-b13352216d24'
p4490
asbasbasbag56
(g72
g58
NtRp4491
(dp4492
g61
(dp4493
sg70
g2755
sg63
(lp4494
g56
(g77
g58
NtRp4495
(dp4496
g61
(dp4497
g81
g82
ssg70
g4491
sg63
(lp4498
S'session_id_name'
p4499
asbag56
(g77
g58
NtRp4500
(dp4501
g61
(dp4502
g88
g89
ssg70
g4491
sg63
(lp4503
S':'
asbag56
(g77
g58
NtRp4504
(dp4505
g61
(dp4506
sg70
g4491
sg63
(lp4507
g56
(g57
g58
NtRp4508
(dp4509
g61
(dp4510
g69
I5
ssg70
g4504
sg63
(lp4511
g2812
asbasbasbag56
(g72
g58
NtRp4512
(dp4513
g61
(dp4514
sg70
g2755
sg63
(lp4515
g56
(g77
g58
NtRp4516
(dp4517
g61
(dp4518
g81
g82
ssg70
g4512
sg63
(lp4519
S'session_locked'
p4520
asbag56
(g77
g58
NtRp4521
(dp4522
g61
(dp4523
g88
g89
ssg70
g4512
sg63
(lp4524
S':'
asbag56
(g77
g58
NtRp4525
(dp4526
g61
(dp4527
sg70
g4512
sg63
(lp4528
g56
(g57
g58
NtRp4529
(dp4530
g61
(dp4531
g69
I5
ssg70
g4525
sg63
(lp4532
g1612
asbasbasbag56
(g72
g58
NtRp4533
(dp4534
g61
(dp4535
sg70
g2755
sg63
(lp4536
g56
(g77
g58
NtRp4537
(dp4538
g61
(dp4539
g81
g82
ssg70
g4533
sg63
(lp4540
S'session_new'
p4541
asbag56
(g77
g58
NtRp4542
(dp4543
g61
(dp4544
g88
g89
ssg70
g4533
sg63
(lp4545
S':'
asbag56
(g77
g58
NtRp4546
(dp4547
g61
(dp4548
sg70
g4533
sg63
(lp4549
g56
(g57
g58
NtRp4550
(dp4551
g61
(dp4552
g69
I5
ssg70
g4546
sg63
(lp4553
g99
asbasbasbag56
(g72
g58
NtRp4554
(dp4555
g61
(dp4556
sg70
g2755
sg63
(lp4557
g56
(g77
g58
NtRp4558
(dp4559
g61
(dp4560
g81
g82
ssg70
g4554
sg63
(lp4561
S'status'
p4562
asbag56
(g77
g58
NtRp4563
(dp4564
g61
(dp4565
g88
g89
ssg70
g4554
sg63
(lp4566
S':'
asbag56
(g77
g58
NtRp4567
(dp4568
g61
(dp4569
sg70
g4554
sg63
(lp4570
g56
(g57
g58
NtRp4571
(dp4572
g61
(dp4573
g69
I5
ssg70
g4567
sg63
(lp4574
S'200'
p4575
asbasbasbag56
(g72
g58
NtRp4576
(dp4577
g61
(dp4578
sg70
g2755
sg63
(lp4579
g56
(g77
g58
NtRp4580
(dp4581
g61
(dp4582
g81
g82
ssg70
g4576
sg63
(lp4583
S'subtitle'
p4584
asbag56
(g77
g58
NtRp4585
(dp4586
g61
(dp4587
g88
g89
ssg70
g4576
sg63
(lp4588
S':'
asbag56
(g77
g58
NtRp4589
(dp4590
g61
(dp4591
sg70
g4576
sg63
(lp4592
g56
(g57
g58
NtRp4593
(dp4594
g61
(dp4595
g69
I5
ssg70
g4589
sg63
(lp4596
g3338
(S's\r\x00\x00\x00customize me!'
tRp4597
asbasbasbag56
(g72
g58
NtRp4598
(dp4599
g61
(dp4600
sg70
g2755
sg63
(lp4601
g56
(g77
g58
NtRp4602
(dp4603
g61
(dp4604
g81
g82
ssg70
g4598
sg63
(lp4605
S'title'
p4606
asbag56
(g77
g58
NtRp4607
(dp4608
g61
(dp4609
g88
g89
ssg70
g4598
sg63
(lp4610
S':'
asbag56
(g77
g58
NtRp4611
(dp4612
g61
(dp4613
sg70
g4598
sg63
(lp4614
g56
(g57
g58
NtRp4615
(dp4616
g61
(dp4617
g69
I5
ssg70
g4611
sg63
(lp4618
g121
asbasbasbag56
(g72
g58
NtRp4619
(dp4620
g61
(dp4621
sg70
g2755
sg63
(lp4622
g56
(g77
g58
NtRp4623
(dp4624
g61
(dp4625
g81
g82
ssg70
g4619
sg63
(lp4626
g1936
asbag56
(g77
g58
NtRp4627
(dp4628
g61
(dp4629
g88
g89
ssg70
g4619
sg63
(lp4630
S':'
asbag56
(g77
g58
NtRp4631
(dp4632
g61
(dp4633
sg70
g4619
sg63
(lp4634
g56
(g57
g58
NtRp4635
(dp4636
g61
(dp4637
g69
I5
ssg70
g4631
sg63
(lp4638
g1949
asbasbasbag56
(g72
g58
NtRp4639
(dp4640
g61
(dp4641
sg70
g2755
sg63
(lp4642
g56
(g77
g58
NtRp4643
(dp4644
g61
(dp4645
g81
g82
ssg70
g4639
sg63
(lp4646
S'view'
p4647
asbag56
(g77
g58
NtRp4648
(dp4649
g61
(dp4650
g88
g89
ssg70
g4639
sg63
(lp4651
S':'
asbag56
(g77
g58
NtRp4652
(dp4653
g61
(dp4654
sg70
g4639
sg63
(lp4655
g56
(g57
g58
NtRp4656
(dp4657
g61
(dp4658
g69
I5
ssg70
g4652
sg63
(lp4659
S'default/display_link.html'
p4660
asbasbasbasbasbsS'locals'
p4661
(dp4662
S'Service'
p4663
S"<class 'gluon.tools.Service'>"
p4664
sS'OBJECT'
p4665
S"<class 'gluon.html.OBJECT'>"
p4666
sS'_file'
p4667
S"'/Music_Repo/static/js/superfish.js'"
p4668
sS'SQLDB'
p4669
S"<class 'gluon.dal.DAL'>"
p4670
sg2672
S"<Storage {'_formkey[movie/create]': 'b0ddb304-29...reate]': 'a09563b0-1b19-434c-a51e-645f73f397af'}>"
p4671
sS'LINK'
p4672
S"<class 'gluon.html.LINK'>"
p4673
sS'BR'
p4674
S"<class 'gluon.html.BR'>"
p4675
sS'local_import'
p4676
S'<function <lambda>>'
p4677
sS'OPTGROUP'
p4678
S"<class 'gluon.html.OPTGROUP'>"
p4679
sS'PRE'
p4680
S"<class 'gluon.html.PRE'>"
p4681
sS'IS_INT_IN_RANGE'
p4682
S"<class 'gluon.validators.IS_INT_IN_RANGE'>"
p4683
sS'left_sidebar_enabled'
p4684
g99
sS'IS_LOWER'
p4685
S"<class 'gluon.validators.IS_LOWER'>"
p4686
sS'IS_STRONG'
p4687
S"<class 'gluon.validators.IS_STRONG'>"
p4688
sS'cache'
p4689
S'<gluon.cache.Cache object>'
p4690
sS'IS_IN_DB'
p4691
S"<class 'gluon.validators.IS_IN_DB'>"
p4692
sS'TAG'
p4693
S'<gluon.html.__TAG__ object>'
p4694
sS'_k'
p4695
S'5'
sS'SQLField'
p4696
S"<class 'gluon.dal.Field'>"
p4697
sS'mail'
p4698
S'<gluon.tools.Mail object>'
p4699
sS'BODY'
p4700
S"<class 'gluon.html.BODY'>"
p4701
sS'IS_DATE_IN_RANGE'
p4702
S"<class 'gluon.validators.IS_DATE_IN_RANGE'>"
p4703
sS'TH'
p4704
S"<class 'gluon.html.TH'>"
p4705
sS'URL'
p4706
S'<function URL>'
p4707
sS'__file__'
p4708
S"'/home/vsvah/Desktop/Coursework/Sem3/SSAD/web2py/...ations/Music_Repo/views/default/display_link.html'"
p4709
sS'db'
p4710
S"<DAL {'auth_event': <Table {'origin': <gluon.dal..., 'id': <gluon.dal.Field object at 0xb28f86c>}>}>"
p4711
sS'auth'
p4712
S'<gluon.tools.Auth object>'
p4713
sS'P'
S"<class 'gluon.html.P'>"
p4714
sS'TFOOT'
p4715
S"<class 'gluon.html.TFOOT'>"
p4716
sS'XHTML'
p4717
S"<class 'gluon.html.XHTML'>"
p4718
sS'datetime'
p4719
S"<module 'datetime' from '/usr/lib/python2.6/lib-dynload/datetime.so'>"
p4720
sS'ON'
p4721
g1612
sS'OL'
p4722
S"<class 'gluon.html.OL'>"
p4723
sS'TEXTAREA'
p4724
S"<class 'gluon.html.TEXTAREA'>"
p4725
sS'MENU'
p4726
S"<class 'gluon.html.MENU'>"
p4727
sS'_file0'
p4728
S"'/music_repo/static/js/superfish.js'"
p4729
sS'LOAD'
p4730
S'<gluon.compileapp.LoadFactory object>'
p4731
sS'CODE'
p4732
S"<class 'gluon.html.CODE'>"
p4733
sS'HTTP'
p4734
S"<class 'gluon.http.HTTP'>"
p4735
sS'HR'
p4736
S"<class 'gluon.html.HR'>"
p4737
sS'IS_DATETIME'
p4738
S"<class 'gluon.validators.IS_DATETIME'>"
p4739
sS'HEAD'
p4740
S"<class 'gluon.html.HEAD'>"
p4741
sS'LABEL'
p4742
S"<class 'gluon.html.LABEL'>"
p4743
sS'CLEANUP'
p4744
S"<class 'gluon.validators.CLEANUP'>"
p4745
sS'plugins'
p4746
S'<gluon.tools.PluginManager object>'
p4747
sS'SELECT'
p4748
S"<class 'gluon.html.SELECT'>"
p4749
sS'CENTER'
p4750
S"<class 'gluon.html.CENTER'>"
p4751
sS'left_sidebar_style'
p4752
S'\'style="display: none;"\''
p4753
sS'Crud'
p4754
S"<class 'gluon.tools.Crud'>"
p4755
sS'Auth'
p4756
S"<class 'gluon.tools.Auth'>"
p4757
sS'__builtins__'
p4758
S"{'ArithmeticError': <type 'exceptions.ArithmeticError'>, 'AssertionError': <type 'exceptions.AssertionError'>, 'AttributeError': <type 'exceptions.AttributeError'>, 'BaseException': <type 'exceptions.BaseException'>, 'BufferError': <type 'exceptions.BufferError'>, 'BytesWarning': <type 'exceptions.BytesWarning'>, 'DeprecationWarning': <type 'exceptions.DeprecationWarning'>, 'EOFError': <type 'exceptions.EOFError'>, 'Ellipsis': Ellipsis, 'EnvironmentError': <type 'exceptions.EnvironmentError'>, ...}"
p4759
sS'IS_LIST_OF'
p4760
S"<class 'gluon.validators.IS_LIST_OF'>"
p4761
sS'SQLFORM'
p4762
S"<class 'gluon.sqlhtml.SQLFORM'>"
p4763
sS'_item'
p4764
S"'author'"
p4765
sS'EM'
p4766
S"<class 'gluon.html.EM'>"
p4767
sS'redirect'
p4768
S'<function redirect>'
p4769
sS'FIELDSET'
p4770
S"<class 'gluon.html.FIELDSET'>"
p4771
sS'IS_EQUAL_TO'
p4772
S"<class 'gluon.validators.IS_EQUAL_TO'>"
p4773
sS'embed64'
p4774
S'<function embed64>'
p4775
sS'INPUT'
p4776
S"<class 'gluon.html.INPUT'>"
p4777
sS'EMBED'
p4778
S"<class 'gluon.html.EMBED'>"
p4779
sS'r'
S"<Row {'movie': <Row {'name': 'MOVIE', 'song': <g...ete_record': <function <lambda> at 0xb2878ec>}>}>"
p4780
sS'FORM'
p4781
S"<class 'gluon.html.FORM'>"
p4782
sS'width_content'
p4783
S"'100%'"
p4784
sS'H2'
p4785
S"<class 'gluon.html.H2'>"
p4786
sS'H3'
p4787
S"<class 'gluon.html.H3'>"
p4788
sS'BUTTON'
p4789
S"<class 'gluon.html.BUTTON'>"
p4790
sS'H1'
p4791
S"<class 'gluon.html.H1'>"
p4792
sS'H6'
p4793
S"<class 'gluon.html.H6'>"
p4794
sS'H4'
p4795
S"<class 'gluon.html.H4'>"
p4796
sS'H5'
p4797
S"<class 'gluon.html.H5'>"
p4798
sS'UL'
p4799
S"<class 'gluon.html.UL'>"
p4800
sS'IS_UPPER'
p4801
S"<class 'gluon.validators.IS_UPPER'>"
p4802
sS'xmlescape'
p4803
S'<function xmlescape>'
p4804
sS'IS_TIME'
p4805
S"<class 'gluon.validators.IS_TIME'>"
p4806
sS'OPTION'
p4807
S"<class 'gluon.html.OPTION'>"
p4808
sS'TITLE'
p4809
S"<class 'gluon.html.TITLE'>"
p4810
sS'CRYPT'
p4811
S"<class 'gluon.validators.CRYPT'>"
p4812
sS'IS_EMPTY_OR'
p4813
S"<class 'gluon.validators.IS_EMPTY_OR'>"
p4814
sS'MARKMIN'
p4815
S"<class 'gluon.html.MARKMIN'>"
p4816
sS'service'
p4817
S'<gluon.tools.Service object>'
p4818
sS'SCRIPT'
p4819
S"<class 'gluon.html.SCRIPT'>"
p4820
sS'TABLE'
p4821
S"<class 'gluon.html.TABLE'>"
p4822
sS'IS_IPV4'
p4823
S"<class 'gluon.validators.IS_IPV4'>"
p4824
sS'IS_LENGTH'
p4825
S"<class 'gluon.validators.IS_LENGTH'>"
p4826
sS'XML'
p4827
S"<class 'gluon.html.XML'>"
p4828
sS'B'
S"<class 'gluon.html.B'>"
p4829
sS'IMG'
p4830
S"<class 'gluon.html.IMG'>"
p4831
sS'SQLTABLE'
p4832
S"<class 'gluon.sqlhtml.SQLTABLE'>"
p4833
sS'IS_MATCH'
p4834
S"<class 'gluon.validators.IS_MATCH'>"
p4835
sS'IS_ALPHANUMERIC'
p4836
S"<class 'gluon.validators.IS_ALPHANUMERIC'>"
p4837
sS'SPAN'
p4838
S"<class 'gluon.html.SPAN'>"
p4839
sS'IS_SLUG'
p4840
S"<class 'gluon.validators.IS_SLUG'>"
p4841
sS'BEAUTIFY'
p4842
S"<class 'gluon.html.BEAUTIFY'>"
p4843
sS'META'
p4844
S"<class 'gluon.html.META'>"
p4845
sS'IS_DATE'
p4846
S"<class 'gluon.validators.IS_DATE'>"
p4847
sS'IS_EMAIL'
p4848
S"<class 'gluon.validators.IS_EMAIL'>"
p4849
sS'IS_NOT_EMPTY'
p4850
S"<class 'gluon.validators.IS_NOT_EMPTY'>"
p4851
sg55
S"<Storage {'is_local': True, 'function': 'display....16-17-36.47c166a4-cd47-4933-a679-1c8f05cb86ca'}>"
p4852
sS'TBODY'
p4853
S"<class 'gluon.html.TBODY'>"
p4854
sS'CAT'
p4855
S"<class 'gluon.html.CAT'>"
p4856
sS'Field'
p4857
S"<class 'gluon.dal.Field'>"
p4858
sS'Mail'
p4859
S"<class 'gluon.tools.Mail'>"
p4860
sS'DIV'
p4861
S"<class 'gluon.html.DIV'>"
p4862
sS'LEGEND'
p4863
S"<class 'gluon.html.LEGEND'>"
p4864
sS'DAL'
p4865
S"<class 'gluon.dal.DAL'>"
p4866
sS'TT'
p4867
S"<class 'gluon.html.TT'>"
p4868
sS'TR'
p4869
S"<class 'gluon.html.TR'>"
p4870
sS'LI'
p4871
S"<class 'gluon.html.LI'>"
p4872
sS'right_sidebar_enabled'
p4873
g99
sS'IFRAME'
p4874
S"<class 'gluon.html.IFRAME'>"
p4875
sS'TD'
p4876
S"<class 'gluon.html.TD'>"
p4877
sS'PluginManager'
p4878
S"<class 'gluon.tools.PluginManager'>"
p4879
sS'IS_URL'
p4880
S"<class 'gluon.validators.IS_URL'>"
p4881
sS'A'
S"<class 'gluon.html.A'>"
p4882
sS'STYLE'
p4883
S"<class 'gluon.html.STYLE'>"
p4884
sS'IS_DATETIME_IN_RANGE'
p4885
S"<class 'gluon.validators.IS_DATETIME_IN_RANGE'>"
p4886
sS'HTML'
p4887
S"<class 'gluon.html.HTML'>"
p4888
sS'IS_IMAGE'
p4889
S"<class 'gluon.validators.IS_IMAGE'>"
p4890
sS'I'
S"<class 'gluon.html.I'>"
p4891
sS'crud'
p4892
S'<gluon.tools.Crud object>'
p4893
sS'right_sidebar_style'
p4894
S'\'style="display: none;"\''
p4895
sS'IS_NOT_IN_DB'
p4896
S"<class 'gluon.validators.IS_NOT_IN_DB'>"
p4897
sg2750
S"<Storage {'body': <cStringIO.StringO object at 0...0xb26d1b4>, 'view': 'default/display_link.html'}>"
p4898
sS'THEAD'
p4899
S"<class 'gluon.html.THEAD'>"
p4900
sS'IS_NULL_OR'
p4901
S"<class 'gluon.validators.IS_EMPTY_OR'>"
p4902
sS'prettydate'
p4903
S'<function prettydate>'
p4904
sS'i'
S"'movie'"
p4905
sS'IS_FLOAT_IN_RANGE'
p4906
S"<class 'gluon.validators.IS_FLOAT_IN_RANGE'>"
p4907
sS'IS_EXPR'
p4908
S"<class 'gluon.validators.IS_EXPR'>"
p4909
sS'T'
S'<gluon.languages.translator object>'
p4910
sS'IS_IN_SET'
p4911
S"<class 'gluon.validators.IS_IN_SET'>"
p4912
sS'IS_UPLOAD_FILENAME'
p4913
S"<class 'gluon.validators.IS_UPLOAD_FILENAME'>"
p4914
sS'style_content'
p4915
S'\'style="width: 100%"\''
p4916
sS'IS_DECIMAL_IN_RANGE'
p4917
S"<class 'gluon.validators.IS_DECIMAL_IN_RANGE'>"
p4918
sssS'traceback'
p4919
S'Traceback (most recent call last):\n  File "/home/vsvah/Desktop/Coursework/Sem3/SSAD/web2py/gluon/restricted.py", line 192, in restricted\n    exec ccode in environment\n  File "/home/vsvah/Desktop/Coursework/Sem3/SSAD/web2py/applications/Music_Repo/views/default/display_link.html", line 105, in <module>\nAttributeError: \'str\' object has no attribute \'song\'\n'
p4920
s.